ARM GAS  /var/folders/yd/h_51qzcj4039f6rvxdz3lvym0000gn/T//cca9f80X.s 			page 1


   1              		.cpu cortex-m7
   2              		.arch armv7e-m
   3              		.fpu fpv5-d16
   4              		.eabi_attribute 28, 1
   5              		.eabi_attribute 20, 1
   6              		.eabi_attribute 21, 1
   7              		.eabi_attribute 23, 3
   8              		.eabi_attribute 24, 1
   9              		.eabi_attribute 25, 1
  10              		.eabi_attribute 26, 1
  11              		.eabi_attribute 30, 2
  12              		.eabi_attribute 34, 1
  13              		.eabi_attribute 18, 4
  14              		.file	"TSClipping.cpp"
  15              		.text
  16              	.Ltext0:
  17              		.cfi_sections	.debug_frame
  18              		.section	.text._ZN7chowdsp4wdft7RootWDF24propagateImpedanceChangeEv,"axG",%progbits,_ZN7chowdsp4wd
  19              		.align	1
  20              		.p2align 2,,3
  21              		.weak	_ZN7chowdsp4wdft7RootWDF24propagateImpedanceChangeEv
  22              		.syntax unified
  23              		.thumb
  24              		.thumb_func
  26              	_ZN7chowdsp4wdft7RootWDF24propagateImpedanceChangeEv:
  27              	.LVL0:
  28              	.LFB558:
  29              		.file 1 "./chowdsp_wdf/wdft/wdft_base.h"
   1:./chowdsp_wdf/wdft/wdft_base.h **** #ifndef CHOWDSP_WDF_WDFT_BASE_H
   2:./chowdsp_wdf/wdft/wdft_base.h **** #define CHOWDSP_WDF_WDFT_BASE_H
   3:./chowdsp_wdf/wdft/wdft_base.h **** 
   4:./chowdsp_wdf/wdft/wdft_base.h **** #include "../math/sample_type.h"
   5:./chowdsp_wdf/wdft/wdft_base.h **** 
   6:./chowdsp_wdf/wdft/wdft_base.h **** namespace chowdsp
   7:./chowdsp_wdf/wdft/wdft_base.h **** {
   8:./chowdsp_wdf/wdft/wdft_base.h **** namespace wdft
   9:./chowdsp_wdf/wdft/wdft_base.h **** {
  10:./chowdsp_wdf/wdft/wdft_base.h ****     /** Base WDF class for propagating impedance changes between elements */
  11:./chowdsp_wdf/wdft/wdft_base.h ****     class BaseWDF
  12:./chowdsp_wdf/wdft/wdft_base.h ****     {
  13:./chowdsp_wdf/wdft/wdft_base.h ****     public:
  14:./chowdsp_wdf/wdft/wdft_base.h ****         virtual ~BaseWDF() = default;
  15:./chowdsp_wdf/wdft/wdft_base.h **** 
  16:./chowdsp_wdf/wdft/wdft_base.h ****         void connectToParent (BaseWDF* p) { parent = p; }
  17:./chowdsp_wdf/wdft/wdft_base.h **** 
  18:./chowdsp_wdf/wdft/wdft_base.h ****         virtual void calcImpedance() = 0;
  19:./chowdsp_wdf/wdft/wdft_base.h **** 
  20:./chowdsp_wdf/wdft/wdft_base.h ****         inline virtual void propagateImpedanceChange()
  21:./chowdsp_wdf/wdft/wdft_base.h ****         {
  22:./chowdsp_wdf/wdft/wdft_base.h ****             if (dontPropagateImpedance)
  23:./chowdsp_wdf/wdft/wdft_base.h ****                 return; // the impedance propagation is being deferred until later...
  24:./chowdsp_wdf/wdft/wdft_base.h **** 
  25:./chowdsp_wdf/wdft/wdft_base.h ****             calcImpedance();
  26:./chowdsp_wdf/wdft/wdft_base.h **** 
  27:./chowdsp_wdf/wdft/wdft_base.h ****             if (parent != nullptr)
  28:./chowdsp_wdf/wdft/wdft_base.h ****                 parent->propagateImpedanceChange();
  29:./chowdsp_wdf/wdft/wdft_base.h ****         }
ARM GAS  /var/folders/yd/h_51qzcj4039f6rvxdz3lvym0000gn/T//cca9f80X.s 			page 2


  30:./chowdsp_wdf/wdft/wdft_base.h **** 
  31:./chowdsp_wdf/wdft/wdft_base.h ****     protected:
  32:./chowdsp_wdf/wdft/wdft_base.h ****         BaseWDF* parent = nullptr;
  33:./chowdsp_wdf/wdft/wdft_base.h **** 
  34:./chowdsp_wdf/wdft/wdft_base.h ****     private:
  35:./chowdsp_wdf/wdft/wdft_base.h ****         bool dontPropagateImpedance = false;
  36:./chowdsp_wdf/wdft/wdft_base.h **** 
  37:./chowdsp_wdf/wdft/wdft_base.h ****         template <typename... Elements>
  38:./chowdsp_wdf/wdft/wdft_base.h ****         friend class ScopedDeferImpedancePropagation;
  39:./chowdsp_wdf/wdft/wdft_base.h ****     };
  40:./chowdsp_wdf/wdft/wdft_base.h **** 
  41:./chowdsp_wdf/wdft/wdft_base.h ****     /** Base class for propagating impedance changes into root WDF elements */
  42:./chowdsp_wdf/wdft/wdft_base.h ****     class RootWDF : public BaseWDF
  43:./chowdsp_wdf/wdft/wdft_base.h ****     {
  44:./chowdsp_wdf/wdft/wdft_base.h ****     public:
  45:./chowdsp_wdf/wdft/wdft_base.h ****         inline void propagateImpedanceChange() override { calcImpedance(); }
  30              		.loc 1 45 21 view -0
  31              		.cfi_startproc
  32              		@ args = 0, pretend = 0, frame = 0
  33              		@ frame_needed = 0, uses_anonymous_args = 0
  34              		@ link register save eliminated.
  35              		.loc 1 45 59 view .LVU1
  36              		.loc 1 45 73 is_stmt 0 view .LVU2
  37 0000 0368     		ldr	r3, [r0]
  38              		.loc 1 45 72 view .LVU3
  39 0002 9B68     		ldr	r3, [r3, #8]
  40 0004 1847     		bx	r3	@ indirect register sibling call
  41              	.LVL1:
  42              		.loc 1 45 72 view .LVU4
  43              		.cfi_endproc
  44              	.LFE558:
  46 0006 00BF     		.section	.text._ZN7chowdsp4wdft9ResistorTIfED2Ev,"axG",%progbits,_ZN7chowdsp4wdft9ResistorTIfED5Ev
  47              		.align	1
  48              		.p2align 2,,3
  49              		.weak	_ZN7chowdsp4wdft9ResistorTIfED2Ev
  50              		.syntax unified
  51              		.thumb
  52              		.thumb_func
  54              	_ZN7chowdsp4wdft9ResistorTIfED2Ev:
  55              	.LVL2:
  56              	.LFB3246:
  57              		.file 2 "./chowdsp_wdf/wdft/wdft_one_ports.h"
   1:./chowdsp_wdf/wdft/wdft_one_ports.h **** #ifndef CHOWDSP_WDF_WDFT_ONE_PORTS_H
   2:./chowdsp_wdf/wdft/wdft_one_ports.h **** #define CHOWDSP_WDF_WDFT_ONE_PORTS_H
   3:./chowdsp_wdf/wdft/wdft_one_ports.h **** 
   4:./chowdsp_wdf/wdft/wdft_one_ports.h **** #include "wdft_base.h"
   5:./chowdsp_wdf/wdft/wdft_one_ports.h **** 
   6:./chowdsp_wdf/wdft/wdft_one_ports.h **** namespace chowdsp
   7:./chowdsp_wdf/wdft/wdft_one_ports.h **** {
   8:./chowdsp_wdf/wdft/wdft_one_ports.h **** namespace wdft
   9:./chowdsp_wdf/wdft/wdft_one_ports.h **** {
  10:./chowdsp_wdf/wdft/wdft_one_ports.h ****     /** WDF Resistor Node */
  11:./chowdsp_wdf/wdft/wdft_one_ports.h ****     template <typename T>
  12:./chowdsp_wdf/wdft/wdft_one_ports.h ****     class ResistorT final : public BaseWDF
  58              		.loc 2 12 11 is_stmt 1 view -0
  59              		.cfi_startproc
  60              		@ args = 0, pretend = 0, frame = 0
ARM GAS  /var/folders/yd/h_51qzcj4039f6rvxdz3lvym0000gn/T//cca9f80X.s 			page 3


  61              		@ frame_needed = 0, uses_anonymous_args = 0
  62              		@ link register save eliminated.
  63              	.LBB1383:
  64              	.LBI1383:
  14:./chowdsp_wdf/wdft/wdft_base.h **** 
  65              		.loc 1 14 17 view .LVU6
  14:./chowdsp_wdf/wdft/wdft_base.h **** 
  66              		.loc 1 14 17 is_stmt 0 view .LVU7
  67              	.LBE1383:
  68              		.loc 2 12 11 view .LVU8
  69 0000 7047     		bx	lr
  70              		.cfi_endproc
  71              	.LFE3246:
  73              		.weak	_ZN7chowdsp4wdft9ResistorTIfED1Ev
  74              		.thumb_set _ZN7chowdsp4wdft9ResistorTIfED1Ev,_ZN7chowdsp4wdft9ResistorTIfED2Ev
  75 0002 00BF     		.section	.text._ZN7chowdsp4wdft10CapacitorTIfED2Ev,"axG",%progbits,_ZN7chowdsp4wdft10CapacitorTIfE
  76              		.align	1
  77              		.p2align 2,,3
  78              		.weak	_ZN7chowdsp4wdft10CapacitorTIfED2Ev
  79              		.syntax unified
  80              		.thumb
  81              		.thumb_func
  83              	_ZN7chowdsp4wdft10CapacitorTIfED2Ev:
  84              	.LVL3:
  85              	.LFB3257:
  13:./chowdsp_wdf/wdft/wdft_one_ports.h ****     {
  14:./chowdsp_wdf/wdft/wdft_one_ports.h ****     public:
  15:./chowdsp_wdf/wdft/wdft_one_ports.h ****         /** Creates a new WDF Resistor with a given resistance.
  16:./chowdsp_wdf/wdft/wdft_one_ports.h ****          * @param value: resistance in Ohms
  17:./chowdsp_wdf/wdft/wdft_one_ports.h ****          */
  18:./chowdsp_wdf/wdft/wdft_one_ports.h ****         explicit ResistorT (T value) : R_value (value)
  19:./chowdsp_wdf/wdft/wdft_one_ports.h ****         {
  20:./chowdsp_wdf/wdft/wdft_one_ports.h ****             calcImpedance();
  21:./chowdsp_wdf/wdft/wdft_one_ports.h ****         }
  22:./chowdsp_wdf/wdft/wdft_one_ports.h **** 
  23:./chowdsp_wdf/wdft/wdft_one_ports.h ****         /** Sets the resistance value of the WDF resistor, in Ohms. */
  24:./chowdsp_wdf/wdft/wdft_one_ports.h ****         void setResistanceValue (T newR)
  25:./chowdsp_wdf/wdft/wdft_one_ports.h ****         {
  26:./chowdsp_wdf/wdft/wdft_one_ports.h ****             if (all (newR == R_value))
  27:./chowdsp_wdf/wdft/wdft_one_ports.h ****                 return;
  28:./chowdsp_wdf/wdft/wdft_one_ports.h **** 
  29:./chowdsp_wdf/wdft/wdft_one_ports.h ****             R_value = newR;
  30:./chowdsp_wdf/wdft/wdft_one_ports.h ****             propagateImpedanceChange();
  31:./chowdsp_wdf/wdft/wdft_one_ports.h ****         }
  32:./chowdsp_wdf/wdft/wdft_one_ports.h **** 
  33:./chowdsp_wdf/wdft/wdft_one_ports.h ****         /** Computes the impedance of the WDF resistor, Z_R = R. */
  34:./chowdsp_wdf/wdft/wdft_one_ports.h ****         inline void calcImpedance() override
  35:./chowdsp_wdf/wdft/wdft_one_ports.h ****         {
  36:./chowdsp_wdf/wdft/wdft_one_ports.h ****             wdf.R = R_value;
  37:./chowdsp_wdf/wdft/wdft_one_ports.h ****             wdf.G = (T) 1.0 / wdf.R;
  38:./chowdsp_wdf/wdft/wdft_one_ports.h ****         }
  39:./chowdsp_wdf/wdft/wdft_one_ports.h **** 
  40:./chowdsp_wdf/wdft/wdft_one_ports.h ****         /** Accepts an incident wave into a WDF resistor. */
  41:./chowdsp_wdf/wdft/wdft_one_ports.h ****         inline void incident (T x) noexcept
  42:./chowdsp_wdf/wdft/wdft_one_ports.h ****         {
  43:./chowdsp_wdf/wdft/wdft_one_ports.h ****             wdf.a = x;
  44:./chowdsp_wdf/wdft/wdft_one_ports.h ****         }
ARM GAS  /var/folders/yd/h_51qzcj4039f6rvxdz3lvym0000gn/T//cca9f80X.s 			page 4


  45:./chowdsp_wdf/wdft/wdft_one_ports.h **** 
  46:./chowdsp_wdf/wdft/wdft_one_ports.h ****         /** Propogates a reflected wave from a WDF resistor. */
  47:./chowdsp_wdf/wdft/wdft_one_ports.h ****         inline T reflected() noexcept
  48:./chowdsp_wdf/wdft/wdft_one_ports.h ****         {
  49:./chowdsp_wdf/wdft/wdft_one_ports.h ****             wdf.b = 0.0;
  50:./chowdsp_wdf/wdft/wdft_one_ports.h ****             return wdf.b;
  51:./chowdsp_wdf/wdft/wdft_one_ports.h ****         }
  52:./chowdsp_wdf/wdft/wdft_one_ports.h **** 
  53:./chowdsp_wdf/wdft/wdft_one_ports.h ****         WDFMembers<T> wdf;
  54:./chowdsp_wdf/wdft/wdft_one_ports.h **** 
  55:./chowdsp_wdf/wdft/wdft_one_ports.h ****     private:
  56:./chowdsp_wdf/wdft/wdft_one_ports.h ****         T R_value = (T) 1.0e-9;
  57:./chowdsp_wdf/wdft/wdft_one_ports.h ****     };
  58:./chowdsp_wdf/wdft/wdft_one_ports.h **** 
  59:./chowdsp_wdf/wdft/wdft_one_ports.h ****     /** WDF Capacitor Node */
  60:./chowdsp_wdf/wdft/wdft_one_ports.h ****     template <typename T>
  61:./chowdsp_wdf/wdft/wdft_one_ports.h ****     class CapacitorT final : public BaseWDF
  86              		.loc 2 61 11 is_stmt 1 view -0
  87              		.cfi_startproc
  88              		@ args = 0, pretend = 0, frame = 0
  89              		@ frame_needed = 0, uses_anonymous_args = 0
  90              		@ link register save eliminated.
  91              	.LBB1384:
  92              	.LBI1384:
  14:./chowdsp_wdf/wdft/wdft_base.h **** 
  93              		.loc 1 14 17 view .LVU10
  14:./chowdsp_wdf/wdft/wdft_base.h **** 
  94              		.loc 1 14 17 is_stmt 0 view .LVU11
  95              	.LBE1384:
  96              		.loc 2 61 11 view .LVU12
  97 0000 7047     		bx	lr
  98              		.cfi_endproc
  99              	.LFE3257:
 101              		.weak	_ZN7chowdsp4wdft10CapacitorTIfED1Ev
 102              		.thumb_set _ZN7chowdsp4wdft10CapacitorTIfED1Ev,_ZN7chowdsp4wdft10CapacitorTIfED2Ev
 103 0002 00BF     		.section	.text._ZN7chowdsp4wdft10WDFSeriesTIfNS_3wdf3WDFIfEES4_ED2Ev,"axG",%progbits,_ZN7chowdsp4w
 104              		.align	1
 105              		.p2align 2,,3
 106              		.weak	_ZN7chowdsp4wdft10WDFSeriesTIfNS_3wdf3WDFIfEES4_ED2Ev
 107              		.syntax unified
 108              		.thumb
 109              		.thumb_func
 111              	_ZN7chowdsp4wdft10WDFSeriesTIfNS_3wdf3WDFIfEES4_ED2Ev:
 112              	.LVL4:
 113              	.LFB3268:
 114              		.file 3 "./chowdsp_wdf/wdft/wdft_adaptors.h"
   1:./chowdsp_wdf/wdft/wdft_adaptors.h **** #ifndef CHOWDSP_WDF_WDFT_ADAPTORS_H
   2:./chowdsp_wdf/wdft/wdft_adaptors.h **** #define CHOWDSP_WDF_WDFT_ADAPTORS_H
   3:./chowdsp_wdf/wdft/wdft_adaptors.h **** 
   4:./chowdsp_wdf/wdft/wdft_adaptors.h **** #include "wdft_base.h"
   5:./chowdsp_wdf/wdft/wdft_adaptors.h **** 
   6:./chowdsp_wdf/wdft/wdft_adaptors.h **** namespace chowdsp
   7:./chowdsp_wdf/wdft/wdft_adaptors.h **** {
   8:./chowdsp_wdf/wdft/wdft_adaptors.h **** namespace wdft
   9:./chowdsp_wdf/wdft/wdft_adaptors.h **** {
  10:./chowdsp_wdf/wdft/wdft_adaptors.h ****     /** WDF 3-port parallel adaptor */
  11:./chowdsp_wdf/wdft/wdft_adaptors.h ****     template <typename T, typename Port1Type, typename Port2Type>
ARM GAS  /var/folders/yd/h_51qzcj4039f6rvxdz3lvym0000gn/T//cca9f80X.s 			page 5


  12:./chowdsp_wdf/wdft/wdft_adaptors.h ****     class WDFParallelT final : public BaseWDF
  13:./chowdsp_wdf/wdft/wdft_adaptors.h ****     {
  14:./chowdsp_wdf/wdft/wdft_adaptors.h ****     public:
  15:./chowdsp_wdf/wdft/wdft_adaptors.h ****         /** Creates a new WDF parallel adaptor from two connected ports. */
  16:./chowdsp_wdf/wdft/wdft_adaptors.h ****         WDFParallelT (Port1Type& p1, Port2Type& p2) : port1 (p1),
  17:./chowdsp_wdf/wdft/wdft_adaptors.h ****                                                       port2 (p2)
  18:./chowdsp_wdf/wdft/wdft_adaptors.h ****         {
  19:./chowdsp_wdf/wdft/wdft_adaptors.h ****             port1.connectToParent (this);
  20:./chowdsp_wdf/wdft/wdft_adaptors.h ****             port2.connectToParent (this);
  21:./chowdsp_wdf/wdft/wdft_adaptors.h ****             calcImpedance();
  22:./chowdsp_wdf/wdft/wdft_adaptors.h ****         }
  23:./chowdsp_wdf/wdft/wdft_adaptors.h **** 
  24:./chowdsp_wdf/wdft/wdft_adaptors.h ****         /** Computes the impedance for a WDF parallel adaptor.
  25:./chowdsp_wdf/wdft/wdft_adaptors.h ****          *  1     1     1
  26:./chowdsp_wdf/wdft/wdft_adaptors.h ****          * --- = --- + ---
  27:./chowdsp_wdf/wdft/wdft_adaptors.h ****          * Z_p   Z_1   Z_2
  28:./chowdsp_wdf/wdft/wdft_adaptors.h ****          */
  29:./chowdsp_wdf/wdft/wdft_adaptors.h ****         inline void calcImpedance() override
  30:./chowdsp_wdf/wdft/wdft_adaptors.h ****         {
  31:./chowdsp_wdf/wdft/wdft_adaptors.h ****             wdf.G = port1.wdf.G + port2.wdf.G;
  32:./chowdsp_wdf/wdft/wdft_adaptors.h ****             wdf.R = (T) 1.0 / wdf.G;
  33:./chowdsp_wdf/wdft/wdft_adaptors.h ****             port1Reflect = port1.wdf.G / wdf.G;
  34:./chowdsp_wdf/wdft/wdft_adaptors.h ****         }
  35:./chowdsp_wdf/wdft/wdft_adaptors.h **** 
  36:./chowdsp_wdf/wdft/wdft_adaptors.h ****         /** Accepts an incident wave into a WDF parallel adaptor. */
  37:./chowdsp_wdf/wdft/wdft_adaptors.h ****         inline void incident (T x) noexcept
  38:./chowdsp_wdf/wdft/wdft_adaptors.h ****         {
  39:./chowdsp_wdf/wdft/wdft_adaptors.h ****             const auto b2 = wdf.b - port2.wdf.b + x;
  40:./chowdsp_wdf/wdft/wdft_adaptors.h ****             port1.incident (b2 + bDiff);
  41:./chowdsp_wdf/wdft/wdft_adaptors.h ****             port2.incident (b2);
  42:./chowdsp_wdf/wdft/wdft_adaptors.h **** 
  43:./chowdsp_wdf/wdft/wdft_adaptors.h ****             wdf.a = x;
  44:./chowdsp_wdf/wdft/wdft_adaptors.h ****         }
  45:./chowdsp_wdf/wdft/wdft_adaptors.h **** 
  46:./chowdsp_wdf/wdft/wdft_adaptors.h ****         /** Propogates a reflected wave from a WDF parallel adaptor. */
  47:./chowdsp_wdf/wdft/wdft_adaptors.h ****         inline T reflected() noexcept
  48:./chowdsp_wdf/wdft/wdft_adaptors.h ****         {
  49:./chowdsp_wdf/wdft/wdft_adaptors.h ****             port1.reflected();
  50:./chowdsp_wdf/wdft/wdft_adaptors.h ****             port2.reflected();
  51:./chowdsp_wdf/wdft/wdft_adaptors.h **** 
  52:./chowdsp_wdf/wdft/wdft_adaptors.h ****             bDiff = port2.wdf.b - port1.wdf.b;
  53:./chowdsp_wdf/wdft/wdft_adaptors.h ****             wdf.b = port2.wdf.b - port1Reflect * bDiff;
  54:./chowdsp_wdf/wdft/wdft_adaptors.h **** 
  55:./chowdsp_wdf/wdft/wdft_adaptors.h ****             return wdf.b;
  56:./chowdsp_wdf/wdft/wdft_adaptors.h ****         }
  57:./chowdsp_wdf/wdft/wdft_adaptors.h **** 
  58:./chowdsp_wdf/wdft/wdft_adaptors.h ****         Port1Type& port1;
  59:./chowdsp_wdf/wdft/wdft_adaptors.h ****         Port2Type& port2;
  60:./chowdsp_wdf/wdft/wdft_adaptors.h **** 
  61:./chowdsp_wdf/wdft/wdft_adaptors.h ****         WDFMembers<T> wdf;
  62:./chowdsp_wdf/wdft/wdft_adaptors.h **** 
  63:./chowdsp_wdf/wdft/wdft_adaptors.h ****     private:
  64:./chowdsp_wdf/wdft/wdft_adaptors.h ****         T port1Reflect = (T) 1.0;
  65:./chowdsp_wdf/wdft/wdft_adaptors.h ****         T bDiff = (T) 0.0;
  66:./chowdsp_wdf/wdft/wdft_adaptors.h ****     };
  67:./chowdsp_wdf/wdft/wdft_adaptors.h **** 
  68:./chowdsp_wdf/wdft/wdft_adaptors.h ****     /** WDF 3-port series adaptor */
ARM GAS  /var/folders/yd/h_51qzcj4039f6rvxdz3lvym0000gn/T//cca9f80X.s 			page 6


  69:./chowdsp_wdf/wdft/wdft_adaptors.h ****     template <typename T, typename Port1Type, typename Port2Type>
  70:./chowdsp_wdf/wdft/wdft_adaptors.h ****     class WDFSeriesT final : public BaseWDF
 115              		.loc 3 70 11 is_stmt 1 view -0
 116              		.cfi_startproc
 117              		@ args = 0, pretend = 0, frame = 0
 118              		@ frame_needed = 0, uses_anonymous_args = 0
 119              		@ link register save eliminated.
 120              	.LBB1385:
 121              	.LBI1385:
  14:./chowdsp_wdf/wdft/wdft_base.h **** 
 122              		.loc 1 14 17 view .LVU14
  14:./chowdsp_wdf/wdft/wdft_base.h **** 
 123              		.loc 1 14 17 is_stmt 0 view .LVU15
 124              	.LBE1385:
 125              		.loc 3 70 11 view .LVU16
 126 0000 7047     		bx	lr
 127              		.cfi_endproc
 128              	.LFE3268:
 130              		.weak	_ZN7chowdsp4wdft10WDFSeriesTIfNS_3wdf3WDFIfEES4_ED1Ev
 131              		.thumb_set _ZN7chowdsp4wdft10WDFSeriesTIfNS_3wdf3WDFIfEES4_ED1Ev,_ZN7chowdsp4wdft10WDFSeriesTIfNS_
 132 0002 00BF     		.section	.text._ZN7chowdsp4wdft19IdealVoltageSourceTIfNS_3wdf3WDFIfEEED2Ev,"axG",%progbits,_ZN7cho
 133              		.align	1
 134              		.p2align 2,,3
 135              		.weak	_ZN7chowdsp4wdft19IdealVoltageSourceTIfNS_3wdf3WDFIfEEED2Ev
 136              		.syntax unified
 137              		.thumb
 138              		.thumb_func
 140              	_ZN7chowdsp4wdft19IdealVoltageSourceTIfNS_3wdf3WDFIfEEED2Ev:
 141              	.LVL5:
 142              	.LFB3283:
 143              		.file 4 "./chowdsp_wdf/wdft/wdft_sources.h"
   1:./chowdsp_wdf/wdft/wdft_sources.h **** #ifndef CHOWDSP_WDF_WDFT_SOURCES_H
   2:./chowdsp_wdf/wdft/wdft_sources.h **** #define CHOWDSP_WDF_WDFT_SOURCES_H
   3:./chowdsp_wdf/wdft/wdft_sources.h **** 
   4:./chowdsp_wdf/wdft/wdft_sources.h **** #include "wdft_base.h"
   5:./chowdsp_wdf/wdft/wdft_sources.h **** 
   6:./chowdsp_wdf/wdft/wdft_sources.h **** namespace chowdsp
   7:./chowdsp_wdf/wdft/wdft_sources.h **** {
   8:./chowdsp_wdf/wdft/wdft_sources.h **** namespace wdft
   9:./chowdsp_wdf/wdft/wdft_sources.h **** {
  10:./chowdsp_wdf/wdft/wdft_sources.h ****     /** WDF Ideal Voltage source (non-adaptable) */
  11:./chowdsp_wdf/wdft/wdft_sources.h ****     template <typename T, typename Next>
  12:./chowdsp_wdf/wdft/wdft_sources.h ****     class IdealVoltageSourceT final : public RootWDF
 144              		.loc 4 12 11 is_stmt 1 view -0
 145              		.cfi_startproc
 146              		@ args = 0, pretend = 0, frame = 0
 147              		@ frame_needed = 0, uses_anonymous_args = 0
 148              		@ link register save eliminated.
 149              	.LBB1386:
 150              	.LBI1386:
  42:./chowdsp_wdf/wdft/wdft_base.h ****     {
 151              		.loc 1 42 11 view .LVU18
 152              	.LBB1387:
 153              	.LBI1387:
  14:./chowdsp_wdf/wdft/wdft_base.h **** 
 154              		.loc 1 14 17 view .LVU19
  14:./chowdsp_wdf/wdft/wdft_base.h **** 
ARM GAS  /var/folders/yd/h_51qzcj4039f6rvxdz3lvym0000gn/T//cca9f80X.s 			page 7


 155              		.loc 1 14 17 is_stmt 0 view .LVU20
 156              	.LBE1387:
 157              	.LBE1386:
 158              		.loc 4 12 11 view .LVU21
 159 0000 7047     		bx	lr
 160              		.cfi_endproc
 161              	.LFE3283:
 163              		.weak	_ZN7chowdsp4wdft19IdealVoltageSourceTIfNS_3wdf3WDFIfEEED1Ev
 164              		.thumb_set _ZN7chowdsp4wdft19IdealVoltageSourceTIfNS_3wdf3WDFIfEEED1Ev,_ZN7chowdsp4wdft19IdealVolt
 165 0002 00BF     		.section	.text._ZN7chowdsp3wdf10WDFWrapperIfNS_4wdft19IdealVoltageSourceTIfNS0_3WDFIfEEEEE8inciden
 166              		.align	1
 167              		.p2align 2,,3
 168              		.weak	_ZN7chowdsp3wdf10WDFWrapperIfNS_4wdft19IdealVoltageSourceTIfNS0_3WDFIfEEEEE8incidentEf
 169              		.syntax unified
 170              		.thumb
 171              		.thumb_func
 173              	_ZN7chowdsp3wdf10WDFWrapperIfNS_4wdft19IdealVoltageSourceTIfNS0_3WDFIfEEEEE8incidentEf:
 174              	.LVL6:
 175              	.LFB3295:
 176              		.file 5 "./chowdsp_wdf/wdf/wdf_base.h"
   1:./chowdsp_wdf/wdf/wdf_base.h **** #ifndef CHOWDSP_WDF_WDF_BASE_H
   2:./chowdsp_wdf/wdf/wdf_base.h **** #define CHOWDSP_WDF_WDF_BASE_H
   3:./chowdsp_wdf/wdf/wdf_base.h **** 
   4:./chowdsp_wdf/wdf/wdf_base.h **** #include <string>
   5:./chowdsp_wdf/wdf/wdf_base.h **** #include <utility>
   6:./chowdsp_wdf/wdf/wdf_base.h **** 
   7:./chowdsp_wdf/wdf/wdf_base.h **** #include "../wdft/wdft.h"
   8:./chowdsp_wdf/wdf/wdf_base.h **** 
   9:./chowdsp_wdf/wdf/wdf_base.h **** namespace chowdsp
  10:./chowdsp_wdf/wdf/wdf_base.h **** {
  11:./chowdsp_wdf/wdf/wdf_base.h **** namespace wdf
  12:./chowdsp_wdf/wdf/wdf_base.h **** {
  13:./chowdsp_wdf/wdf/wdf_base.h ****     /** Wave digital filter base class */
  14:./chowdsp_wdf/wdf/wdf_base.h ****     template <typename T>
  15:./chowdsp_wdf/wdf/wdf_base.h ****     class WDF : public wdft::BaseWDF
  16:./chowdsp_wdf/wdf/wdf_base.h ****     {
  17:./chowdsp_wdf/wdf/wdf_base.h ****     public:
  18:./chowdsp_wdf/wdf/wdf_base.h ****         explicit WDF (std::string type) : type (std::move (type)) {}
  19:./chowdsp_wdf/wdf/wdf_base.h ****         ~WDF() override = default;
  20:./chowdsp_wdf/wdf/wdf_base.h **** 
  21:./chowdsp_wdf/wdf/wdf_base.h ****         void connectToNode (WDF<T>* p) { wdfParent = p; }
  22:./chowdsp_wdf/wdf/wdf_base.h **** 
  23:./chowdsp_wdf/wdf/wdf_base.h ****         /** Sub-classes override this function to propagate
  24:./chowdsp_wdf/wdf/wdf_base.h ****      * an impedance change to the upstream elements in
  25:./chowdsp_wdf/wdf/wdf_base.h ****      * the WDF tree.
  26:./chowdsp_wdf/wdf/wdf_base.h ****      */
  27:./chowdsp_wdf/wdf/wdf_base.h ****         virtual inline void propagateImpedance()
  28:./chowdsp_wdf/wdf/wdf_base.h ****         {
  29:./chowdsp_wdf/wdf/wdf_base.h ****             calcImpedance();
  30:./chowdsp_wdf/wdf/wdf_base.h **** 
  31:./chowdsp_wdf/wdf/wdf_base.h ****             if (wdfParent != nullptr)
  32:./chowdsp_wdf/wdf/wdf_base.h ****                 wdfParent->propagateImpedance();
  33:./chowdsp_wdf/wdf/wdf_base.h ****         }
  34:./chowdsp_wdf/wdf/wdf_base.h **** 
  35:./chowdsp_wdf/wdf/wdf_base.h ****         /** Sub-classes override this function to accept an incident wave. */
  36:./chowdsp_wdf/wdf/wdf_base.h ****         virtual void incident (T x) noexcept = 0;
  37:./chowdsp_wdf/wdf/wdf_base.h **** 
ARM GAS  /var/folders/yd/h_51qzcj4039f6rvxdz3lvym0000gn/T//cca9f80X.s 			page 8


  38:./chowdsp_wdf/wdf/wdf_base.h ****         /** Sub-classes override this function to propogate a reflected wave. */
  39:./chowdsp_wdf/wdf/wdf_base.h ****         virtual T reflected() noexcept = 0;
  40:./chowdsp_wdf/wdf/wdf_base.h **** 
  41:./chowdsp_wdf/wdf/wdf_base.h ****         /** Probe the voltage across this circuit element. */
  42:./chowdsp_wdf/wdf/wdf_base.h ****         inline T voltage() const noexcept
  43:./chowdsp_wdf/wdf/wdf_base.h ****         {
  44:./chowdsp_wdf/wdf/wdf_base.h ****             return (wdf.a + wdf.b) / (T) 2.0;
  45:./chowdsp_wdf/wdf/wdf_base.h ****         }
  46:./chowdsp_wdf/wdf/wdf_base.h **** 
  47:./chowdsp_wdf/wdf/wdf_base.h ****         /**Probe the current through this circuit element. */
  48:./chowdsp_wdf/wdf/wdf_base.h ****         inline T current() const noexcept
  49:./chowdsp_wdf/wdf/wdf_base.h ****         {
  50:./chowdsp_wdf/wdf/wdf_base.h ****             return (wdf.a - wdf.b) / ((T) 2.0 * wdf.R);
  51:./chowdsp_wdf/wdf/wdf_base.h ****         }
  52:./chowdsp_wdf/wdf/wdf_base.h **** 
  53:./chowdsp_wdf/wdf/wdf_base.h ****         // These classes need access to a,b
  54:./chowdsp_wdf/wdf/wdf_base.h ****         template <typename>
  55:./chowdsp_wdf/wdf/wdf_base.h ****         friend class YParameter;
  56:./chowdsp_wdf/wdf/wdf_base.h **** 
  57:./chowdsp_wdf/wdf/wdf_base.h ****         template <typename>
  58:./chowdsp_wdf/wdf/wdf_base.h ****         friend class WDFParallel;
  59:./chowdsp_wdf/wdf/wdf_base.h **** 
  60:./chowdsp_wdf/wdf/wdf_base.h ****         template <typename>
  61:./chowdsp_wdf/wdf/wdf_base.h ****         friend class WDFSeries;
  62:./chowdsp_wdf/wdf/wdf_base.h **** 
  63:./chowdsp_wdf/wdf/wdf_base.h ****         wdft::WDFMembers<T> wdf;
  64:./chowdsp_wdf/wdf/wdf_base.h **** 
  65:./chowdsp_wdf/wdf/wdf_base.h ****     private:
  66:./chowdsp_wdf/wdf/wdf_base.h ****         const std::string type;
  67:./chowdsp_wdf/wdf/wdf_base.h **** 
  68:./chowdsp_wdf/wdf/wdf_base.h ****         WDF<T>* wdfParent = nullptr;
  69:./chowdsp_wdf/wdf/wdf_base.h ****     };
  70:./chowdsp_wdf/wdf/wdf_base.h **** 
  71:./chowdsp_wdf/wdf/wdf_base.h ****     template <typename T, typename WDFType>
  72:./chowdsp_wdf/wdf/wdf_base.h ****     class WDFWrapper : public WDF<T>
  73:./chowdsp_wdf/wdf/wdf_base.h ****     {
  74:./chowdsp_wdf/wdf/wdf_base.h ****     public:
  75:./chowdsp_wdf/wdf/wdf_base.h ****         template <typename... Args>
  76:./chowdsp_wdf/wdf/wdf_base.h ****         explicit WDFWrapper (const std::string& name, Args&&... args) : WDF<T> (name),
  77:./chowdsp_wdf/wdf/wdf_base.h ****                                                                         internalWDF (std::forward<A
  78:./chowdsp_wdf/wdf/wdf_base.h ****         {
  79:./chowdsp_wdf/wdf/wdf_base.h ****             calcImpedance();
  80:./chowdsp_wdf/wdf/wdf_base.h ****         }
  81:./chowdsp_wdf/wdf/wdf_base.h **** 
  82:./chowdsp_wdf/wdf/wdf_base.h ****         /** Computes the impedance of the WDF resistor, Z_R = R. */
  83:./chowdsp_wdf/wdf/wdf_base.h ****         inline void calcImpedance() override
  84:./chowdsp_wdf/wdf/wdf_base.h ****         {
  85:./chowdsp_wdf/wdf/wdf_base.h ****             internalWDF.calcImpedance();
  86:./chowdsp_wdf/wdf/wdf_base.h ****             this->wdf.R = internalWDF.wdf.R;
  87:./chowdsp_wdf/wdf/wdf_base.h ****             this->wdf.G = internalWDF.wdf.G;
  88:./chowdsp_wdf/wdf/wdf_base.h ****         }
  89:./chowdsp_wdf/wdf/wdf_base.h **** 
  90:./chowdsp_wdf/wdf/wdf_base.h ****         /** Accepts an incident wave into a WDF resistor. */
  91:./chowdsp_wdf/wdf/wdf_base.h ****         inline void incident (T x) noexcept override
 177              		.loc 5 91 21 is_stmt 1 view -0
 178              		.cfi_startproc
 179              		@ args = 0, pretend = 0, frame = 0
ARM GAS  /var/folders/yd/h_51qzcj4039f6rvxdz3lvym0000gn/T//cca9f80X.s 			page 9


 180              		@ frame_needed = 0, uses_anonymous_args = 0
 181              		@ link register save eliminated.
  92:./chowdsp_wdf/wdf/wdf_base.h ****         {
  93:./chowdsp_wdf/wdf/wdf_base.h ****             this->wdf.a = x;
 182              		.loc 5 93 25 is_stmt 0 view .LVU23
 183 0000 80ED050A 		vstr.32	s0, [r0, #20]
 184              	.LVL7:
 185              	.LBB1388:
 186              	.LBI1388:
  13:./chowdsp_wdf/wdft/wdft_sources.h ****     {
  14:./chowdsp_wdf/wdft/wdft_sources.h ****     public:
  15:./chowdsp_wdf/wdft/wdft_sources.h ****         explicit IdealVoltageSourceT (Next& next)
  16:./chowdsp_wdf/wdft/wdft_sources.h ****         {
  17:./chowdsp_wdf/wdft/wdft_sources.h ****             next.connectToParent (this);
  18:./chowdsp_wdf/wdft/wdft_sources.h ****             calcImpedance();
  19:./chowdsp_wdf/wdft/wdft_sources.h ****         }
  20:./chowdsp_wdf/wdft/wdft_sources.h **** 
  21:./chowdsp_wdf/wdft/wdft_sources.h ****         void calcImpedance() override {}
  22:./chowdsp_wdf/wdft/wdft_sources.h **** 
  23:./chowdsp_wdf/wdft/wdft_sources.h ****         /** Sets the voltage of the voltage source, in Volts */
  24:./chowdsp_wdf/wdft/wdft_sources.h ****         void setVoltage (T newV) { Vs = newV; }
  25:./chowdsp_wdf/wdft/wdft_sources.h **** 
  26:./chowdsp_wdf/wdft/wdft_sources.h ****         /** Accepts an incident wave into a WDF ideal voltage source. */
  27:./chowdsp_wdf/wdft/wdft_sources.h ****         inline void incident (T x) noexcept
 187              		.loc 4 27 21 is_stmt 1 view .LVU24
 188              	.LBB1389:
  28:./chowdsp_wdf/wdft/wdft_sources.h ****         {
  29:./chowdsp_wdf/wdft/wdft_sources.h ****             wdf.a = x;
 189              		.loc 4 29 19 is_stmt 0 view .LVU25
 190 0004 80ED130A 		vstr.32	s0, [r0, #76]
 191              	.LVL8:
 192              		.loc 4 29 19 view .LVU26
 193              	.LBE1389:
 194              	.LBE1388:
  94:./chowdsp_wdf/wdf/wdf_base.h ****             internalWDF.incident (x);
  95:./chowdsp_wdf/wdf/wdf_base.h ****         }
 195              		.loc 5 95 9 view .LVU27
 196 0008 7047     		bx	lr
 197              		.cfi_endproc
 198              	.LFE3295:
 200 000a 00BF     		.section	.text._ZN7chowdsp3wdf10WDFWrapperIfNS_4wdft19IdealVoltageSourceTIfNS0_3WDFIfEEEEE9reflect
 201              		.align	1
 202              		.p2align 2,,3
 203              		.weak	_ZN7chowdsp3wdf10WDFWrapperIfNS_4wdft19IdealVoltageSourceTIfNS0_3WDFIfEEEEE9reflectedEv
 204              		.syntax unified
 205              		.thumb
 206              		.thumb_func
 208              	_ZN7chowdsp3wdf10WDFWrapperIfNS_4wdft19IdealVoltageSourceTIfNS0_3WDFIfEEEEE9reflectedEv:
 209              	.LVL9:
 210              	.LFB3297:
  96:./chowdsp_wdf/wdf/wdf_base.h **** 
  97:./chowdsp_wdf/wdf/wdf_base.h ****         /** Propogates a reflected wave from a WDF resistor. */
  98:./chowdsp_wdf/wdf/wdf_base.h ****         inline T reflected() noexcept override
 211              		.loc 5 98 18 is_stmt 1 view -0
 212              		.cfi_startproc
 213              		@ args = 0, pretend = 0, frame = 0
 214              		@ frame_needed = 0, uses_anonymous_args = 0
ARM GAS  /var/folders/yd/h_51qzcj4039f6rvxdz3lvym0000gn/T//cca9f80X.s 			page 10


 215              		@ link register save eliminated.
 216              	.LBB1390:
 217              	.LBB1391:
  30:./chowdsp_wdf/wdft/wdft_sources.h ****         }
  31:./chowdsp_wdf/wdft/wdft_sources.h **** 
  32:./chowdsp_wdf/wdft/wdft_sources.h ****         /** Propogates a reflected wave from a WDF ideal voltage source. */
  33:./chowdsp_wdf/wdft/wdft_sources.h ****         inline T reflected() noexcept
  34:./chowdsp_wdf/wdft/wdft_sources.h ****         {
  35:./chowdsp_wdf/wdft/wdft_sources.h ****             wdf.b = -wdf.a + (T) 2.0 * Vs;
 218              		.loc 4 35 28 is_stmt 0 view .LVU29
 219 0000 F0EE007A 		vmov.f32	s15, #2.0e+0
 220              	.LVL10:
 221              		.loc 4 35 28 view .LVU30
 222              	.LBE1391:
 223              	.LBI1390:
  33:./chowdsp_wdf/wdft/wdft_sources.h ****         {
 224              		.loc 4 33 18 is_stmt 1 view .LVU31
 225              	.LBB1392:
 226              		.loc 4 35 28 is_stmt 0 view .LVU32
 227 0004 90ED130A 		vldr.32	s0, [r0, #76]
 228 0008 90ED157A 		vldr.32	s14, [r0, #84]
 229 000c 97EE270A 		vfnms.f32	s0, s14, s15
 230              		.loc 4 35 19 view .LVU33
 231 0010 80ED140A 		vstr.32	s0, [r0, #80]
 232              	.LVL11:
 233              		.loc 4 35 19 view .LVU34
 234              	.LBE1392:
 235              	.LBE1390:
  99:./chowdsp_wdf/wdf/wdf_base.h ****         {
 100:./chowdsp_wdf/wdf/wdf_base.h ****             this->wdf.b = internalWDF.reflected();
 236              		.loc 5 100 25 view .LVU35
 237 0014 80ED060A 		vstr.32	s0, [r0, #24]
 101:./chowdsp_wdf/wdf/wdf_base.h ****             return this->wdf.b;
 102:./chowdsp_wdf/wdf/wdf_base.h ****         }
 238              		.loc 5 102 9 view .LVU36
 239 0018 7047     		bx	lr
 240              		.cfi_endproc
 241              	.LFE3297:
 243 001a 00BF     		.section	.text._ZN7chowdsp4wdft12WDFParallelTIfNS_3wdf3WDFIfEES4_ED2Ev,"axG",%progbits,_ZN7chowdsp
 244              		.align	1
 245              		.p2align 2,,3
 246              		.weak	_ZN7chowdsp4wdft12WDFParallelTIfNS_3wdf3WDFIfEES4_ED2Ev
 247              		.syntax unified
 248              		.thumb
 249              		.thumb_func
 251              	_ZN7chowdsp4wdft12WDFParallelTIfNS_3wdf3WDFIfEES4_ED2Ev:
 252              	.LVL12:
 253              	.LFB3303:
  12:./chowdsp_wdf/wdft/wdft_adaptors.h ****     {
 254              		.loc 3 12 11 is_stmt 1 view -0
 255              		.cfi_startproc
 256              		@ args = 0, pretend = 0, frame = 0
 257              		@ frame_needed = 0, uses_anonymous_args = 0
 258              		@ link register save eliminated.
 259              	.LBB1393:
 260              	.LBI1393:
  14:./chowdsp_wdf/wdft/wdft_base.h **** 
ARM GAS  /var/folders/yd/h_51qzcj4039f6rvxdz3lvym0000gn/T//cca9f80X.s 			page 11


 261              		.loc 1 14 17 view .LVU38
  14:./chowdsp_wdf/wdft/wdft_base.h **** 
 262              		.loc 1 14 17 is_stmt 0 view .LVU39
 263              	.LBE1393:
  12:./chowdsp_wdf/wdft/wdft_adaptors.h ****     {
 264              		.loc 3 12 11 view .LVU40
 265 0000 7047     		bx	lr
 266              		.cfi_endproc
 267              	.LFE3303:
 269              		.weak	_ZN7chowdsp4wdft12WDFParallelTIfNS_3wdf3WDFIfEES4_ED1Ev
 270              		.thumb_set _ZN7chowdsp4wdft12WDFParallelTIfNS_3wdf3WDFIfEES4_ED1Ev,_ZN7chowdsp4wdft12WDFParallelTI
 271 0002 00BF     		.section	.text._ZN7chowdsp4wdft10DiodePairTIfNS_3wdf3WDFIfEELNS0_12DiodeQualityE1ENS_5Omega5OmegaE
 272              		.align	1
 273              		.p2align 2,,3
 274              		.weak	_ZN7chowdsp4wdft10DiodePairTIfNS_3wdf3WDFIfEELNS0_12DiodeQualityE1ENS_5Omega5OmegaEED2Ev
 275              		.syntax unified
 276              		.thumb
 277              		.thumb_func
 279              	_ZN7chowdsp4wdft10DiodePairTIfNS_3wdf3WDFIfEELNS0_12DiodeQualityE1ENS_5Omega5OmegaEED2Ev:
 280              	.LVL13:
 281              	.LFB3315:
 282              		.file 6 "./chowdsp_wdf/wdft/wdft_nonlinearities.h"
   1:./chowdsp_wdf/wdft/wdft_nonlinearities.h **** #ifndef CHOWDSP_WDF_WDFT_NONLINEARITIES_H
   2:./chowdsp_wdf/wdft/wdft_nonlinearities.h **** #define CHOWDSP_WDF_WDFT_NONLINEARITIES_H
   3:./chowdsp_wdf/wdft/wdft_nonlinearities.h **** 
   4:./chowdsp_wdf/wdft/wdft_nonlinearities.h **** #include <cmath>
   5:./chowdsp_wdf/wdft/wdft_nonlinearities.h **** 
   6:./chowdsp_wdf/wdft/wdft_nonlinearities.h **** #include "wdft_base.h"
   7:./chowdsp_wdf/wdft/wdft_nonlinearities.h **** 
   8:./chowdsp_wdf/wdft/wdft_nonlinearities.h **** #include "../math/signum.h"
   9:./chowdsp_wdf/wdft/wdft_nonlinearities.h **** #include "../math/omega.h"
  10:./chowdsp_wdf/wdft/wdft_nonlinearities.h **** 
  11:./chowdsp_wdf/wdft/wdft_nonlinearities.h **** namespace chowdsp
  12:./chowdsp_wdf/wdft/wdft_nonlinearities.h **** {
  13:./chowdsp_wdf/wdft/wdft_nonlinearities.h **** namespace wdft
  14:./chowdsp_wdf/wdft/wdft_nonlinearities.h **** {
  15:./chowdsp_wdf/wdft/wdft_nonlinearities.h ****     /** Enum to determine which diode approximation eqn. to use */
  16:./chowdsp_wdf/wdft/wdft_nonlinearities.h ****     enum DiodeQuality
  17:./chowdsp_wdf/wdft/wdft_nonlinearities.h ****     {
  18:./chowdsp_wdf/wdft/wdft_nonlinearities.h ****         Good, // see reference eqn (18)
  19:./chowdsp_wdf/wdft/wdft_nonlinearities.h ****         Best, // see reference eqn (39)
  20:./chowdsp_wdf/wdft/wdft_nonlinearities.h ****     };
  21:./chowdsp_wdf/wdft/wdft_nonlinearities.h **** 
  22:./chowdsp_wdf/wdft/wdft_nonlinearities.h ****     /**
  23:./chowdsp_wdf/wdft/wdft_nonlinearities.h ****      * WDF diode pair (non-adaptable)
  24:./chowdsp_wdf/wdft/wdft_nonlinearities.h ****      * See Werner et al., "An Improved and Generalized Diode Clipper Model for Wave Digital Filters
  25:./chowdsp_wdf/wdft/wdft_nonlinearities.h ****      * https://www.researchgate.net/publication/299514713_An_Improved_and_Generalized_Diode_Clipper
  26:./chowdsp_wdf/wdft/wdft_nonlinearities.h ****      */
  27:./chowdsp_wdf/wdft/wdft_nonlinearities.h ****     template <typename T, typename Next, DiodeQuality Quality = DiodeQuality::Best, typename OmegaP
  28:./chowdsp_wdf/wdft/wdft_nonlinearities.h ****     class DiodePairT final : public RootWDF
 283              		.loc 6 28 11 is_stmt 1 view -0
 284              		.cfi_startproc
 285              		@ args = 0, pretend = 0, frame = 0
 286              		@ frame_needed = 0, uses_anonymous_args = 0
 287              		@ link register save eliminated.
 288              	.LBB1394:
 289              	.LBI1394:
ARM GAS  /var/folders/yd/h_51qzcj4039f6rvxdz3lvym0000gn/T//cca9f80X.s 			page 12


  42:./chowdsp_wdf/wdft/wdft_base.h ****     {
 290              		.loc 1 42 11 view .LVU42
 291              	.LBB1395:
 292              	.LBI1395:
  14:./chowdsp_wdf/wdft/wdft_base.h **** 
 293              		.loc 1 14 17 view .LVU43
  14:./chowdsp_wdf/wdft/wdft_base.h **** 
 294              		.loc 1 14 17 is_stmt 0 view .LVU44
 295              	.LBE1395:
 296              	.LBE1394:
 297              		.loc 6 28 11 view .LVU45
 298 0000 7047     		bx	lr
 299              		.cfi_endproc
 300              	.LFE3315:
 302              		.weak	_ZN7chowdsp4wdft10DiodePairTIfNS_3wdf3WDFIfEELNS0_12DiodeQualityE1ENS_5Omega5OmegaEED1Ev
 303              		.thumb_set _ZN7chowdsp4wdft10DiodePairTIfNS_3wdf3WDFIfEELNS0_12DiodeQualityE1ENS_5Omega5OmegaEED1E
 304 0002 00BF     		.section	.text._ZN7chowdsp3wdf10WDFWrapperIfNS_4wdft10DiodePairTIfNS0_3WDFIfEELNS2_12DiodeQualityE
 305              		.align	1
 306              		.p2align 2,,3
 307              		.weak	_ZN7chowdsp3wdf10WDFWrapperIfNS_4wdft10DiodePairTIfNS0_3WDFIfEELNS2_12DiodeQualityE1ENS_5Ome
 308              		.syntax unified
 309              		.thumb
 310              		.thumb_func
 312              	_ZN7chowdsp3wdf10WDFWrapperIfNS_4wdft10DiodePairTIfNS0_3WDFIfEELNS2_12DiodeQualityE1ENS_5Omega5Omeg
 313              	.LVL14:
 314              	.LFB3330:
  91:./chowdsp_wdf/wdf/wdf_base.h ****         {
 315              		.loc 5 91 21 is_stmt 1 view -0
 316              		.cfi_startproc
 317              		@ args = 0, pretend = 0, frame = 0
 318              		@ frame_needed = 0, uses_anonymous_args = 0
 319              		@ link register save eliminated.
  93:./chowdsp_wdf/wdf/wdf_base.h ****             internalWDF.incident (x);
 320              		.loc 5 93 25 is_stmt 0 view .LVU47
 321 0000 80ED050A 		vstr.32	s0, [r0, #20]
 322              	.LVL15:
 323              	.LBB1396:
 324              	.LBI1396:
  29:./chowdsp_wdf/wdft/wdft_nonlinearities.h ****     {
  30:./chowdsp_wdf/wdft/wdft_nonlinearities.h ****     public:
  31:./chowdsp_wdf/wdft/wdft_nonlinearities.h ****         /**
  32:./chowdsp_wdf/wdft/wdft_nonlinearities.h ****          * Creates a new WDF diode pair, with the given diode specifications.
  33:./chowdsp_wdf/wdft/wdft_nonlinearities.h ****          * @param n: the next element in the WDF connection tree
  34:./chowdsp_wdf/wdft/wdft_nonlinearities.h ****          * @param Is: reverse saturation current
  35:./chowdsp_wdf/wdft/wdft_nonlinearities.h ****          * @param Vt: thermal voltage
  36:./chowdsp_wdf/wdft/wdft_nonlinearities.h ****          * @param nDiodes: the number of series diodes
  37:./chowdsp_wdf/wdft/wdft_nonlinearities.h ****          */
  38:./chowdsp_wdf/wdft/wdft_nonlinearities.h ****         DiodePairT (Next& n, T Is, T Vt = NumericType<T> (25.85e-3), T nDiodes = 1) : next (n)
  39:./chowdsp_wdf/wdft/wdft_nonlinearities.h ****         {
  40:./chowdsp_wdf/wdft/wdft_nonlinearities.h ****             n.connectToParent (this);
  41:./chowdsp_wdf/wdft/wdft_nonlinearities.h ****             setDiodeParameters (Is, Vt, nDiodes);
  42:./chowdsp_wdf/wdft/wdft_nonlinearities.h ****         }
  43:./chowdsp_wdf/wdft/wdft_nonlinearities.h **** 
  44:./chowdsp_wdf/wdft/wdft_nonlinearities.h ****         /** Sets diode specific parameters */
  45:./chowdsp_wdf/wdft/wdft_nonlinearities.h ****         void setDiodeParameters (T newIs, T newVt, T nDiodes)
  46:./chowdsp_wdf/wdft/wdft_nonlinearities.h ****         {
  47:./chowdsp_wdf/wdft/wdft_nonlinearities.h ****             Is = newIs;
ARM GAS  /var/folders/yd/h_51qzcj4039f6rvxdz3lvym0000gn/T//cca9f80X.s 			page 13


  48:./chowdsp_wdf/wdft/wdft_nonlinearities.h ****             Vt = nDiodes * newVt;
  49:./chowdsp_wdf/wdft/wdft_nonlinearities.h ****             twoVt = (T) 2 * Vt;
  50:./chowdsp_wdf/wdft/wdft_nonlinearities.h ****             oneOverVt = (T) 1 / Vt;
  51:./chowdsp_wdf/wdft/wdft_nonlinearities.h ****             calcImpedance();
  52:./chowdsp_wdf/wdft/wdft_nonlinearities.h ****         }
  53:./chowdsp_wdf/wdft/wdft_nonlinearities.h **** 
  54:./chowdsp_wdf/wdft/wdft_nonlinearities.h ****         inline void calcImpedance() override
  55:./chowdsp_wdf/wdft/wdft_nonlinearities.h ****         {
  56:./chowdsp_wdf/wdft/wdft_nonlinearities.h **** #if defined(XSIMD_HPP)
  57:./chowdsp_wdf/wdft/wdft_nonlinearities.h ****             using xsimd::log;
  58:./chowdsp_wdf/wdft/wdft_nonlinearities.h **** #endif
  59:./chowdsp_wdf/wdft/wdft_nonlinearities.h ****             using std::log;
  60:./chowdsp_wdf/wdft/wdft_nonlinearities.h **** 
  61:./chowdsp_wdf/wdft/wdft_nonlinearities.h ****             R_Is = next.wdf.R * Is;
  62:./chowdsp_wdf/wdft/wdft_nonlinearities.h ****             R_Is_overVt = R_Is * oneOverVt;
  63:./chowdsp_wdf/wdft/wdft_nonlinearities.h ****             logR_Is_overVt = log (R_Is_overVt);
  64:./chowdsp_wdf/wdft/wdft_nonlinearities.h ****         }
  65:./chowdsp_wdf/wdft/wdft_nonlinearities.h **** 
  66:./chowdsp_wdf/wdft/wdft_nonlinearities.h ****         /** Accepts an incident wave into a WDF diode pair. */
  67:./chowdsp_wdf/wdft/wdft_nonlinearities.h ****         inline void incident (T x) noexcept
 325              		.loc 6 67 21 is_stmt 1 view .LVU48
 326              	.LBB1397:
  68:./chowdsp_wdf/wdft/wdft_nonlinearities.h ****         {
  69:./chowdsp_wdf/wdft/wdft_nonlinearities.h ****             wdf.a = x;
 327              		.loc 6 69 19 is_stmt 0 view .LVU49
 328 0004 80ED130A 		vstr.32	s0, [r0, #76]
 329              	.LVL16:
 330              		.loc 6 69 19 view .LVU50
 331              	.LBE1397:
 332              	.LBE1396:
  95:./chowdsp_wdf/wdf/wdf_base.h **** 
 333              		.loc 5 95 9 view .LVU51
 334 0008 7047     		bx	lr
 335              		.cfi_endproc
 336              	.LFE3330:
 338 000a 00BF     		.section	.text._ZN7chowdsp4wdft23ResistiveCurrentSourceTIfED2Ev,"axG",%progbits,_ZN7chowdsp4wdft23
 339              		.align	1
 340              		.p2align 2,,3
 341              		.weak	_ZN7chowdsp4wdft23ResistiveCurrentSourceTIfED2Ev
 342              		.syntax unified
 343              		.thumb
 344              		.thumb_func
 346              	_ZN7chowdsp4wdft23ResistiveCurrentSourceTIfED2Ev:
 347              	.LVL17:
 348              	.LFB3337:
  36:./chowdsp_wdf/wdft/wdft_sources.h ****             return wdf.b;
  37:./chowdsp_wdf/wdft/wdft_sources.h ****         }
  38:./chowdsp_wdf/wdft/wdft_sources.h **** 
  39:./chowdsp_wdf/wdft/wdft_sources.h ****         WDFMembers<T> wdf;
  40:./chowdsp_wdf/wdft/wdft_sources.h **** 
  41:./chowdsp_wdf/wdft/wdft_sources.h ****     private:
  42:./chowdsp_wdf/wdft/wdft_sources.h ****         T Vs = (T) 0.0;
  43:./chowdsp_wdf/wdft/wdft_sources.h ****     };
  44:./chowdsp_wdf/wdft/wdft_sources.h **** 
  45:./chowdsp_wdf/wdft/wdft_sources.h ****     /** WDF Voltage source with series resistance */
  46:./chowdsp_wdf/wdft/wdft_sources.h ****     template <typename T>
  47:./chowdsp_wdf/wdft/wdft_sources.h ****     class ResistiveVoltageSourceT final : public BaseWDF
ARM GAS  /var/folders/yd/h_51qzcj4039f6rvxdz3lvym0000gn/T//cca9f80X.s 			page 14


  48:./chowdsp_wdf/wdft/wdft_sources.h ****     {
  49:./chowdsp_wdf/wdft/wdft_sources.h ****     public:
  50:./chowdsp_wdf/wdft/wdft_sources.h ****         /** Creates a new resistive voltage source.
  51:./chowdsp_wdf/wdft/wdft_sources.h ****          * @param value: initial resistance value, in Ohms
  52:./chowdsp_wdf/wdft/wdft_sources.h ****          */
  53:./chowdsp_wdf/wdft/wdft_sources.h ****         explicit ResistiveVoltageSourceT (T value = NumericType<T> (1.0e-9)) : R_value (value)
  54:./chowdsp_wdf/wdft/wdft_sources.h ****         {
  55:./chowdsp_wdf/wdft/wdft_sources.h ****             calcImpedance();
  56:./chowdsp_wdf/wdft/wdft_sources.h ****         }
  57:./chowdsp_wdf/wdft/wdft_sources.h **** 
  58:./chowdsp_wdf/wdft/wdft_sources.h ****         /** Sets the resistance value of the series resistor, in Ohms. */
  59:./chowdsp_wdf/wdft/wdft_sources.h ****         void setResistanceValue (T newR)
  60:./chowdsp_wdf/wdft/wdft_sources.h ****         {
  61:./chowdsp_wdf/wdft/wdft_sources.h ****             if (all (newR == R_value))
  62:./chowdsp_wdf/wdft/wdft_sources.h ****                 return;
  63:./chowdsp_wdf/wdft/wdft_sources.h **** 
  64:./chowdsp_wdf/wdft/wdft_sources.h ****             R_value = newR;
  65:./chowdsp_wdf/wdft/wdft_sources.h ****             propagateImpedanceChange();
  66:./chowdsp_wdf/wdft/wdft_sources.h ****         }
  67:./chowdsp_wdf/wdft/wdft_sources.h **** 
  68:./chowdsp_wdf/wdft/wdft_sources.h ****         /** Computes the impedance for a WDF resistive voltage souce
  69:./chowdsp_wdf/wdft/wdft_sources.h ****          * Z_Vr = Z_R
  70:./chowdsp_wdf/wdft/wdft_sources.h ****          */
  71:./chowdsp_wdf/wdft/wdft_sources.h ****         inline void calcImpedance() override
  72:./chowdsp_wdf/wdft/wdft_sources.h ****         {
  73:./chowdsp_wdf/wdft/wdft_sources.h ****             wdf.R = R_value;
  74:./chowdsp_wdf/wdft/wdft_sources.h ****             wdf.G = (T) 1.0 / wdf.R;
  75:./chowdsp_wdf/wdft/wdft_sources.h ****         }
  76:./chowdsp_wdf/wdft/wdft_sources.h **** 
  77:./chowdsp_wdf/wdft/wdft_sources.h ****         /** Sets the voltage of the voltage source, in Volts */
  78:./chowdsp_wdf/wdft/wdft_sources.h ****         void setVoltage (T newV) { Vs = newV; }
  79:./chowdsp_wdf/wdft/wdft_sources.h **** 
  80:./chowdsp_wdf/wdft/wdft_sources.h ****         /** Accepts an incident wave into a WDF resistive voltage source. */
  81:./chowdsp_wdf/wdft/wdft_sources.h ****         inline void incident (T x) noexcept
  82:./chowdsp_wdf/wdft/wdft_sources.h ****         {
  83:./chowdsp_wdf/wdft/wdft_sources.h ****             wdf.a = x;
  84:./chowdsp_wdf/wdft/wdft_sources.h ****         }
  85:./chowdsp_wdf/wdft/wdft_sources.h **** 
  86:./chowdsp_wdf/wdft/wdft_sources.h ****         /** Propogates a reflected wave from a WDF resistive voltage source. */
  87:./chowdsp_wdf/wdft/wdft_sources.h ****         inline T reflected() noexcept
  88:./chowdsp_wdf/wdft/wdft_sources.h ****         {
  89:./chowdsp_wdf/wdft/wdft_sources.h ****             wdf.b = Vs;
  90:./chowdsp_wdf/wdft/wdft_sources.h ****             return wdf.b;
  91:./chowdsp_wdf/wdft/wdft_sources.h ****         }
  92:./chowdsp_wdf/wdft/wdft_sources.h **** 
  93:./chowdsp_wdf/wdft/wdft_sources.h ****         WDFMembers<T> wdf;
  94:./chowdsp_wdf/wdft/wdft_sources.h **** 
  95:./chowdsp_wdf/wdft/wdft_sources.h ****     private:
  96:./chowdsp_wdf/wdft/wdft_sources.h ****         T Vs = (T) 0.0;
  97:./chowdsp_wdf/wdft/wdft_sources.h ****         T R_value = (T) 1.0e-9;
  98:./chowdsp_wdf/wdft/wdft_sources.h ****     };
  99:./chowdsp_wdf/wdft/wdft_sources.h **** 
 100:./chowdsp_wdf/wdft/wdft_sources.h ****     /** WDF Voltage source with series capacitance */
 101:./chowdsp_wdf/wdft/wdft_sources.h ****     template <typename T>
 102:./chowdsp_wdf/wdft/wdft_sources.h ****     class CapacitiveVoltageSourceT final : public BaseWDF
 103:./chowdsp_wdf/wdft/wdft_sources.h ****     {
 104:./chowdsp_wdf/wdft/wdft_sources.h ****     public:
ARM GAS  /var/folders/yd/h_51qzcj4039f6rvxdz3lvym0000gn/T//cca9f80X.s 			page 15


 105:./chowdsp_wdf/wdft/wdft_sources.h ****         /** Creates a new resistive voltage source.
 106:./chowdsp_wdf/wdft/wdft_sources.h ****          * @param value: initial resistance value, in Ohms
 107:./chowdsp_wdf/wdft/wdft_sources.h ****          */
 108:./chowdsp_wdf/wdft/wdft_sources.h ****         explicit CapacitiveVoltageSourceT (T value = NumericType<T> (1.0e-6), T fs = (T) 48000)
 109:./chowdsp_wdf/wdft/wdft_sources.h ****             : C_value (value),
 110:./chowdsp_wdf/wdft/wdft_sources.h ****               fs (fs)
 111:./chowdsp_wdf/wdft/wdft_sources.h **** 
 112:./chowdsp_wdf/wdft/wdft_sources.h ****         {
 113:./chowdsp_wdf/wdft/wdft_sources.h ****             calcImpedance();
 114:./chowdsp_wdf/wdft/wdft_sources.h ****         }
 115:./chowdsp_wdf/wdft/wdft_sources.h **** 
 116:./chowdsp_wdf/wdft/wdft_sources.h ****         /** Prepares the capacitor to operate at a new sample rate */
 117:./chowdsp_wdf/wdft/wdft_sources.h ****         void prepare (T sampleRate)
 118:./chowdsp_wdf/wdft/wdft_sources.h ****         {
 119:./chowdsp_wdf/wdft/wdft_sources.h ****             fs = sampleRate;
 120:./chowdsp_wdf/wdft/wdft_sources.h ****             propagateImpedanceChange();
 121:./chowdsp_wdf/wdft/wdft_sources.h **** 
 122:./chowdsp_wdf/wdft/wdft_sources.h ****             reset();
 123:./chowdsp_wdf/wdft/wdft_sources.h ****         }
 124:./chowdsp_wdf/wdft/wdft_sources.h **** 
 125:./chowdsp_wdf/wdft/wdft_sources.h ****         void reset()
 126:./chowdsp_wdf/wdft/wdft_sources.h ****         {
 127:./chowdsp_wdf/wdft/wdft_sources.h ****             z = (T) 0;
 128:./chowdsp_wdf/wdft/wdft_sources.h ****             v_1 = (T) 0;
 129:./chowdsp_wdf/wdft/wdft_sources.h ****         }
 130:./chowdsp_wdf/wdft/wdft_sources.h **** 
 131:./chowdsp_wdf/wdft/wdft_sources.h ****         /** Sets the capacitance value of the series resistor, in Farads. */
 132:./chowdsp_wdf/wdft/wdft_sources.h ****         void setCapacitanceValue (T newC)
 133:./chowdsp_wdf/wdft/wdft_sources.h ****         {
 134:./chowdsp_wdf/wdft/wdft_sources.h ****             if (newC == C_value)
 135:./chowdsp_wdf/wdft/wdft_sources.h ****                 return;
 136:./chowdsp_wdf/wdft/wdft_sources.h **** 
 137:./chowdsp_wdf/wdft/wdft_sources.h ****             C_value = newC;
 138:./chowdsp_wdf/wdft/wdft_sources.h ****             propagateImpedanceChange();
 139:./chowdsp_wdf/wdft/wdft_sources.h ****         }
 140:./chowdsp_wdf/wdft/wdft_sources.h **** 
 141:./chowdsp_wdf/wdft/wdft_sources.h ****         /** Computes the impedance of the WDF capacitor,
 142:./chowdsp_wdf/wdft/wdft_sources.h ****          *             1
 143:./chowdsp_wdf/wdft/wdft_sources.h ****          * Z_C = --------------
 144:./chowdsp_wdf/wdft/wdft_sources.h ****          *        2 * f_s * C
 145:./chowdsp_wdf/wdft/wdft_sources.h ****          */
 146:./chowdsp_wdf/wdft/wdft_sources.h ****         inline void calcImpedance() override
 147:./chowdsp_wdf/wdft/wdft_sources.h ****         {
 148:./chowdsp_wdf/wdft/wdft_sources.h ****             wdf.R = (T) 1.0 / ((T) 2.0 * C_value * fs);
 149:./chowdsp_wdf/wdft/wdft_sources.h ****             wdf.G = (T) 1.0 / wdf.R;
 150:./chowdsp_wdf/wdft/wdft_sources.h ****         }
 151:./chowdsp_wdf/wdft/wdft_sources.h **** 
 152:./chowdsp_wdf/wdft/wdft_sources.h ****         /** Sets the voltage of the voltage source, in Volts */
 153:./chowdsp_wdf/wdft/wdft_sources.h ****         void setVoltage (T newV)
 154:./chowdsp_wdf/wdft/wdft_sources.h ****         {
 155:./chowdsp_wdf/wdft/wdft_sources.h ****             v_0 = newV;
 156:./chowdsp_wdf/wdft/wdft_sources.h ****         }
 157:./chowdsp_wdf/wdft/wdft_sources.h **** 
 158:./chowdsp_wdf/wdft/wdft_sources.h ****         /** Accepts an incident wave into a WDF resistive voltage source. */
 159:./chowdsp_wdf/wdft/wdft_sources.h ****         inline void incident (T x) noexcept
 160:./chowdsp_wdf/wdft/wdft_sources.h ****         {
 161:./chowdsp_wdf/wdft/wdft_sources.h ****             wdf.a = x;
ARM GAS  /var/folders/yd/h_51qzcj4039f6rvxdz3lvym0000gn/T//cca9f80X.s 			page 16


 162:./chowdsp_wdf/wdft/wdft_sources.h ****             z = wdf.a;
 163:./chowdsp_wdf/wdft/wdft_sources.h ****         }
 164:./chowdsp_wdf/wdft/wdft_sources.h **** 
 165:./chowdsp_wdf/wdft/wdft_sources.h ****         /** Propogates a reflected wave from a WDF resistive voltage source. */
 166:./chowdsp_wdf/wdft/wdft_sources.h ****         inline T reflected() noexcept
 167:./chowdsp_wdf/wdft/wdft_sources.h ****         {
 168:./chowdsp_wdf/wdft/wdft_sources.h ****             wdf.b = z + v_0 - v_1;
 169:./chowdsp_wdf/wdft/wdft_sources.h ****             v_1 = v_0;
 170:./chowdsp_wdf/wdft/wdft_sources.h ****             return wdf.b;
 171:./chowdsp_wdf/wdft/wdft_sources.h ****         }
 172:./chowdsp_wdf/wdft/wdft_sources.h **** 
 173:./chowdsp_wdf/wdft/wdft_sources.h ****         WDFMembers<T> wdf;
 174:./chowdsp_wdf/wdft/wdft_sources.h **** 
 175:./chowdsp_wdf/wdft/wdft_sources.h ****     private:
 176:./chowdsp_wdf/wdft/wdft_sources.h ****         T C_value = (T) 1.0e-6;
 177:./chowdsp_wdf/wdft/wdft_sources.h **** 
 178:./chowdsp_wdf/wdft/wdft_sources.h ****         T z {};
 179:./chowdsp_wdf/wdft/wdft_sources.h ****         T v_0 {};
 180:./chowdsp_wdf/wdft/wdft_sources.h ****         T v_1 {};
 181:./chowdsp_wdf/wdft/wdft_sources.h **** 
 182:./chowdsp_wdf/wdft/wdft_sources.h ****         T fs;
 183:./chowdsp_wdf/wdft/wdft_sources.h ****     };
 184:./chowdsp_wdf/wdft/wdft_sources.h **** 
 185:./chowdsp_wdf/wdft/wdft_sources.h ****     /** WDF Current source (non-adaptable) */
 186:./chowdsp_wdf/wdft/wdft_sources.h ****     template <typename T, typename Next>
 187:./chowdsp_wdf/wdft/wdft_sources.h ****     class IdealCurrentSourceT final : public RootWDF
 188:./chowdsp_wdf/wdft/wdft_sources.h ****     {
 189:./chowdsp_wdf/wdft/wdft_sources.h ****     public:
 190:./chowdsp_wdf/wdft/wdft_sources.h ****         explicit IdealCurrentSourceT (Next& n) : next (n)
 191:./chowdsp_wdf/wdft/wdft_sources.h ****         {
 192:./chowdsp_wdf/wdft/wdft_sources.h ****             n.connectToParent (this);
 193:./chowdsp_wdf/wdft/wdft_sources.h ****             calcImpedance();
 194:./chowdsp_wdf/wdft/wdft_sources.h ****         }
 195:./chowdsp_wdf/wdft/wdft_sources.h **** 
 196:./chowdsp_wdf/wdft/wdft_sources.h ****         inline void calcImpedance() override
 197:./chowdsp_wdf/wdft/wdft_sources.h ****         {
 198:./chowdsp_wdf/wdft/wdft_sources.h ****             twoR = (T) 2.0 * next.wdf.R;
 199:./chowdsp_wdf/wdft/wdft_sources.h ****             twoR_Is = twoR * Is;
 200:./chowdsp_wdf/wdft/wdft_sources.h ****         }
 201:./chowdsp_wdf/wdft/wdft_sources.h **** 
 202:./chowdsp_wdf/wdft/wdft_sources.h ****         /** Sets the current of the current source, in Amps */
 203:./chowdsp_wdf/wdft/wdft_sources.h ****         void setCurrent (T newI)
 204:./chowdsp_wdf/wdft/wdft_sources.h ****         {
 205:./chowdsp_wdf/wdft/wdft_sources.h ****             Is = newI;
 206:./chowdsp_wdf/wdft/wdft_sources.h ****             twoR_Is = twoR * Is;
 207:./chowdsp_wdf/wdft/wdft_sources.h ****         }
 208:./chowdsp_wdf/wdft/wdft_sources.h **** 
 209:./chowdsp_wdf/wdft/wdft_sources.h ****         /** Accepts an incident wave into a WDF ideal current source. */
 210:./chowdsp_wdf/wdft/wdft_sources.h ****         inline void incident (T x) noexcept
 211:./chowdsp_wdf/wdft/wdft_sources.h ****         {
 212:./chowdsp_wdf/wdft/wdft_sources.h ****             wdf.a = x;
 213:./chowdsp_wdf/wdft/wdft_sources.h ****         }
 214:./chowdsp_wdf/wdft/wdft_sources.h **** 
 215:./chowdsp_wdf/wdft/wdft_sources.h ****         /** Propogates a reflected wave from a WDF ideal current source. */
 216:./chowdsp_wdf/wdft/wdft_sources.h ****         inline T reflected() noexcept
 217:./chowdsp_wdf/wdft/wdft_sources.h ****         {
 218:./chowdsp_wdf/wdft/wdft_sources.h ****             wdf.b = twoR_Is + wdf.a;
ARM GAS  /var/folders/yd/h_51qzcj4039f6rvxdz3lvym0000gn/T//cca9f80X.s 			page 17


 219:./chowdsp_wdf/wdft/wdft_sources.h ****             return wdf.b;
 220:./chowdsp_wdf/wdft/wdft_sources.h ****         }
 221:./chowdsp_wdf/wdft/wdft_sources.h **** 
 222:./chowdsp_wdf/wdft/wdft_sources.h ****         WDFMembers<T> wdf;
 223:./chowdsp_wdf/wdft/wdft_sources.h **** 
 224:./chowdsp_wdf/wdft/wdft_sources.h ****     private:
 225:./chowdsp_wdf/wdft/wdft_sources.h ****         const Next& next;
 226:./chowdsp_wdf/wdft/wdft_sources.h **** 
 227:./chowdsp_wdf/wdft/wdft_sources.h ****         T Is = (T) 0.0;
 228:./chowdsp_wdf/wdft/wdft_sources.h ****         T twoR;
 229:./chowdsp_wdf/wdft/wdft_sources.h ****         T twoR_Is;
 230:./chowdsp_wdf/wdft/wdft_sources.h ****     };
 231:./chowdsp_wdf/wdft/wdft_sources.h **** 
 232:./chowdsp_wdf/wdft/wdft_sources.h ****     /** WDF Current source with parallel resistance */
 233:./chowdsp_wdf/wdft/wdft_sources.h ****     template <typename T>
 234:./chowdsp_wdf/wdft/wdft_sources.h ****     class ResistiveCurrentSourceT final : public BaseWDF
 349              		.loc 4 234 11 is_stmt 1 view -0
 350              		.cfi_startproc
 351              		@ args = 0, pretend = 0, frame = 0
 352              		@ frame_needed = 0, uses_anonymous_args = 0
 353              		@ link register save eliminated.
 354              	.LBB1398:
 355              	.LBI1398:
  14:./chowdsp_wdf/wdft/wdft_base.h **** 
 356              		.loc 1 14 17 view .LVU53
  14:./chowdsp_wdf/wdft/wdft_base.h **** 
 357              		.loc 1 14 17 is_stmt 0 view .LVU54
 358              	.LBE1398:
 359              		.loc 4 234 11 view .LVU55
 360 0000 7047     		bx	lr
 361              		.cfi_endproc
 362              	.LFE3337:
 364              		.weak	_ZN7chowdsp4wdft23ResistiveCurrentSourceTIfED1Ev
 365              		.thumb_set _ZN7chowdsp4wdft23ResistiveCurrentSourceTIfED1Ev,_ZN7chowdsp4wdft23ResistiveCurrentSour
 366 0002 00BF     		.section	.text._ZN7chowdsp3wdf3WDFIfE18propagateImpedanceEv,"axG",%progbits,_ZN7chowdsp3wdf3WDFIfE
 367              		.align	1
 368              		.p2align 2,,3
 369              		.weak	_ZN7chowdsp3wdf3WDFIfE18propagateImpedanceEv
 370              		.syntax unified
 371              		.thumb
 372              		.thumb_func
 374              	_ZN7chowdsp3wdf3WDFIfE18propagateImpedanceEv:
 375              	.LVL18:
 376              	.LFB3464:
  27:./chowdsp_wdf/wdf/wdf_base.h ****         {
 377              		.loc 5 27 29 is_stmt 1 view -0
 378              		.cfi_startproc
 379              		@ args = 0, pretend = 0, frame = 0
 380              		@ frame_needed = 0, uses_anonymous_args = 0
  29:./chowdsp_wdf/wdf/wdf_base.h **** 
 381              		.loc 5 29 26 is_stmt 0 view .LVU57
 382 0000 0368     		ldr	r3, [r0]
  27:./chowdsp_wdf/wdf/wdf_base.h ****         {
 383              		.loc 5 27 29 view .LVU58
 384 0002 10B5     		push	{r4, lr}
 385              		.cfi_def_cfa_offset 8
 386              		.cfi_offset 4, -8
ARM GAS  /var/folders/yd/h_51qzcj4039f6rvxdz3lvym0000gn/T//cca9f80X.s 			page 18


 387              		.cfi_offset 14, -4
  27:./chowdsp_wdf/wdf/wdf_base.h ****         {
 388              		.loc 5 27 29 view .LVU59
 389 0004 0446     		mov	r4, r0
  29:./chowdsp_wdf/wdf/wdf_base.h **** 
 390              		.loc 5 29 26 view .LVU60
 391 0006 9B68     		ldr	r3, [r3, #8]
 392 0008 9847     		blx	r3
 393              	.LVL19:
  31:./chowdsp_wdf/wdf/wdf_base.h ****                 wdfParent->propagateImpedance();
 394              		.loc 5 31 17 view .LVU61
 395 000a 606B     		ldr	r0, [r4, #52]
  31:./chowdsp_wdf/wdf/wdf_base.h ****                 wdfParent->propagateImpedance();
 396              		.loc 5 31 13 view .LVU62
 397 000c 20B1     		cbz	r0, .L13
  32:./chowdsp_wdf/wdf/wdf_base.h ****         }
 398              		.loc 5 32 46 view .LVU63
 399 000e 0368     		ldr	r3, [r0]
  33:./chowdsp_wdf/wdf/wdf_base.h **** 
 400              		.loc 5 33 9 view .LVU64
 401 0010 BDE81040 		pop	{r4, lr}
 402              		.cfi_remember_state
 403              		.cfi_restore 14
 404              		.cfi_restore 4
 405              		.cfi_def_cfa_offset 0
 406              	.LVL20:
  32:./chowdsp_wdf/wdf/wdf_base.h ****         }
 407              		.loc 5 32 46 view .LVU65
 408 0014 1B69     		ldr	r3, [r3, #16]
 409 0016 1847     		bx	r3	@ indirect register sibling call
 410              	.LVL21:
 411              	.L13:
 412              		.cfi_restore_state
  33:./chowdsp_wdf/wdf/wdf_base.h **** 
 413              		.loc 5 33 9 view .LVU66
 414 0018 10BD     		pop	{r4, pc}
  33:./chowdsp_wdf/wdf/wdf_base.h **** 
 415              		.loc 5 33 9 view .LVU67
 416              		.cfi_endproc
 417              	.LFE3464:
 419 001a 00BF     		.section	.text._ZN7chowdsp3wdf10WDFWrapperIfNS_4wdft9ResistorTIfEEE13calcImpedanceEv,"axG",%progbi
 420              		.align	1
 421              		.p2align 2,,3
 422              		.weak	_ZN7chowdsp3wdf10WDFWrapperIfNS_4wdft9ResistorTIfEEE13calcImpedanceEv
 423              		.syntax unified
 424              		.thumb
 425              		.thumb_func
 427              	_ZN7chowdsp3wdf10WDFWrapperIfNS_4wdft9ResistorTIfEEE13calcImpedanceEv:
 428              	.LVL22:
 429              	.LFB3534:
  83:./chowdsp_wdf/wdf/wdf_base.h ****         {
 430              		.loc 5 83 21 is_stmt 1 view -0
 431              		.cfi_startproc
 432              		@ args = 0, pretend = 0, frame = 0
 433              		@ frame_needed = 0, uses_anonymous_args = 0
 434              		@ link register save eliminated.
 435              	.LBB1399:
ARM GAS  /var/folders/yd/h_51qzcj4039f6rvxdz3lvym0000gn/T//cca9f80X.s 			page 19


 436              	.LBB1400:
  37:./chowdsp_wdf/wdft/wdft_one_ports.h ****         }
 437              		.loc 2 37 29 is_stmt 0 view .LVU69
 438 0000 F7EE006A 		vmov.f32	s13, #1.0e+0
 439              	.LVL23:
  37:./chowdsp_wdf/wdft/wdft_one_ports.h ****         }
 440              		.loc 2 37 29 view .LVU70
 441              	.LBE1400:
 442              	.LBI1399:
  34:./chowdsp_wdf/wdft/wdft_one_ports.h ****         {
 443              		.loc 2 34 21 is_stmt 1 view .LVU71
 444              	.LBB1401:
  36:./chowdsp_wdf/wdft/wdft_one_ports.h ****             wdf.G = (T) 1.0 / wdf.R;
 445              		.loc 2 36 21 is_stmt 0 view .LVU72
 446 0004 D0ED157A 		vldr.32	s15, [r0, #84]
  36:./chowdsp_wdf/wdft/wdft_one_ports.h ****             wdf.G = (T) 1.0 / wdf.R;
 447              		.loc 2 36 19 view .LVU73
 448 0008 C0ED117A 		vstr.32	s15, [r0, #68]
  37:./chowdsp_wdf/wdft/wdft_one_ports.h ****         }
 449              		.loc 2 37 29 view .LVU74
 450 000c 86EEA77A 		vdiv.f32	s14, s13, s15
 451              	.LBE1401:
 452              	.LBE1399:
  86:./chowdsp_wdf/wdf/wdf_base.h ****             this->wdf.G = internalWDF.wdf.G;
 453              		.loc 5 86 25 view .LVU75
 454 0010 C0ED037A 		vstr.32	s15, [r0, #12]
 455              	.LBB1403:
 456              	.LBB1402:
  37:./chowdsp_wdf/wdft/wdft_one_ports.h ****         }
 457              		.loc 2 37 19 view .LVU76
 458 0014 80ED127A 		vstr.32	s14, [r0, #72]
 459              	.LVL24:
  37:./chowdsp_wdf/wdft/wdft_one_ports.h ****         }
 460              		.loc 2 37 19 view .LVU77
 461              	.LBE1402:
 462              	.LBE1403:
  87:./chowdsp_wdf/wdf/wdf_base.h ****         }
 463              		.loc 5 87 25 view .LVU78
 464 0018 80ED047A 		vstr.32	s14, [r0, #16]
  88:./chowdsp_wdf/wdf/wdf_base.h **** 
 465              		.loc 5 88 9 view .LVU79
 466 001c 7047     		bx	lr
 467              		.cfi_endproc
 468              	.LFE3534:
 470 001e 00BF     		.section	.text._ZN7chowdsp3wdf10WDFWrapperIfNS_4wdft10CapacitorTIfEEE13calcImpedanceEv,"axG",%prog
 471              		.align	1
 472              		.p2align 2,,3
 473              		.weak	_ZN7chowdsp3wdf10WDFWrapperIfNS_4wdft10CapacitorTIfEEE13calcImpedanceEv
 474              		.syntax unified
 475              		.thumb
 476              		.thumb_func
 478              	_ZN7chowdsp3wdf10WDFWrapperIfNS_4wdft10CapacitorTIfEEE13calcImpedanceEv:
 479              	.LVL25:
 480              	.LFB3538:
  83:./chowdsp_wdf/wdf/wdf_base.h ****         {
 481              		.loc 5 83 21 is_stmt 1 view -0
 482              		.cfi_startproc
ARM GAS  /var/folders/yd/h_51qzcj4039f6rvxdz3lvym0000gn/T//cca9f80X.s 			page 20


 483              		@ args = 0, pretend = 0, frame = 0
 484              		@ frame_needed = 0, uses_anonymous_args = 0
 485              		@ link register save eliminated.
 486              	.LBB1406:
 487              	.LBB1407:
  62:./chowdsp_wdf/wdft/wdft_one_ports.h ****     {
  63:./chowdsp_wdf/wdft/wdft_one_ports.h ****     public:
  64:./chowdsp_wdf/wdft/wdft_one_ports.h ****         /** Creates a new WDF Capacitor.
  65:./chowdsp_wdf/wdft/wdft_one_ports.h ****          * @param value: Capacitance value in Farads
  66:./chowdsp_wdf/wdft/wdft_one_ports.h ****          * @param _fs: WDF sample rate
  67:./chowdsp_wdf/wdft/wdft_one_ports.h ****          */
  68:./chowdsp_wdf/wdft/wdft_one_ports.h ****         explicit CapacitorT (T value, T _fs = (T) 48000.0) : C_value (value),
  69:./chowdsp_wdf/wdft/wdft_one_ports.h ****                                                              fs (_fs)
  70:./chowdsp_wdf/wdft/wdft_one_ports.h ****         {
  71:./chowdsp_wdf/wdft/wdft_one_ports.h ****             calcImpedance();
  72:./chowdsp_wdf/wdft/wdft_one_ports.h ****         }
  73:./chowdsp_wdf/wdft/wdft_one_ports.h **** 
  74:./chowdsp_wdf/wdft/wdft_one_ports.h ****         /** Prepares the capacitor to operate at a new sample rate */
  75:./chowdsp_wdf/wdft/wdft_one_ports.h ****         void prepare (T sampleRate)
  76:./chowdsp_wdf/wdft/wdft_one_ports.h ****         {
  77:./chowdsp_wdf/wdft/wdft_one_ports.h ****             fs = sampleRate;
  78:./chowdsp_wdf/wdft/wdft_one_ports.h ****             propagateImpedanceChange();
  79:./chowdsp_wdf/wdft/wdft_one_ports.h **** 
  80:./chowdsp_wdf/wdft/wdft_one_ports.h ****             reset();
  81:./chowdsp_wdf/wdft/wdft_one_ports.h ****         }
  82:./chowdsp_wdf/wdft/wdft_one_ports.h **** 
  83:./chowdsp_wdf/wdft/wdft_one_ports.h ****         /** Resets the capacitor state */
  84:./chowdsp_wdf/wdft/wdft_one_ports.h ****         void reset()
  85:./chowdsp_wdf/wdft/wdft_one_ports.h ****         {
  86:./chowdsp_wdf/wdft/wdft_one_ports.h ****             z = (T) 0.0;
  87:./chowdsp_wdf/wdft/wdft_one_ports.h ****         }
  88:./chowdsp_wdf/wdft/wdft_one_ports.h **** 
  89:./chowdsp_wdf/wdft/wdft_one_ports.h ****         /** Sets the capacitance value of the WDF capacitor, in Farads. */
  90:./chowdsp_wdf/wdft/wdft_one_ports.h ****         void setCapacitanceValue (T newC)
  91:./chowdsp_wdf/wdft/wdft_one_ports.h ****         {
  92:./chowdsp_wdf/wdft/wdft_one_ports.h ****             if (all (newC == C_value))
  93:./chowdsp_wdf/wdft/wdft_one_ports.h ****                 return;
  94:./chowdsp_wdf/wdft/wdft_one_ports.h **** 
  95:./chowdsp_wdf/wdft/wdft_one_ports.h ****             C_value = newC;
  96:./chowdsp_wdf/wdft/wdft_one_ports.h ****             propagateImpedanceChange();
  97:./chowdsp_wdf/wdft/wdft_one_ports.h ****         }
  98:./chowdsp_wdf/wdft/wdft_one_ports.h **** 
  99:./chowdsp_wdf/wdft/wdft_one_ports.h ****         /** Computes the impedance of the WDF capacitor,
 100:./chowdsp_wdf/wdft/wdft_one_ports.h ****          *             1
 101:./chowdsp_wdf/wdft/wdft_one_ports.h ****          * Z_C = --------------
 102:./chowdsp_wdf/wdft/wdft_one_ports.h ****          *        2 * f_s * C
 103:./chowdsp_wdf/wdft/wdft_one_ports.h ****          */
 104:./chowdsp_wdf/wdft/wdft_one_ports.h ****         inline void calcImpedance() override
 105:./chowdsp_wdf/wdft/wdft_one_ports.h ****         {
 106:./chowdsp_wdf/wdft/wdft_one_ports.h ****             wdf.R = (T) 1.0 / ((T) 2.0 * C_value * fs);
 488              		.loc 2 106 40 is_stmt 0 view .LVU81
 489 0000 D0ED157A 		vldr.32	s15, [r0, #84]
 490              		.loc 2 106 29 view .LVU82
 491 0004 F7EE006A 		vmov.f32	s13, #1.0e+0
 492              	.LVL26:
 493              		.loc 2 106 29 view .LVU83
 494              	.LBE1407:
ARM GAS  /var/folders/yd/h_51qzcj4039f6rvxdz3lvym0000gn/T//cca9f80X.s 			page 21


 495              	.LBI1406:
 104:./chowdsp_wdf/wdft/wdft_one_ports.h ****         {
 496              		.loc 2 104 21 is_stmt 1 view .LVU84
 497              	.LBB1408:
 498              		.loc 2 106 50 is_stmt 0 view .LVU85
 499 0008 90ED177A 		vldr.32	s14, [r0, #92]
 500              		.loc 2 106 40 view .LVU86
 501 000c 77EEA77A 		vadd.f32	s15, s15, s15
 502              		.loc 2 106 50 view .LVU87
 503 0010 67EE877A 		vmul.f32	s15, s15, s14
 504              		.loc 2 106 29 view .LVU88
 505 0014 86EEA77A 		vdiv.f32	s14, s13, s15
 107:./chowdsp_wdf/wdft/wdft_one_ports.h ****             wdf.G = (T) 1.0 / wdf.R;
 506              		.loc 2 107 29 view .LVU89
 507 0018 C6EE877A 		vdiv.f32	s15, s13, s14
 106:./chowdsp_wdf/wdft/wdft_one_ports.h ****             wdf.G = (T) 1.0 / wdf.R;
 508              		.loc 2 106 19 view .LVU90
 509 001c 80ED117A 		vstr.32	s14, [r0, #68]
 510              	.LBE1408:
 511              	.LBE1406:
  86:./chowdsp_wdf/wdf/wdf_base.h ****             this->wdf.G = internalWDF.wdf.G;
 512              		.loc 5 86 25 view .LVU91
 513 0020 80ED037A 		vstr.32	s14, [r0, #12]
 514              	.LBB1410:
 515              	.LBB1409:
 516              		.loc 2 107 19 view .LVU92
 517 0024 C0ED127A 		vstr.32	s15, [r0, #72]
 518              	.LVL27:
 519              		.loc 2 107 19 view .LVU93
 520              	.LBE1409:
 521              	.LBE1410:
  87:./chowdsp_wdf/wdf/wdf_base.h ****         }
 522              		.loc 5 87 25 view .LVU94
 523 0028 C0ED047A 		vstr.32	s15, [r0, #16]
  88:./chowdsp_wdf/wdf/wdf_base.h **** 
 524              		.loc 5 88 9 view .LVU95
 525 002c 7047     		bx	lr
 526              		.cfi_endproc
 527              	.LFE3538:
 529 002e 00BF     		.section	.text._ZN7chowdsp3wdf10WDFWrapperIfNS_4wdft10WDFSeriesTIfNS0_3WDFIfEES5_EEE13calcImpedanc
 530              		.align	1
 531              		.p2align 2,,3
 532              		.weak	_ZN7chowdsp3wdf10WDFWrapperIfNS_4wdft10WDFSeriesTIfNS0_3WDFIfEES5_EEE13calcImpedanceEv
 533              		.syntax unified
 534              		.thumb
 535              		.thumb_func
 537              	_ZN7chowdsp3wdf10WDFWrapperIfNS_4wdft10WDFSeriesTIfNS0_3WDFIfEES5_EEE13calcImpedanceEv:
 538              	.LVL28:
 539              	.LFB3542:
  83:./chowdsp_wdf/wdf/wdf_base.h ****         {
 540              		.loc 5 83 21 is_stmt 1 view -0
 541              		.cfi_startproc
 542              		@ args = 0, pretend = 0, frame = 0
 543              		@ frame_needed = 0, uses_anonymous_args = 0
 544              		@ link register save eliminated.
 545              	.LBB1413:
 546              	.LBB1414:
ARM GAS  /var/folders/yd/h_51qzcj4039f6rvxdz3lvym0000gn/T//cca9f80X.s 			page 22


  71:./chowdsp_wdf/wdft/wdft_adaptors.h ****     {
  72:./chowdsp_wdf/wdft/wdft_adaptors.h ****     public:
  73:./chowdsp_wdf/wdft/wdft_adaptors.h ****         /** Creates a new WDF series adaptor from two connected ports. */
  74:./chowdsp_wdf/wdft/wdft_adaptors.h ****         WDFSeriesT (Port1Type& p1, Port2Type& p2) : port1 (p1),
  75:./chowdsp_wdf/wdft/wdft_adaptors.h ****                                                     port2 (p2)
  76:./chowdsp_wdf/wdft/wdft_adaptors.h ****         {
  77:./chowdsp_wdf/wdft/wdft_adaptors.h ****             port1.connectToParent (this);
  78:./chowdsp_wdf/wdft/wdft_adaptors.h ****             port2.connectToParent (this);
  79:./chowdsp_wdf/wdft/wdft_adaptors.h ****             calcImpedance();
  80:./chowdsp_wdf/wdft/wdft_adaptors.h ****         }
  81:./chowdsp_wdf/wdft/wdft_adaptors.h **** 
  82:./chowdsp_wdf/wdft/wdft_adaptors.h ****         /** Computes the impedance for a WDF parallel adaptor.
  83:./chowdsp_wdf/wdft/wdft_adaptors.h ****          * Z_s = Z_1 + Z_2
  84:./chowdsp_wdf/wdft/wdft_adaptors.h ****          */
  85:./chowdsp_wdf/wdft/wdft_adaptors.h ****         inline void calcImpedance() override
  86:./chowdsp_wdf/wdft/wdft_adaptors.h ****         {
  87:./chowdsp_wdf/wdft/wdft_adaptors.h ****             wdf.R = port1.wdf.R + port2.wdf.R;
 547              		.loc 3 87 45 is_stmt 0 view .LVU97
 548 0000 D0E91123 		ldrd	r2, r3, [r0, #68]
  88:./chowdsp_wdf/wdft/wdft_adaptors.h ****             wdf.G = (T) 1.0 / wdf.R;
 549              		.loc 3 88 29 view .LVU98
 550 0004 B7EE006A 		vmov.f32	s12, #1.0e+0
 551              	.LVL29:
 552              		.loc 3 88 29 view .LVU99
 553              	.LBE1414:
 554              	.LBI1413:
  85:./chowdsp_wdf/wdft/wdft_adaptors.h ****         {
 555              		.loc 3 85 21 is_stmt 1 view .LVU100
 556              	.LBB1415:
  87:./chowdsp_wdf/wdft/wdft_adaptors.h ****             wdf.G = (T) 1.0 / wdf.R;
 557              		.loc 3 87 31 is_stmt 0 view .LVU101
 558 0008 D2ED036A 		vldr.32	s13, [r2, #12]
  87:./chowdsp_wdf/wdft/wdft_adaptors.h ****             wdf.G = (T) 1.0 / wdf.R;
 559              		.loc 3 87 33 view .LVU102
 560 000c D3ED037A 		vldr.32	s15, [r3, #12]
 561 0010 76EEA77A 		vadd.f32	s15, s13, s15
 562              		.loc 3 88 29 view .LVU103
 563 0014 86EE277A 		vdiv.f32	s14, s12, s15
  87:./chowdsp_wdf/wdft/wdft_adaptors.h ****             wdf.G = (T) 1.0 / wdf.R;
 564              		.loc 3 87 19 view .LVU104
 565 0018 C0ED137A 		vstr.32	s15, [r0, #76]
 566              	.LBE1415:
 567              	.LBE1413:
  86:./chowdsp_wdf/wdf/wdf_base.h ****             this->wdf.G = internalWDF.wdf.G;
 568              		.loc 5 86 25 view .LVU105
 569 001c C0ED037A 		vstr.32	s15, [r0, #12]
 570              	.LBB1418:
 571              	.LBB1416:
  89:./chowdsp_wdf/wdft/wdft_adaptors.h ****             port1Reflect = port1.wdf.R / wdf.R;
 572              		.loc 3 89 40 view .LVU106
 573 0020 86EEA76A 		vdiv.f32	s12, s13, s15
  88:./chowdsp_wdf/wdft/wdft_adaptors.h ****             port1Reflect = port1.wdf.R / wdf.R;
 574              		.loc 3 88 19 view .LVU107
 575 0024 80ED147A 		vstr.32	s14, [r0, #80]
 576              	.LBE1416:
 577              	.LBE1418:
  87:./chowdsp_wdf/wdf/wdf_base.h ****         }
ARM GAS  /var/folders/yd/h_51qzcj4039f6rvxdz3lvym0000gn/T//cca9f80X.s 			page 23


 578              		.loc 5 87 25 view .LVU108
 579 0028 80ED047A 		vstr.32	s14, [r0, #16]
 580              	.LBB1419:
 581              	.LBB1417:
 582              		.loc 3 89 26 view .LVU109
 583 002c 80ED176A 		vstr.32	s12, [r0, #92]
 584              	.LVL30:
 585              		.loc 3 89 26 view .LVU110
 586              	.LBE1417:
 587              	.LBE1419:
  88:./chowdsp_wdf/wdf/wdf_base.h **** 
 588              		.loc 5 88 9 view .LVU111
 589 0030 7047     		bx	lr
 590              		.cfi_endproc
 591              	.LFE3542:
 593 0032 00BF     		.section	.text._ZN7chowdsp3wdf10WDFWrapperIfNS_4wdft19IdealVoltageSourceTIfNS0_3WDFIfEEEEE13calcIm
 594              		.align	1
 595              		.p2align 2,,3
 596              		.weak	_ZN7chowdsp3wdf10WDFWrapperIfNS_4wdft19IdealVoltageSourceTIfNS0_3WDFIfEEEEE13calcImpedanceEv
 597              		.syntax unified
 598              		.thumb
 599              		.thumb_func
 601              	_ZN7chowdsp3wdf10WDFWrapperIfNS_4wdft19IdealVoltageSourceTIfNS0_3WDFIfEEEEE13calcImpedanceEv:
 602              	.LVL31:
 603              	.LFB3549:
  83:./chowdsp_wdf/wdf/wdf_base.h ****         {
 604              		.loc 5 83 21 is_stmt 1 view -0
 605              		.cfi_startproc
 606              		@ args = 0, pretend = 0, frame = 0
 607              		@ frame_needed = 0, uses_anonymous_args = 0
 608              		@ link register save eliminated.
  86:./chowdsp_wdf/wdf/wdf_base.h ****             this->wdf.G = internalWDF.wdf.G;
 609              		.loc 5 86 25 is_stmt 0 view .LVU113
 610 0000 426C     		ldr	r2, [r0, #68]	@ float
  87:./chowdsp_wdf/wdf/wdf_base.h ****         }
 611              		.loc 5 87 25 view .LVU114
 612 0002 836C     		ldr	r3, [r0, #72]	@ float
  86:./chowdsp_wdf/wdf/wdf_base.h ****             this->wdf.G = internalWDF.wdf.G;
 613              		.loc 5 86 25 view .LVU115
 614 0004 C260     		str	r2, [r0, #12]	@ float
  87:./chowdsp_wdf/wdf/wdf_base.h ****         }
 615              		.loc 5 87 25 view .LVU116
 616 0006 0361     		str	r3, [r0, #16]	@ float
  88:./chowdsp_wdf/wdf/wdf_base.h **** 
 617              		.loc 5 88 9 view .LVU117
 618 0008 7047     		bx	lr
 619              		.cfi_endproc
 620              	.LFE3549:
 622 000a 00BF     		.section	.text._ZN7chowdsp3wdf10WDFWrapperIfNS_4wdft12WDFParallelTIfNS0_3WDFIfEES5_EEE13calcImpeda
 623              		.align	1
 624              		.p2align 2,,3
 625              		.weak	_ZN7chowdsp3wdf10WDFWrapperIfNS_4wdft12WDFParallelTIfNS0_3WDFIfEES5_EEE13calcImpedanceEv
 626              		.syntax unified
 627              		.thumb
 628              		.thumb_func
 630              	_ZN7chowdsp3wdf10WDFWrapperIfNS_4wdft12WDFParallelTIfNS0_3WDFIfEES5_EEE13calcImpedanceEv:
 631              	.LVL32:
ARM GAS  /var/folders/yd/h_51qzcj4039f6rvxdz3lvym0000gn/T//cca9f80X.s 			page 24


 632              	.LFB3553:
  83:./chowdsp_wdf/wdf/wdf_base.h ****         {
 633              		.loc 5 83 21 is_stmt 1 view -0
 634              		.cfi_startproc
 635              		@ args = 0, pretend = 0, frame = 0
 636              		@ frame_needed = 0, uses_anonymous_args = 0
 637              		@ link register save eliminated.
 638              	.LBB1422:
 639              	.LBB1423:
  31:./chowdsp_wdf/wdft/wdft_adaptors.h ****             wdf.R = (T) 1.0 / wdf.G;
 640              		.loc 3 31 45 is_stmt 0 view .LVU119
 641 0000 D0E91123 		ldrd	r2, r3, [r0, #68]
  32:./chowdsp_wdf/wdft/wdft_adaptors.h ****             port1Reflect = port1.wdf.G / wdf.G;
 642              		.loc 3 32 29 view .LVU120
 643 0004 B7EE006A 		vmov.f32	s12, #1.0e+0
 644              	.LVL33:
  32:./chowdsp_wdf/wdft/wdft_adaptors.h ****             port1Reflect = port1.wdf.G / wdf.G;
 645              		.loc 3 32 29 view .LVU121
 646              	.LBE1423:
 647              	.LBI1422:
  29:./chowdsp_wdf/wdft/wdft_adaptors.h ****         {
 648              		.loc 3 29 21 is_stmt 1 view .LVU122
 649              	.LBB1424:
  31:./chowdsp_wdf/wdft/wdft_adaptors.h ****             wdf.R = (T) 1.0 / wdf.G;
 650              		.loc 3 31 31 is_stmt 0 view .LVU123
 651 0008 D2ED046A 		vldr.32	s13, [r2, #16]
  31:./chowdsp_wdf/wdft/wdft_adaptors.h ****             wdf.R = (T) 1.0 / wdf.G;
 652              		.loc 3 31 33 view .LVU124
 653 000c D3ED047A 		vldr.32	s15, [r3, #16]
 654 0010 76EEA77A 		vadd.f32	s15, s13, s15
  32:./chowdsp_wdf/wdft/wdft_adaptors.h ****             port1Reflect = port1.wdf.G / wdf.G;
 655              		.loc 3 32 29 view .LVU125
 656 0014 86EE277A 		vdiv.f32	s14, s12, s15
  31:./chowdsp_wdf/wdft/wdft_adaptors.h ****             wdf.R = (T) 1.0 / wdf.G;
 657              		.loc 3 31 19 view .LVU126
 658 0018 C0ED147A 		vstr.32	s15, [r0, #80]
 659              	.LBE1424:
 660              	.LBE1422:
  87:./chowdsp_wdf/wdf/wdf_base.h ****         }
 661              		.loc 5 87 25 view .LVU127
 662 001c C0ED047A 		vstr.32	s15, [r0, #16]
 663              	.LBB1427:
 664              	.LBB1425:
  33:./chowdsp_wdf/wdft/wdft_adaptors.h ****         }
 665              		.loc 3 33 40 view .LVU128
 666 0020 86EEA76A 		vdiv.f32	s12, s13, s15
  32:./chowdsp_wdf/wdft/wdft_adaptors.h ****             port1Reflect = port1.wdf.G / wdf.G;
 667              		.loc 3 32 19 view .LVU129
 668 0024 80ED137A 		vstr.32	s14, [r0, #76]
 669              	.LBE1425:
 670              	.LBE1427:
  86:./chowdsp_wdf/wdf/wdf_base.h ****             this->wdf.G = internalWDF.wdf.G;
 671              		.loc 5 86 25 view .LVU130
 672 0028 80ED037A 		vstr.32	s14, [r0, #12]
 673              	.LBB1428:
 674              	.LBB1426:
  33:./chowdsp_wdf/wdft/wdft_adaptors.h ****         }
ARM GAS  /var/folders/yd/h_51qzcj4039f6rvxdz3lvym0000gn/T//cca9f80X.s 			page 25


 675              		.loc 3 33 26 view .LVU131
 676 002c 80ED176A 		vstr.32	s12, [r0, #92]
 677              	.LVL34:
  33:./chowdsp_wdf/wdft/wdft_adaptors.h ****         }
 678              		.loc 3 33 26 view .LVU132
 679              	.LBE1426:
 680              	.LBE1428:
  88:./chowdsp_wdf/wdf/wdf_base.h **** 
 681              		.loc 5 88 9 view .LVU133
 682 0030 7047     		bx	lr
 683              		.cfi_endproc
 684              	.LFE3553:
 686 0032 00BF     		.section	.text._ZN7chowdsp3wdf10WDFWrapperIfNS_4wdft23ResistiveCurrentSourceTIfEEE13calcImpedanceE
 687              		.align	1
 688              		.p2align 2,,3
 689              		.weak	_ZN7chowdsp3wdf10WDFWrapperIfNS_4wdft23ResistiveCurrentSourceTIfEEE13calcImpedanceEv
 690              		.syntax unified
 691              		.thumb
 692              		.thumb_func
 694              	_ZN7chowdsp3wdf10WDFWrapperIfNS_4wdft23ResistiveCurrentSourceTIfEEE13calcImpedanceEv:
 695              	.LVL35:
 696              	.LFB3563:
  83:./chowdsp_wdf/wdf/wdf_base.h ****         {
 697              		.loc 5 83 21 is_stmt 1 view -0
 698              		.cfi_startproc
 699              		@ args = 0, pretend = 0, frame = 0
 700              		@ frame_needed = 0, uses_anonymous_args = 0
 701              		@ link register save eliminated.
 702              	.LBB1431:
 703              	.LBB1432:
 235:./chowdsp_wdf/wdft/wdft_sources.h ****     {
 236:./chowdsp_wdf/wdft/wdft_sources.h ****     public:
 237:./chowdsp_wdf/wdft/wdft_sources.h ****         /** Creates a new resistive current source.
 238:./chowdsp_wdf/wdft/wdft_sources.h ****          * @param value: initial resistance value, in Ohms
 239:./chowdsp_wdf/wdft/wdft_sources.h ****          */
 240:./chowdsp_wdf/wdft/wdft_sources.h ****         explicit ResistiveCurrentSourceT (T value = NumericType<T> (1.0e9)) : R_value (value)
 241:./chowdsp_wdf/wdft/wdft_sources.h ****         {
 242:./chowdsp_wdf/wdft/wdft_sources.h ****             calcImpedance();
 243:./chowdsp_wdf/wdft/wdft_sources.h ****         }
 244:./chowdsp_wdf/wdft/wdft_sources.h **** 
 245:./chowdsp_wdf/wdft/wdft_sources.h ****         /** Sets the resistance value of the parallel resistor, in Ohms. */
 246:./chowdsp_wdf/wdft/wdft_sources.h ****         void setResistanceValue (T newR)
 247:./chowdsp_wdf/wdft/wdft_sources.h ****         {
 248:./chowdsp_wdf/wdft/wdft_sources.h ****             if (all (newR == R_value))
 249:./chowdsp_wdf/wdft/wdft_sources.h ****                 return;
 250:./chowdsp_wdf/wdft/wdft_sources.h **** 
 251:./chowdsp_wdf/wdft/wdft_sources.h ****             R_value = newR;
 252:./chowdsp_wdf/wdft/wdft_sources.h ****             propagateImpedanceChange();
 253:./chowdsp_wdf/wdft/wdft_sources.h ****         }
 254:./chowdsp_wdf/wdft/wdft_sources.h **** 
 255:./chowdsp_wdf/wdft/wdft_sources.h ****         /** Computes the impedance for a WDF resistive current souce
 256:./chowdsp_wdf/wdft/wdft_sources.h ****          * Z_Ir = Z_R
 257:./chowdsp_wdf/wdft/wdft_sources.h ****          */
 258:./chowdsp_wdf/wdft/wdft_sources.h ****         inline void calcImpedance() override
 259:./chowdsp_wdf/wdft/wdft_sources.h ****         {
 260:./chowdsp_wdf/wdft/wdft_sources.h ****             wdf.R = R_value;
 261:./chowdsp_wdf/wdft/wdft_sources.h ****             wdf.G = (T) 1.0 / wdf.R;
ARM GAS  /var/folders/yd/h_51qzcj4039f6rvxdz3lvym0000gn/T//cca9f80X.s 			page 26


 704              		.loc 4 261 29 is_stmt 0 view .LVU135
 705 0000 F7EE006A 		vmov.f32	s13, #1.0e+0
 706              	.LVL36:
 707              		.loc 4 261 29 view .LVU136
 708              	.LBE1432:
 709              	.LBI1431:
 258:./chowdsp_wdf/wdft/wdft_sources.h ****         {
 710              		.loc 4 258 21 is_stmt 1 view .LVU137
 711              	.LBB1433:
 260:./chowdsp_wdf/wdft/wdft_sources.h ****             wdf.G = (T) 1.0 / wdf.R;
 712              		.loc 4 260 21 is_stmt 0 view .LVU138
 713 0004 D0ED167A 		vldr.32	s15, [r0, #88]
 260:./chowdsp_wdf/wdft/wdft_sources.h ****             wdf.G = (T) 1.0 / wdf.R;
 714              		.loc 4 260 19 view .LVU139
 715 0008 C0ED117A 		vstr.32	s15, [r0, #68]
 716              		.loc 4 261 29 view .LVU140
 717 000c 86EEA77A 		vdiv.f32	s14, s13, s15
 718              	.LBE1433:
 719              	.LBE1431:
  86:./chowdsp_wdf/wdf/wdf_base.h ****             this->wdf.G = internalWDF.wdf.G;
 720              		.loc 5 86 25 view .LVU141
 721 0010 C0ED037A 		vstr.32	s15, [r0, #12]
 722              	.LBB1435:
 723              	.LBB1434:
 724              		.loc 4 261 19 view .LVU142
 725 0014 80ED127A 		vstr.32	s14, [r0, #72]
 726              	.LVL37:
 727              		.loc 4 261 19 view .LVU143
 728              	.LBE1434:
 729              	.LBE1435:
  87:./chowdsp_wdf/wdf/wdf_base.h ****         }
 730              		.loc 5 87 25 view .LVU144
 731 0018 80ED047A 		vstr.32	s14, [r0, #16]
  88:./chowdsp_wdf/wdf/wdf_base.h **** 
 732              		.loc 5 88 9 view .LVU145
 733 001c 7047     		bx	lr
 734              		.cfi_endproc
 735              	.LFE3563:
 737 001e 00BF     		.section	.text._ZN7chowdsp4wdft9ResistorTIfE13calcImpedanceEv,"axG",%progbits,_ZN7chowdsp4wdft9Res
 738              		.align	1
 739              		.p2align 2,,3
 740              		.weak	_ZN7chowdsp4wdft9ResistorTIfE13calcImpedanceEv
 741              		.syntax unified
 742              		.thumb
 743              		.thumb_func
 745              	_ZN7chowdsp4wdft9ResistorTIfE13calcImpedanceEv:
 746              	.LVL38:
 747              	.LFB3604:
  34:./chowdsp_wdf/wdft/wdft_one_ports.h ****         {
 748              		.loc 2 34 21 is_stmt 1 view -0
 749              		.cfi_startproc
 750              		@ args = 0, pretend = 0, frame = 0
 751              		@ frame_needed = 0, uses_anonymous_args = 0
 752              		@ link register save eliminated.
  37:./chowdsp_wdf/wdft/wdft_one_ports.h ****         }
 753              		.loc 2 37 29 is_stmt 0 view .LVU147
 754 0000 F7EE006A 		vmov.f32	s13, #1.0e+0
ARM GAS  /var/folders/yd/h_51qzcj4039f6rvxdz3lvym0000gn/T//cca9f80X.s 			page 27


  36:./chowdsp_wdf/wdft/wdft_one_ports.h ****             wdf.G = (T) 1.0 / wdf.R;
 755              		.loc 2 36 21 view .LVU148
 756 0004 D0ED077A 		vldr.32	s15, [r0, #28]
  36:./chowdsp_wdf/wdft/wdft_one_ports.h ****             wdf.G = (T) 1.0 / wdf.R;
 757              		.loc 2 36 19 view .LVU149
 758 0008 C0ED037A 		vstr.32	s15, [r0, #12]
  37:./chowdsp_wdf/wdft/wdft_one_ports.h ****         }
 759              		.loc 2 37 29 view .LVU150
 760 000c 86EEA77A 		vdiv.f32	s14, s13, s15
  37:./chowdsp_wdf/wdft/wdft_one_ports.h ****         }
 761              		.loc 2 37 19 view .LVU151
 762 0010 80ED047A 		vstr.32	s14, [r0, #16]
  38:./chowdsp_wdf/wdft/wdft_one_ports.h **** 
 763              		.loc 2 38 9 view .LVU152
 764 0014 7047     		bx	lr
 765              		.cfi_endproc
 766              	.LFE3604:
 768 0016 00BF     		.section	.text._ZN7chowdsp4wdft10CapacitorTIfE13calcImpedanceEv,"axG",%progbits,_ZN7chowdsp4wdft10
 769              		.align	1
 770              		.p2align 2,,3
 771              		.weak	_ZN7chowdsp4wdft10CapacitorTIfE13calcImpedanceEv
 772              		.syntax unified
 773              		.thumb
 774              		.thumb_func
 776              	_ZN7chowdsp4wdft10CapacitorTIfE13calcImpedanceEv:
 777              	.LVL39:
 778              	.LFB3605:
 104:./chowdsp_wdf/wdft/wdft_one_ports.h ****         {
 779              		.loc 2 104 21 is_stmt 1 view -0
 780              		.cfi_startproc
 781              		@ args = 0, pretend = 0, frame = 0
 782              		@ frame_needed = 0, uses_anonymous_args = 0
 783              		@ link register save eliminated.
 106:./chowdsp_wdf/wdft/wdft_one_ports.h ****             wdf.G = (T) 1.0 / wdf.R;
 784              		.loc 2 106 40 is_stmt 0 view .LVU154
 785 0000 D0ED077A 		vldr.32	s15, [r0, #28]
 106:./chowdsp_wdf/wdft/wdft_one_ports.h ****             wdf.G = (T) 1.0 / wdf.R;
 786              		.loc 2 106 29 view .LVU155
 787 0004 F7EE006A 		vmov.f32	s13, #1.0e+0
 106:./chowdsp_wdf/wdft/wdft_one_ports.h ****             wdf.G = (T) 1.0 / wdf.R;
 788              		.loc 2 106 50 view .LVU156
 789 0008 90ED097A 		vldr.32	s14, [r0, #36]
 106:./chowdsp_wdf/wdft/wdft_one_ports.h ****             wdf.G = (T) 1.0 / wdf.R;
 790              		.loc 2 106 40 view .LVU157
 791 000c 77EEA77A 		vadd.f32	s15, s15, s15
 106:./chowdsp_wdf/wdft/wdft_one_ports.h ****             wdf.G = (T) 1.0 / wdf.R;
 792              		.loc 2 106 50 view .LVU158
 793 0010 67EE877A 		vmul.f32	s15, s15, s14
 106:./chowdsp_wdf/wdft/wdft_one_ports.h ****             wdf.G = (T) 1.0 / wdf.R;
 794              		.loc 2 106 29 view .LVU159
 795 0014 86EEA77A 		vdiv.f32	s14, s13, s15
 796              		.loc 2 107 29 view .LVU160
 797 0018 C6EE877A 		vdiv.f32	s15, s13, s14
 106:./chowdsp_wdf/wdft/wdft_one_ports.h ****             wdf.G = (T) 1.0 / wdf.R;
 798              		.loc 2 106 19 view .LVU161
 799 001c 80ED037A 		vstr.32	s14, [r0, #12]
 800              		.loc 2 107 19 view .LVU162
ARM GAS  /var/folders/yd/h_51qzcj4039f6rvxdz3lvym0000gn/T//cca9f80X.s 			page 28


 801 0020 C0ED047A 		vstr.32	s15, [r0, #16]
 108:./chowdsp_wdf/wdft/wdft_one_ports.h ****         }
 802              		.loc 2 108 9 view .LVU163
 803 0024 7047     		bx	lr
 804              		.cfi_endproc
 805              	.LFE3605:
 807 0026 00BF     		.section	.text._ZN7chowdsp4wdft10WDFSeriesTIfNS_3wdf3WDFIfEES4_E13calcImpedanceEv,"axG",%progbits,
 808              		.align	1
 809              		.p2align 2,,3
 810              		.weak	_ZN7chowdsp4wdft10WDFSeriesTIfNS_3wdf3WDFIfEES4_E13calcImpedanceEv
 811              		.syntax unified
 812              		.thumb
 813              		.thumb_func
 815              	_ZN7chowdsp4wdft10WDFSeriesTIfNS_3wdf3WDFIfEES4_E13calcImpedanceEv:
 816              	.LVL40:
 817              	.LFB3606:
  85:./chowdsp_wdf/wdft/wdft_adaptors.h ****         {
 818              		.loc 3 85 21 is_stmt 1 view -0
 819              		.cfi_startproc
 820              		@ args = 0, pretend = 0, frame = 0
 821              		@ frame_needed = 0, uses_anonymous_args = 0
 822              		@ link register save eliminated.
  87:./chowdsp_wdf/wdft/wdft_adaptors.h ****             wdf.G = (T) 1.0 / wdf.R;
 823              		.loc 3 87 45 is_stmt 0 view .LVU165
 824 0000 D0E90323 		ldrd	r2, r3, [r0, #12]
  88:./chowdsp_wdf/wdft/wdft_adaptors.h ****             port1Reflect = port1.wdf.R / wdf.R;
 825              		.loc 3 88 29 view .LVU166
 826 0004 F7EE006A 		vmov.f32	s13, #1.0e+0
  87:./chowdsp_wdf/wdft/wdft_adaptors.h ****             wdf.G = (T) 1.0 / wdf.R;
 827              		.loc 3 87 31 view .LVU167
 828 0008 92ED037A 		vldr.32	s14, [r2, #12]
  87:./chowdsp_wdf/wdft/wdft_adaptors.h ****             wdf.G = (T) 1.0 / wdf.R;
 829              		.loc 3 87 33 view .LVU168
 830 000c D3ED037A 		vldr.32	s15, [r3, #12]
 831 0010 77EE277A 		vadd.f32	s15, s14, s15
  88:./chowdsp_wdf/wdft/wdft_adaptors.h ****             port1Reflect = port1.wdf.R / wdf.R;
 832              		.loc 3 88 29 view .LVU169
 833 0014 86EEA76A 		vdiv.f32	s12, s13, s15
  87:./chowdsp_wdf/wdft/wdft_adaptors.h ****             wdf.G = (T) 1.0 / wdf.R;
 834              		.loc 3 87 19 view .LVU170
 835 0018 C0ED057A 		vstr.32	s15, [r0, #20]
 836              		.loc 3 89 40 view .LVU171
 837 001c C7EE276A 		vdiv.f32	s13, s14, s15
  88:./chowdsp_wdf/wdft/wdft_adaptors.h ****             port1Reflect = port1.wdf.R / wdf.R;
 838              		.loc 3 88 19 view .LVU172
 839 0020 80ED066A 		vstr.32	s12, [r0, #24]
 840              		.loc 3 89 26 view .LVU173
 841 0024 C0ED096A 		vstr.32	s13, [r0, #36]
  90:./chowdsp_wdf/wdft/wdft_adaptors.h ****         }
 842              		.loc 3 90 9 view .LVU174
 843 0028 7047     		bx	lr
 844              		.cfi_endproc
 845              	.LFE3606:
 847 002a 00BF     		.section	.text._ZN7chowdsp4wdft19IdealVoltageSourceTIfNS_3wdf3WDFIfEEE13calcImpedanceEv,"axG",%pro
 848              		.align	1
 849              		.p2align 2,,3
 850              		.weak	_ZN7chowdsp4wdft19IdealVoltageSourceTIfNS_3wdf3WDFIfEEE13calcImpedanceEv
ARM GAS  /var/folders/yd/h_51qzcj4039f6rvxdz3lvym0000gn/T//cca9f80X.s 			page 29


 851              		.syntax unified
 852              		.thumb
 853              		.thumb_func
 855              	_ZN7chowdsp4wdft19IdealVoltageSourceTIfNS_3wdf3WDFIfEEE13calcImpedanceEv:
 856              	.LVL41:
 857              	.LFB3607:
  21:./chowdsp_wdf/wdft/wdft_sources.h **** 
 858              		.loc 4 21 14 is_stmt 1 view -0
 859              		.cfi_startproc
 860              		@ args = 0, pretend = 0, frame = 0
 861              		@ frame_needed = 0, uses_anonymous_args = 0
 862              		@ link register save eliminated.
  21:./chowdsp_wdf/wdft/wdft_sources.h **** 
 863              		.loc 4 21 40 is_stmt 0 view .LVU176
 864 0000 7047     		bx	lr
 865              		.cfi_endproc
 866              	.LFE3607:
 868 0002 00BF     		.section	.text._ZN7chowdsp4wdft12WDFParallelTIfNS_3wdf3WDFIfEES4_E13calcImpedanceEv,"axG",%progbit
 869              		.align	1
 870              		.p2align 2,,3
 871              		.weak	_ZN7chowdsp4wdft12WDFParallelTIfNS_3wdf3WDFIfEES4_E13calcImpedanceEv
 872              		.syntax unified
 873              		.thumb
 874              		.thumb_func
 876              	_ZN7chowdsp4wdft12WDFParallelTIfNS_3wdf3WDFIfEES4_E13calcImpedanceEv:
 877              	.LVL42:
 878              	.LFB3608:
  29:./chowdsp_wdf/wdft/wdft_adaptors.h ****         {
 879              		.loc 3 29 21 is_stmt 1 view -0
 880              		.cfi_startproc
 881              		@ args = 0, pretend = 0, frame = 0
 882              		@ frame_needed = 0, uses_anonymous_args = 0
 883              		@ link register save eliminated.
  31:./chowdsp_wdf/wdft/wdft_adaptors.h ****             wdf.R = (T) 1.0 / wdf.G;
 884              		.loc 3 31 45 is_stmt 0 view .LVU178
 885 0000 D0E90323 		ldrd	r2, r3, [r0, #12]
  32:./chowdsp_wdf/wdft/wdft_adaptors.h ****             port1Reflect = port1.wdf.G / wdf.G;
 886              		.loc 3 32 29 view .LVU179
 887 0004 F7EE006A 		vmov.f32	s13, #1.0e+0
  31:./chowdsp_wdf/wdft/wdft_adaptors.h ****             wdf.R = (T) 1.0 / wdf.G;
 888              		.loc 3 31 31 view .LVU180
 889 0008 92ED047A 		vldr.32	s14, [r2, #16]
  31:./chowdsp_wdf/wdft/wdft_adaptors.h ****             wdf.R = (T) 1.0 / wdf.G;
 890              		.loc 3 31 33 view .LVU181
 891 000c D3ED047A 		vldr.32	s15, [r3, #16]
 892 0010 77EE277A 		vadd.f32	s15, s14, s15
  32:./chowdsp_wdf/wdft/wdft_adaptors.h ****             port1Reflect = port1.wdf.G / wdf.G;
 893              		.loc 3 32 29 view .LVU182
 894 0014 86EEA76A 		vdiv.f32	s12, s13, s15
  31:./chowdsp_wdf/wdft/wdft_adaptors.h ****             wdf.R = (T) 1.0 / wdf.G;
 895              		.loc 3 31 19 view .LVU183
 896 0018 C0ED067A 		vstr.32	s15, [r0, #24]
  33:./chowdsp_wdf/wdft/wdft_adaptors.h ****         }
 897              		.loc 3 33 40 view .LVU184
 898 001c C7EE276A 		vdiv.f32	s13, s14, s15
  32:./chowdsp_wdf/wdft/wdft_adaptors.h ****             port1Reflect = port1.wdf.G / wdf.G;
 899              		.loc 3 32 19 view .LVU185
ARM GAS  /var/folders/yd/h_51qzcj4039f6rvxdz3lvym0000gn/T//cca9f80X.s 			page 30


 900 0020 80ED056A 		vstr.32	s12, [r0, #20]
  33:./chowdsp_wdf/wdft/wdft_adaptors.h ****         }
 901              		.loc 3 33 26 view .LVU186
 902 0024 C0ED096A 		vstr.32	s13, [r0, #36]
  34:./chowdsp_wdf/wdft/wdft_adaptors.h **** 
 903              		.loc 3 34 9 view .LVU187
 904 0028 7047     		bx	lr
 905              		.cfi_endproc
 906              	.LFE3608:
 908 002a 00BF     		.section	.text._ZN7chowdsp4wdft23ResistiveCurrentSourceTIfE13calcImpedanceEv,"axG",%progbits,_ZN7c
 909              		.align	1
 910              		.p2align 2,,3
 911              		.weak	_ZN7chowdsp4wdft23ResistiveCurrentSourceTIfE13calcImpedanceEv
 912              		.syntax unified
 913              		.thumb
 914              		.thumb_func
 916              	_ZN7chowdsp4wdft23ResistiveCurrentSourceTIfE13calcImpedanceEv:
 917              	.LVL43:
 918              	.LFB3616:
 258:./chowdsp_wdf/wdft/wdft_sources.h ****         {
 919              		.loc 4 258 21 is_stmt 1 view -0
 920              		.cfi_startproc
 921              		@ args = 0, pretend = 0, frame = 0
 922              		@ frame_needed = 0, uses_anonymous_args = 0
 923              		@ link register save eliminated.
 924              		.loc 4 261 29 is_stmt 0 view .LVU189
 925 0000 F7EE006A 		vmov.f32	s13, #1.0e+0
 260:./chowdsp_wdf/wdft/wdft_sources.h ****             wdf.G = (T) 1.0 / wdf.R;
 926              		.loc 4 260 21 view .LVU190
 927 0004 D0ED087A 		vldr.32	s15, [r0, #32]
 260:./chowdsp_wdf/wdft/wdft_sources.h ****             wdf.G = (T) 1.0 / wdf.R;
 928              		.loc 4 260 19 view .LVU191
 929 0008 C0ED037A 		vstr.32	s15, [r0, #12]
 930              		.loc 4 261 29 view .LVU192
 931 000c 86EEA77A 		vdiv.f32	s14, s13, s15
 932              		.loc 4 261 19 view .LVU193
 933 0010 80ED047A 		vstr.32	s14, [r0, #16]
 262:./chowdsp_wdf/wdft/wdft_sources.h ****         }
 934              		.loc 4 262 9 view .LVU194
 935 0014 7047     		bx	lr
 936              		.cfi_endproc
 937              	.LFE3616:
 939 0016 00BF     		.section	.text._ZN7chowdsp3wdf10WDFWrapperIfNS_4wdft23ResistiveCurrentSourceTIfEEE8incidentEf,"axG
 940              		.align	1
 941              		.p2align 2,,3
 942              		.weak	_ZN7chowdsp3wdf10WDFWrapperIfNS_4wdft23ResistiveCurrentSourceTIfEEE8incidentEf
 943              		.syntax unified
 944              		.thumb
 945              		.thumb_func
 947              	_ZN7chowdsp3wdf10WDFWrapperIfNS_4wdft23ResistiveCurrentSourceTIfEEE8incidentEf:
 948              	.LVL44:
 949              	.LFB3707:
  91:./chowdsp_wdf/wdf/wdf_base.h ****         {
 950              		.loc 5 91 21 is_stmt 1 view -0
 951              		.cfi_startproc
 952              		@ args = 0, pretend = 0, frame = 0
 953              		@ frame_needed = 0, uses_anonymous_args = 0
ARM GAS  /var/folders/yd/h_51qzcj4039f6rvxdz3lvym0000gn/T//cca9f80X.s 			page 31


 954              		@ link register save eliminated.
  93:./chowdsp_wdf/wdf/wdf_base.h ****             internalWDF.incident (x);
 955              		.loc 5 93 25 is_stmt 0 view .LVU196
 956 0000 80ED050A 		vstr.32	s0, [r0, #20]
 957              	.LVL45:
 958              	.LBB1436:
 959              	.LBI1436:
 263:./chowdsp_wdf/wdft/wdft_sources.h **** 
 264:./chowdsp_wdf/wdft/wdft_sources.h ****         /** Sets the current of the current source, in Amps */
 265:./chowdsp_wdf/wdft/wdft_sources.h ****         void setCurrent (T newI) { Is = newI; }
 266:./chowdsp_wdf/wdft/wdft_sources.h **** 
 267:./chowdsp_wdf/wdft/wdft_sources.h ****         /** Accepts an incident wave into a WDF resistive current source. */
 268:./chowdsp_wdf/wdft/wdft_sources.h ****         inline void incident (T x) noexcept
 960              		.loc 4 268 21 is_stmt 1 view .LVU197
 961              	.LBB1437:
 269:./chowdsp_wdf/wdft/wdft_sources.h ****         {
 270:./chowdsp_wdf/wdft/wdft_sources.h ****             wdf.a = x;
 962              		.loc 4 270 19 is_stmt 0 view .LVU198
 963 0004 80ED130A 		vstr.32	s0, [r0, #76]
 964              	.LVL46:
 965              		.loc 4 270 19 view .LVU199
 966              	.LBE1437:
 967              	.LBE1436:
  95:./chowdsp_wdf/wdf/wdf_base.h **** 
 968              		.loc 5 95 9 view .LVU200
 969 0008 7047     		bx	lr
 970              		.cfi_endproc
 971              	.LFE3707:
 973 000a 00BF     		.section	.text._ZN7chowdsp3wdf10WDFWrapperIfNS_4wdft23ResistiveCurrentSourceTIfEEE9reflectedEv,"ax
 974              		.align	1
 975              		.p2align 2,,3
 976              		.weak	_ZN7chowdsp3wdf10WDFWrapperIfNS_4wdft23ResistiveCurrentSourceTIfEEE9reflectedEv
 977              		.syntax unified
 978              		.thumb
 979              		.thumb_func
 981              	_ZN7chowdsp3wdf10WDFWrapperIfNS_4wdft23ResistiveCurrentSourceTIfEEE9reflectedEv:
 982              	.LVL47:
 983              	.LFB3708:
  98:./chowdsp_wdf/wdf/wdf_base.h ****         {
 984              		.loc 5 98 18 is_stmt 1 view -0
 985              		.cfi_startproc
 986              		@ args = 0, pretend = 0, frame = 0
 987              		@ frame_needed = 0, uses_anonymous_args = 0
 988              		@ link register save eliminated.
 989              	.LBB1438:
 990              	.LBI1438:
 271:./chowdsp_wdf/wdft/wdft_sources.h ****         }
 272:./chowdsp_wdf/wdft/wdft_sources.h **** 
 273:./chowdsp_wdf/wdft/wdft_sources.h ****         /** Propogates a reflected wave from a WDF resistive current source. */
 274:./chowdsp_wdf/wdft/wdft_sources.h ****         inline T reflected() noexcept
 991              		.loc 4 274 18 view .LVU202
 992              	.LBB1439:
 275:./chowdsp_wdf/wdft/wdft_sources.h ****         {
 276:./chowdsp_wdf/wdft/wdft_sources.h ****             wdf.b = wdf.R * Is;
 993              		.loc 4 276 27 is_stmt 0 view .LVU203
 994 0000 90ED110A 		vldr.32	s0, [r0, #68]
 995 0004 D0ED157A 		vldr.32	s15, [r0, #84]
ARM GAS  /var/folders/yd/h_51qzcj4039f6rvxdz3lvym0000gn/T//cca9f80X.s 			page 32


 996 0008 20EE270A 		vmul.f32	s0, s0, s15
 997              		.loc 4 276 19 view .LVU204
 998 000c 80ED140A 		vstr.32	s0, [r0, #80]
 999              	.LVL48:
 1000              		.loc 4 276 19 view .LVU205
 1001              	.LBE1439:
 1002              	.LBE1438:
 100:./chowdsp_wdf/wdf/wdf_base.h ****             return this->wdf.b;
 1003              		.loc 5 100 25 view .LVU206
 1004 0010 80ED060A 		vstr.32	s0, [r0, #24]
 1005              		.loc 5 102 9 view .LVU207
 1006 0014 7047     		bx	lr
 1007              		.cfi_endproc
 1008              	.LFE3708:
 1010 0016 00BF     		.section	.text._ZN7chowdsp3wdf10WDFWrapperIfNS_4wdft10CapacitorTIfEEE8incidentEf,"axG",%progbits,_
 1011              		.align	1
 1012              		.p2align 2,,3
 1013              		.weak	_ZN7chowdsp3wdf10WDFWrapperIfNS_4wdft10CapacitorTIfEEE8incidentEf
 1014              		.syntax unified
 1015              		.thumb
 1016              		.thumb_func
 1018              	_ZN7chowdsp3wdf10WDFWrapperIfNS_4wdft10CapacitorTIfEEE8incidentEf:
 1019              	.LVL49:
 1020              	.LFB3709:
  91:./chowdsp_wdf/wdf/wdf_base.h ****         {
 1021              		.loc 5 91 21 is_stmt 1 view -0
 1022              		.cfi_startproc
 1023              		@ args = 0, pretend = 0, frame = 0
 1024              		@ frame_needed = 0, uses_anonymous_args = 0
 1025              		@ link register save eliminated.
  93:./chowdsp_wdf/wdf/wdf_base.h ****             internalWDF.incident (x);
 1026              		.loc 5 93 25 is_stmt 0 view .LVU209
 1027 0000 80ED050A 		vstr.32	s0, [r0, #20]
 1028              	.LVL50:
 1029              	.LBB1440:
 1030              	.LBI1440:
 109:./chowdsp_wdf/wdft/wdft_one_ports.h **** 
 110:./chowdsp_wdf/wdft/wdft_one_ports.h ****         /** Accepts an incident wave into a WDF capacitor. */
 111:./chowdsp_wdf/wdft/wdft_one_ports.h ****         inline void incident (T x) noexcept
 1031              		.loc 2 111 21 is_stmt 1 view .LVU210
 1032              	.LBB1441:
 112:./chowdsp_wdf/wdft/wdft_one_ports.h ****         {
 113:./chowdsp_wdf/wdft/wdft_one_ports.h ****             wdf.a = x;
 1033              		.loc 2 113 19 is_stmt 0 view .LVU211
 1034 0004 80ED130A 		vstr.32	s0, [r0, #76]
 114:./chowdsp_wdf/wdft/wdft_one_ports.h ****             z = wdf.a;
 1035              		.loc 2 114 15 view .LVU212
 1036 0008 80ED160A 		vstr.32	s0, [r0, #88]
 1037              	.LVL51:
 1038              		.loc 2 114 15 view .LVU213
 1039              	.LBE1441:
 1040              	.LBE1440:
  95:./chowdsp_wdf/wdf/wdf_base.h **** 
 1041              		.loc 5 95 9 view .LVU214
 1042 000c 7047     		bx	lr
 1043              		.cfi_endproc
 1044              	.LFE3709:
ARM GAS  /var/folders/yd/h_51qzcj4039f6rvxdz3lvym0000gn/T//cca9f80X.s 			page 33


 1046 000e 00BF     		.section	.text._ZN7chowdsp3wdf10WDFWrapperIfNS_4wdft10CapacitorTIfEEE9reflectedEv,"axG",%progbits,
 1047              		.align	1
 1048              		.p2align 2,,3
 1049              		.weak	_ZN7chowdsp3wdf10WDFWrapperIfNS_4wdft10CapacitorTIfEEE9reflectedEv
 1050              		.syntax unified
 1051              		.thumb
 1052              		.thumb_func
 1054              	_ZN7chowdsp3wdf10WDFWrapperIfNS_4wdft10CapacitorTIfEEE9reflectedEv:
 1055              	.LVL52:
 1056              	.LFB3710:
  98:./chowdsp_wdf/wdf/wdf_base.h ****         {
 1057              		.loc 5 98 18 is_stmt 1 view -0
 1058              		.cfi_startproc
 1059              		@ args = 0, pretend = 0, frame = 0
 1060              		@ frame_needed = 0, uses_anonymous_args = 0
 1061              		@ link register save eliminated.
 1062              	.LBB1442:
 1063              	.LBI1442:
 115:./chowdsp_wdf/wdft/wdft_one_ports.h ****         }
 116:./chowdsp_wdf/wdft/wdft_one_ports.h **** 
 117:./chowdsp_wdf/wdft/wdft_one_ports.h ****         /** Propogates a reflected wave from a WDF capacitor. */
 118:./chowdsp_wdf/wdft/wdft_one_ports.h ****         inline T reflected() noexcept
 1064              		.loc 2 118 18 view .LVU216
 1065              	.LBB1443:
 119:./chowdsp_wdf/wdft/wdft_one_ports.h ****         {
 120:./chowdsp_wdf/wdft/wdft_one_ports.h ****             wdf.b = z;
 1066              		.loc 2 120 21 is_stmt 0 view .LVU217
 1067 0000 90ED160A 		vldr.32	s0, [r0, #88]
 1068              		.loc 2 120 19 view .LVU218
 1069 0004 80ED140A 		vstr.32	s0, [r0, #80]
 1070              	.LVL53:
 1071              		.loc 2 120 19 view .LVU219
 1072              	.LBE1443:
 1073              	.LBE1442:
 100:./chowdsp_wdf/wdf/wdf_base.h ****             return this->wdf.b;
 1074              		.loc 5 100 25 view .LVU220
 1075 0008 80ED060A 		vstr.32	s0, [r0, #24]
 1076              		.loc 5 102 9 view .LVU221
 1077 000c 7047     		bx	lr
 1078              		.cfi_endproc
 1079              	.LFE3710:
 1081 000e 00BF     		.section	.text._ZN7chowdsp3wdf10WDFWrapperIfNS_4wdft9ResistorTIfEEE8incidentEf,"axG",%progbits,_ZN
 1082              		.align	1
 1083              		.p2align 2,,3
 1084              		.weak	_ZN7chowdsp3wdf10WDFWrapperIfNS_4wdft9ResistorTIfEEE8incidentEf
 1085              		.syntax unified
 1086              		.thumb
 1087              		.thumb_func
 1089              	_ZN7chowdsp3wdf10WDFWrapperIfNS_4wdft9ResistorTIfEEE8incidentEf:
 1090              	.LVL54:
 1091              	.LFB3711:
  91:./chowdsp_wdf/wdf/wdf_base.h ****         {
 1092              		.loc 5 91 21 is_stmt 1 view -0
 1093              		.cfi_startproc
 1094              		@ args = 0, pretend = 0, frame = 0
 1095              		@ frame_needed = 0, uses_anonymous_args = 0
 1096              		@ link register save eliminated.
ARM GAS  /var/folders/yd/h_51qzcj4039f6rvxdz3lvym0000gn/T//cca9f80X.s 			page 34


  93:./chowdsp_wdf/wdf/wdf_base.h ****             internalWDF.incident (x);
 1097              		.loc 5 93 25 is_stmt 0 view .LVU223
 1098 0000 80ED050A 		vstr.32	s0, [r0, #20]
 1099              	.LVL55:
 1100              	.LBB1444:
 1101              	.LBI1444:
  41:./chowdsp_wdf/wdft/wdft_one_ports.h ****         {
 1102              		.loc 2 41 21 is_stmt 1 view .LVU224
 1103              	.LBB1445:
  43:./chowdsp_wdf/wdft/wdft_one_ports.h ****         }
 1104              		.loc 2 43 19 is_stmt 0 view .LVU225
 1105 0004 80ED130A 		vstr.32	s0, [r0, #76]
 1106              	.LVL56:
  43:./chowdsp_wdf/wdft/wdft_one_ports.h ****         }
 1107              		.loc 2 43 19 view .LVU226
 1108              	.LBE1445:
 1109              	.LBE1444:
  95:./chowdsp_wdf/wdf/wdf_base.h **** 
 1110              		.loc 5 95 9 view .LVU227
 1111 0008 7047     		bx	lr
 1112              		.cfi_endproc
 1113              	.LFE3711:
 1115 000a 00BF     		.section	.text._ZN7chowdsp3wdf10WDFWrapperIfNS_4wdft9ResistorTIfEEE9reflectedEv,"axG",%progbits,_Z
 1116              		.align	1
 1117              		.p2align 2,,3
 1118              		.weak	_ZN7chowdsp3wdf10WDFWrapperIfNS_4wdft9ResistorTIfEEE9reflectedEv
 1119              		.syntax unified
 1120              		.thumb
 1121              		.thumb_func
 1123              	_ZN7chowdsp3wdf10WDFWrapperIfNS_4wdft9ResistorTIfEEE9reflectedEv:
 1124              	.LVL57:
 1125              	.LFB3712:
  98:./chowdsp_wdf/wdf/wdf_base.h ****         {
 1126              		.loc 5 98 18 is_stmt 1 view -0
 1127              		.cfi_startproc
 1128              		@ args = 0, pretend = 0, frame = 0
 1129              		@ frame_needed = 0, uses_anonymous_args = 0
 1130              		@ link register save eliminated.
 1131              	.LBB1446:
 1132              	.LBB1447:
  49:./chowdsp_wdf/wdft/wdft_one_ports.h ****             return wdf.b;
 1133              		.loc 2 49 19 is_stmt 0 view .LVU229
 1134 0000 9FED030A 		vldr.32	s0, .L34
 1135              	.LVL58:
  49:./chowdsp_wdf/wdft/wdft_one_ports.h ****             return wdf.b;
 1136              		.loc 2 49 19 view .LVU230
 1137              	.LBE1447:
 1138              	.LBI1446:
  47:./chowdsp_wdf/wdft/wdft_one_ports.h ****         {
 1139              		.loc 2 47 18 is_stmt 1 view .LVU231
 1140              	.LBB1448:
  49:./chowdsp_wdf/wdft/wdft_one_ports.h ****             return wdf.b;
 1141              		.loc 2 49 19 is_stmt 0 view .LVU232
 1142 0004 80ED140A 		vstr.32	s0, [r0, #80]
 1143              	.LVL59:
  49:./chowdsp_wdf/wdft/wdft_one_ports.h ****             return wdf.b;
 1144              		.loc 2 49 19 view .LVU233
ARM GAS  /var/folders/yd/h_51qzcj4039f6rvxdz3lvym0000gn/T//cca9f80X.s 			page 35


 1145              	.LBE1448:
 1146              	.LBE1446:
 100:./chowdsp_wdf/wdf/wdf_base.h ****             return this->wdf.b;
 1147              		.loc 5 100 25 view .LVU234
 1148 0008 80ED060A 		vstr.32	s0, [r0, #24]
 1149              		.loc 5 102 9 view .LVU235
 1150 000c 7047     		bx	lr
 1151              	.L35:
 1152 000e 00BF     		.align	2
 1153              	.L34:
 1154 0010 00000000 		.word	0
 1155              		.cfi_endproc
 1156              	.LFE3712:
 1158              		.section	.text._ZN7chowdsp4wdft10DiodePairTIfNS_3wdf3WDFIfEELNS0_12DiodeQualityE1ENS_5Omega5OmegaE
 1159              		.align	1
 1160              		.p2align 2,,3
 1161              		.weak	_ZN7chowdsp4wdft10DiodePairTIfNS_3wdf3WDFIfEELNS0_12DiodeQualityE1ENS_5Omega5OmegaEE13calcIm
 1162              		.syntax unified
 1163              		.thumb
 1164              		.thumb_func
 1166              	_ZN7chowdsp4wdft10DiodePairTIfNS_3wdf3WDFIfEELNS0_12DiodeQualityE1ENS_5Omega5OmegaEE13calcImpedance
 1167              	.LVL60:
 1168              	.LFB3558:
  54:./chowdsp_wdf/wdft/wdft_nonlinearities.h ****         {
 1169              		.loc 6 54 21 is_stmt 1 view -0
 1170              		.cfi_startproc
 1171              		@ args = 0, pretend = 0, frame = 0
 1172              		@ frame_needed = 0, uses_anonymous_args = 0
  61:./chowdsp_wdf/wdft/wdft_nonlinearities.h ****             R_Is_overVt = R_Is * oneOverVt;
 1173              		.loc 6 61 29 is_stmt 0 view .LVU237
 1174 0000 836B     		ldr	r3, [r0, #56]
  61:./chowdsp_wdf/wdft/wdft_nonlinearities.h ****             R_Is_overVt = R_Is * oneOverVt;
 1175              		.loc 6 61 31 view .LVU238
 1176 0002 90ED077A 		vldr.32	s14, [r0, #28]
 1177 0006 D3ED037A 		vldr.32	s15, [r3, #12]
  62:./chowdsp_wdf/wdft/wdft_nonlinearities.h ****             logR_Is_overVt = log (R_Is_overVt);
 1178              		.loc 6 62 32 view .LVU239
 1179 000a 90ED0A0A 		vldr.32	s0, [r0, #40]
  61:./chowdsp_wdf/wdft/wdft_nonlinearities.h ****             R_Is_overVt = R_Is * oneOverVt;
 1180              		.loc 6 61 31 view .LVU240
 1181 000e 67EE877A 		vmul.f32	s15, s15, s14
  54:./chowdsp_wdf/wdft/wdft_nonlinearities.h ****         {
 1182              		.loc 6 54 21 view .LVU241
 1183 0012 10B5     		push	{r4, lr}
 1184              		.cfi_def_cfa_offset 8
 1185              		.cfi_offset 4, -8
 1186              		.cfi_offset 14, -4
  62:./chowdsp_wdf/wdft/wdft_nonlinearities.h ****             logR_Is_overVt = log (R_Is_overVt);
 1187              		.loc 6 62 32 view .LVU242
 1188 0014 27EE800A 		vmul.f32	s0, s15, s0
  54:./chowdsp_wdf/wdft/wdft_nonlinearities.h ****         {
 1189              		.loc 6 54 21 view .LVU243
 1190 0018 0446     		mov	r4, r0
  61:./chowdsp_wdf/wdft/wdft_nonlinearities.h ****             R_Is_overVt = R_Is * oneOverVt;
 1191              		.loc 6 61 18 view .LVU244
 1192 001a C0ED0B7A 		vstr.32	s15, [r0, #44]
  62:./chowdsp_wdf/wdft/wdft_nonlinearities.h ****             logR_Is_overVt = log (R_Is_overVt);
ARM GAS  /var/folders/yd/h_51qzcj4039f6rvxdz3lvym0000gn/T//cca9f80X.s 			page 36


 1193              		.loc 6 62 25 view .LVU245
 1194 001e 80ED0C0A 		vstr.32	s0, [r0, #48]
 1195              	.LVL61:
 1196              	.LBB1451:
 1197              	.LBI1451:
 1198              		.file 7 "/Library/DaisyToolchain/0.2.0/arm/arm-none-eabi/include/c++/10.3.1/cmath"
   1:/Library/DaisyToolchain/0.2.0/arm/arm-none-eabi/include/c++/10.3.1/cmath **** // -*- C++ -*- C forwarding header.
   2:/Library/DaisyToolchain/0.2.0/arm/arm-none-eabi/include/c++/10.3.1/cmath **** 
   3:/Library/DaisyToolchain/0.2.0/arm/arm-none-eabi/include/c++/10.3.1/cmath **** // Copyright (C) 1997-2020 Free Software Foundation, Inc.
   4:/Library/DaisyToolchain/0.2.0/arm/arm-none-eabi/include/c++/10.3.1/cmath **** //
   5:/Library/DaisyToolchain/0.2.0/arm/arm-none-eabi/include/c++/10.3.1/cmath **** // This file is part of the GNU ISO C++ Library.  This library is free
   6:/Library/DaisyToolchain/0.2.0/arm/arm-none-eabi/include/c++/10.3.1/cmath **** // software; you can redistribute it and/or modify it under the
   7:/Library/DaisyToolchain/0.2.0/arm/arm-none-eabi/include/c++/10.3.1/cmath **** // terms of the GNU General Public License as published by the
   8:/Library/DaisyToolchain/0.2.0/arm/arm-none-eabi/include/c++/10.3.1/cmath **** // Free Software Foundation; either version 3, or (at your option)
   9:/Library/DaisyToolchain/0.2.0/arm/arm-none-eabi/include/c++/10.3.1/cmath **** // any later version.
  10:/Library/DaisyToolchain/0.2.0/arm/arm-none-eabi/include/c++/10.3.1/cmath **** 
  11:/Library/DaisyToolchain/0.2.0/arm/arm-none-eabi/include/c++/10.3.1/cmath **** // This library is distributed in the hope that it will be useful,
  12:/Library/DaisyToolchain/0.2.0/arm/arm-none-eabi/include/c++/10.3.1/cmath **** // but WITHOUT ANY WARRANTY; without even the implied warranty of
  13:/Library/DaisyToolchain/0.2.0/arm/arm-none-eabi/include/c++/10.3.1/cmath **** // MERCHANTABILITY or FITNESS FOR A PARTICULAR PURPOSE.  See the
  14:/Library/DaisyToolchain/0.2.0/arm/arm-none-eabi/include/c++/10.3.1/cmath **** // GNU General Public License for more details.
  15:/Library/DaisyToolchain/0.2.0/arm/arm-none-eabi/include/c++/10.3.1/cmath **** 
  16:/Library/DaisyToolchain/0.2.0/arm/arm-none-eabi/include/c++/10.3.1/cmath **** // Under Section 7 of GPL version 3, you are granted additional
  17:/Library/DaisyToolchain/0.2.0/arm/arm-none-eabi/include/c++/10.3.1/cmath **** // permissions described in the GCC Runtime Library Exception, version
  18:/Library/DaisyToolchain/0.2.0/arm/arm-none-eabi/include/c++/10.3.1/cmath **** // 3.1, as published by the Free Software Foundation.
  19:/Library/DaisyToolchain/0.2.0/arm/arm-none-eabi/include/c++/10.3.1/cmath **** 
  20:/Library/DaisyToolchain/0.2.0/arm/arm-none-eabi/include/c++/10.3.1/cmath **** // You should have received a copy of the GNU General Public License and
  21:/Library/DaisyToolchain/0.2.0/arm/arm-none-eabi/include/c++/10.3.1/cmath **** // a copy of the GCC Runtime Library Exception along with this program;
  22:/Library/DaisyToolchain/0.2.0/arm/arm-none-eabi/include/c++/10.3.1/cmath **** // see the files COPYING3 and COPYING.RUNTIME respectively.  If not, see
  23:/Library/DaisyToolchain/0.2.0/arm/arm-none-eabi/include/c++/10.3.1/cmath **** // <http://www.gnu.org/licenses/>.
  24:/Library/DaisyToolchain/0.2.0/arm/arm-none-eabi/include/c++/10.3.1/cmath **** 
  25:/Library/DaisyToolchain/0.2.0/arm/arm-none-eabi/include/c++/10.3.1/cmath **** /** @file include/cmath
  26:/Library/DaisyToolchain/0.2.0/arm/arm-none-eabi/include/c++/10.3.1/cmath ****  *  This is a Standard C++ Library file.  You should @c \#include this file
  27:/Library/DaisyToolchain/0.2.0/arm/arm-none-eabi/include/c++/10.3.1/cmath ****  *  in your programs, rather than any of the @a *.h implementation files.
  28:/Library/DaisyToolchain/0.2.0/arm/arm-none-eabi/include/c++/10.3.1/cmath ****  *
  29:/Library/DaisyToolchain/0.2.0/arm/arm-none-eabi/include/c++/10.3.1/cmath ****  *  This is the C++ version of the Standard C Library header @c math.h,
  30:/Library/DaisyToolchain/0.2.0/arm/arm-none-eabi/include/c++/10.3.1/cmath ****  *  and its contents are (mostly) the same as that header, but are all
  31:/Library/DaisyToolchain/0.2.0/arm/arm-none-eabi/include/c++/10.3.1/cmath ****  *  contained in the namespace @c std (except for names which are defined
  32:/Library/DaisyToolchain/0.2.0/arm/arm-none-eabi/include/c++/10.3.1/cmath ****  *  as macros in C).
  33:/Library/DaisyToolchain/0.2.0/arm/arm-none-eabi/include/c++/10.3.1/cmath ****  */
  34:/Library/DaisyToolchain/0.2.0/arm/arm-none-eabi/include/c++/10.3.1/cmath **** 
  35:/Library/DaisyToolchain/0.2.0/arm/arm-none-eabi/include/c++/10.3.1/cmath **** //
  36:/Library/DaisyToolchain/0.2.0/arm/arm-none-eabi/include/c++/10.3.1/cmath **** // ISO C++ 14882: 26.5  C library
  37:/Library/DaisyToolchain/0.2.0/arm/arm-none-eabi/include/c++/10.3.1/cmath **** //
  38:/Library/DaisyToolchain/0.2.0/arm/arm-none-eabi/include/c++/10.3.1/cmath **** 
  39:/Library/DaisyToolchain/0.2.0/arm/arm-none-eabi/include/c++/10.3.1/cmath **** #pragma GCC system_header
  40:/Library/DaisyToolchain/0.2.0/arm/arm-none-eabi/include/c++/10.3.1/cmath **** 
  41:/Library/DaisyToolchain/0.2.0/arm/arm-none-eabi/include/c++/10.3.1/cmath **** #include <bits/c++config.h>
  42:/Library/DaisyToolchain/0.2.0/arm/arm-none-eabi/include/c++/10.3.1/cmath **** #include <bits/cpp_type_traits.h>
  43:/Library/DaisyToolchain/0.2.0/arm/arm-none-eabi/include/c++/10.3.1/cmath **** #include <ext/type_traits.h>
  44:/Library/DaisyToolchain/0.2.0/arm/arm-none-eabi/include/c++/10.3.1/cmath **** #define _GLIBCXX_INCLUDE_NEXT_C_HEADERS
  45:/Library/DaisyToolchain/0.2.0/arm/arm-none-eabi/include/c++/10.3.1/cmath **** #include_next <math.h>
  46:/Library/DaisyToolchain/0.2.0/arm/arm-none-eabi/include/c++/10.3.1/cmath **** #undef _GLIBCXX_INCLUDE_NEXT_C_HEADERS
  47:/Library/DaisyToolchain/0.2.0/arm/arm-none-eabi/include/c++/10.3.1/cmath **** #include <bits/std_abs.h>
  48:/Library/DaisyToolchain/0.2.0/arm/arm-none-eabi/include/c++/10.3.1/cmath **** 
  49:/Library/DaisyToolchain/0.2.0/arm/arm-none-eabi/include/c++/10.3.1/cmath **** #ifndef _GLIBCXX_CMATH
  50:/Library/DaisyToolchain/0.2.0/arm/arm-none-eabi/include/c++/10.3.1/cmath **** #define _GLIBCXX_CMATH 1
  51:/Library/DaisyToolchain/0.2.0/arm/arm-none-eabi/include/c++/10.3.1/cmath **** 
ARM GAS  /var/folders/yd/h_51qzcj4039f6rvxdz3lvym0000gn/T//cca9f80X.s 			page 37


  52:/Library/DaisyToolchain/0.2.0/arm/arm-none-eabi/include/c++/10.3.1/cmath **** // Get rid of those macros defined in <math.h> in lieu of real functions.
  53:/Library/DaisyToolchain/0.2.0/arm/arm-none-eabi/include/c++/10.3.1/cmath **** #undef div
  54:/Library/DaisyToolchain/0.2.0/arm/arm-none-eabi/include/c++/10.3.1/cmath **** #undef acos
  55:/Library/DaisyToolchain/0.2.0/arm/arm-none-eabi/include/c++/10.3.1/cmath **** #undef asin
  56:/Library/DaisyToolchain/0.2.0/arm/arm-none-eabi/include/c++/10.3.1/cmath **** #undef atan
  57:/Library/DaisyToolchain/0.2.0/arm/arm-none-eabi/include/c++/10.3.1/cmath **** #undef atan2
  58:/Library/DaisyToolchain/0.2.0/arm/arm-none-eabi/include/c++/10.3.1/cmath **** #undef ceil
  59:/Library/DaisyToolchain/0.2.0/arm/arm-none-eabi/include/c++/10.3.1/cmath **** #undef cos
  60:/Library/DaisyToolchain/0.2.0/arm/arm-none-eabi/include/c++/10.3.1/cmath **** #undef cosh
  61:/Library/DaisyToolchain/0.2.0/arm/arm-none-eabi/include/c++/10.3.1/cmath **** #undef exp
  62:/Library/DaisyToolchain/0.2.0/arm/arm-none-eabi/include/c++/10.3.1/cmath **** #undef fabs
  63:/Library/DaisyToolchain/0.2.0/arm/arm-none-eabi/include/c++/10.3.1/cmath **** #undef floor
  64:/Library/DaisyToolchain/0.2.0/arm/arm-none-eabi/include/c++/10.3.1/cmath **** #undef fmod
  65:/Library/DaisyToolchain/0.2.0/arm/arm-none-eabi/include/c++/10.3.1/cmath **** #undef frexp
  66:/Library/DaisyToolchain/0.2.0/arm/arm-none-eabi/include/c++/10.3.1/cmath **** #undef ldexp
  67:/Library/DaisyToolchain/0.2.0/arm/arm-none-eabi/include/c++/10.3.1/cmath **** #undef log
  68:/Library/DaisyToolchain/0.2.0/arm/arm-none-eabi/include/c++/10.3.1/cmath **** #undef log10
  69:/Library/DaisyToolchain/0.2.0/arm/arm-none-eabi/include/c++/10.3.1/cmath **** #undef modf
  70:/Library/DaisyToolchain/0.2.0/arm/arm-none-eabi/include/c++/10.3.1/cmath **** #undef pow
  71:/Library/DaisyToolchain/0.2.0/arm/arm-none-eabi/include/c++/10.3.1/cmath **** #undef sin
  72:/Library/DaisyToolchain/0.2.0/arm/arm-none-eabi/include/c++/10.3.1/cmath **** #undef sinh
  73:/Library/DaisyToolchain/0.2.0/arm/arm-none-eabi/include/c++/10.3.1/cmath **** #undef sqrt
  74:/Library/DaisyToolchain/0.2.0/arm/arm-none-eabi/include/c++/10.3.1/cmath **** #undef tan
  75:/Library/DaisyToolchain/0.2.0/arm/arm-none-eabi/include/c++/10.3.1/cmath **** #undef tanh
  76:/Library/DaisyToolchain/0.2.0/arm/arm-none-eabi/include/c++/10.3.1/cmath **** 
  77:/Library/DaisyToolchain/0.2.0/arm/arm-none-eabi/include/c++/10.3.1/cmath **** extern "C++"
  78:/Library/DaisyToolchain/0.2.0/arm/arm-none-eabi/include/c++/10.3.1/cmath **** {
  79:/Library/DaisyToolchain/0.2.0/arm/arm-none-eabi/include/c++/10.3.1/cmath **** namespace std _GLIBCXX_VISIBILITY(default)
  80:/Library/DaisyToolchain/0.2.0/arm/arm-none-eabi/include/c++/10.3.1/cmath **** {
  81:/Library/DaisyToolchain/0.2.0/arm/arm-none-eabi/include/c++/10.3.1/cmath **** _GLIBCXX_BEGIN_NAMESPACE_VERSION
  82:/Library/DaisyToolchain/0.2.0/arm/arm-none-eabi/include/c++/10.3.1/cmath **** 
  83:/Library/DaisyToolchain/0.2.0/arm/arm-none-eabi/include/c++/10.3.1/cmath ****   using ::acos;
  84:/Library/DaisyToolchain/0.2.0/arm/arm-none-eabi/include/c++/10.3.1/cmath **** 
  85:/Library/DaisyToolchain/0.2.0/arm/arm-none-eabi/include/c++/10.3.1/cmath **** #ifndef __CORRECT_ISO_CPP_MATH_H_PROTO
  86:/Library/DaisyToolchain/0.2.0/arm/arm-none-eabi/include/c++/10.3.1/cmath ****   inline _GLIBCXX_CONSTEXPR float
  87:/Library/DaisyToolchain/0.2.0/arm/arm-none-eabi/include/c++/10.3.1/cmath ****   acos(float __x)
  88:/Library/DaisyToolchain/0.2.0/arm/arm-none-eabi/include/c++/10.3.1/cmath ****   { return __builtin_acosf(__x); }
  89:/Library/DaisyToolchain/0.2.0/arm/arm-none-eabi/include/c++/10.3.1/cmath **** 
  90:/Library/DaisyToolchain/0.2.0/arm/arm-none-eabi/include/c++/10.3.1/cmath ****   inline _GLIBCXX_CONSTEXPR long double
  91:/Library/DaisyToolchain/0.2.0/arm/arm-none-eabi/include/c++/10.3.1/cmath ****   acos(long double __x)
  92:/Library/DaisyToolchain/0.2.0/arm/arm-none-eabi/include/c++/10.3.1/cmath ****   { return __builtin_acosl(__x); }
  93:/Library/DaisyToolchain/0.2.0/arm/arm-none-eabi/include/c++/10.3.1/cmath **** #endif
  94:/Library/DaisyToolchain/0.2.0/arm/arm-none-eabi/include/c++/10.3.1/cmath **** 
  95:/Library/DaisyToolchain/0.2.0/arm/arm-none-eabi/include/c++/10.3.1/cmath ****   template<typename _Tp>
  96:/Library/DaisyToolchain/0.2.0/arm/arm-none-eabi/include/c++/10.3.1/cmath ****     inline _GLIBCXX_CONSTEXPR
  97:/Library/DaisyToolchain/0.2.0/arm/arm-none-eabi/include/c++/10.3.1/cmath ****     typename __gnu_cxx::__enable_if<__is_integer<_Tp>::__value, 
  98:/Library/DaisyToolchain/0.2.0/arm/arm-none-eabi/include/c++/10.3.1/cmath ****                                     double>::__type
  99:/Library/DaisyToolchain/0.2.0/arm/arm-none-eabi/include/c++/10.3.1/cmath ****     acos(_Tp __x)
 100:/Library/DaisyToolchain/0.2.0/arm/arm-none-eabi/include/c++/10.3.1/cmath ****     { return __builtin_acos(__x); }
 101:/Library/DaisyToolchain/0.2.0/arm/arm-none-eabi/include/c++/10.3.1/cmath **** 
 102:/Library/DaisyToolchain/0.2.0/arm/arm-none-eabi/include/c++/10.3.1/cmath ****   using ::asin;
 103:/Library/DaisyToolchain/0.2.0/arm/arm-none-eabi/include/c++/10.3.1/cmath **** 
 104:/Library/DaisyToolchain/0.2.0/arm/arm-none-eabi/include/c++/10.3.1/cmath **** #ifndef __CORRECT_ISO_CPP_MATH_H_PROTO
 105:/Library/DaisyToolchain/0.2.0/arm/arm-none-eabi/include/c++/10.3.1/cmath ****   inline _GLIBCXX_CONSTEXPR float
 106:/Library/DaisyToolchain/0.2.0/arm/arm-none-eabi/include/c++/10.3.1/cmath ****   asin(float __x)
 107:/Library/DaisyToolchain/0.2.0/arm/arm-none-eabi/include/c++/10.3.1/cmath ****   { return __builtin_asinf(__x); }
 108:/Library/DaisyToolchain/0.2.0/arm/arm-none-eabi/include/c++/10.3.1/cmath **** 
ARM GAS  /var/folders/yd/h_51qzcj4039f6rvxdz3lvym0000gn/T//cca9f80X.s 			page 38


 109:/Library/DaisyToolchain/0.2.0/arm/arm-none-eabi/include/c++/10.3.1/cmath ****   inline _GLIBCXX_CONSTEXPR long double
 110:/Library/DaisyToolchain/0.2.0/arm/arm-none-eabi/include/c++/10.3.1/cmath ****   asin(long double __x)
 111:/Library/DaisyToolchain/0.2.0/arm/arm-none-eabi/include/c++/10.3.1/cmath ****   { return __builtin_asinl(__x); }
 112:/Library/DaisyToolchain/0.2.0/arm/arm-none-eabi/include/c++/10.3.1/cmath **** #endif
 113:/Library/DaisyToolchain/0.2.0/arm/arm-none-eabi/include/c++/10.3.1/cmath **** 
 114:/Library/DaisyToolchain/0.2.0/arm/arm-none-eabi/include/c++/10.3.1/cmath ****   template<typename _Tp>
 115:/Library/DaisyToolchain/0.2.0/arm/arm-none-eabi/include/c++/10.3.1/cmath ****     inline _GLIBCXX_CONSTEXPR
 116:/Library/DaisyToolchain/0.2.0/arm/arm-none-eabi/include/c++/10.3.1/cmath ****     typename __gnu_cxx::__enable_if<__is_integer<_Tp>::__value,
 117:/Library/DaisyToolchain/0.2.0/arm/arm-none-eabi/include/c++/10.3.1/cmath ****                                     double>::__type
 118:/Library/DaisyToolchain/0.2.0/arm/arm-none-eabi/include/c++/10.3.1/cmath ****     asin(_Tp __x)
 119:/Library/DaisyToolchain/0.2.0/arm/arm-none-eabi/include/c++/10.3.1/cmath ****     { return __builtin_asin(__x); }
 120:/Library/DaisyToolchain/0.2.0/arm/arm-none-eabi/include/c++/10.3.1/cmath **** 
 121:/Library/DaisyToolchain/0.2.0/arm/arm-none-eabi/include/c++/10.3.1/cmath ****   using ::atan;
 122:/Library/DaisyToolchain/0.2.0/arm/arm-none-eabi/include/c++/10.3.1/cmath **** 
 123:/Library/DaisyToolchain/0.2.0/arm/arm-none-eabi/include/c++/10.3.1/cmath **** #ifndef __CORRECT_ISO_CPP_MATH_H_PROTO
 124:/Library/DaisyToolchain/0.2.0/arm/arm-none-eabi/include/c++/10.3.1/cmath ****   inline _GLIBCXX_CONSTEXPR float
 125:/Library/DaisyToolchain/0.2.0/arm/arm-none-eabi/include/c++/10.3.1/cmath ****   atan(float __x)
 126:/Library/DaisyToolchain/0.2.0/arm/arm-none-eabi/include/c++/10.3.1/cmath ****   { return __builtin_atanf(__x); }
 127:/Library/DaisyToolchain/0.2.0/arm/arm-none-eabi/include/c++/10.3.1/cmath **** 
 128:/Library/DaisyToolchain/0.2.0/arm/arm-none-eabi/include/c++/10.3.1/cmath ****   inline _GLIBCXX_CONSTEXPR long double
 129:/Library/DaisyToolchain/0.2.0/arm/arm-none-eabi/include/c++/10.3.1/cmath ****   atan(long double __x)
 130:/Library/DaisyToolchain/0.2.0/arm/arm-none-eabi/include/c++/10.3.1/cmath ****   { return __builtin_atanl(__x); }
 131:/Library/DaisyToolchain/0.2.0/arm/arm-none-eabi/include/c++/10.3.1/cmath **** #endif
 132:/Library/DaisyToolchain/0.2.0/arm/arm-none-eabi/include/c++/10.3.1/cmath **** 
 133:/Library/DaisyToolchain/0.2.0/arm/arm-none-eabi/include/c++/10.3.1/cmath ****   template<typename _Tp>
 134:/Library/DaisyToolchain/0.2.0/arm/arm-none-eabi/include/c++/10.3.1/cmath ****     inline _GLIBCXX_CONSTEXPR
 135:/Library/DaisyToolchain/0.2.0/arm/arm-none-eabi/include/c++/10.3.1/cmath ****     typename __gnu_cxx::__enable_if<__is_integer<_Tp>::__value,
 136:/Library/DaisyToolchain/0.2.0/arm/arm-none-eabi/include/c++/10.3.1/cmath ****                                     double>::__type
 137:/Library/DaisyToolchain/0.2.0/arm/arm-none-eabi/include/c++/10.3.1/cmath ****     atan(_Tp __x)
 138:/Library/DaisyToolchain/0.2.0/arm/arm-none-eabi/include/c++/10.3.1/cmath ****     { return __builtin_atan(__x); }
 139:/Library/DaisyToolchain/0.2.0/arm/arm-none-eabi/include/c++/10.3.1/cmath **** 
 140:/Library/DaisyToolchain/0.2.0/arm/arm-none-eabi/include/c++/10.3.1/cmath ****   using ::atan2;
 141:/Library/DaisyToolchain/0.2.0/arm/arm-none-eabi/include/c++/10.3.1/cmath **** 
 142:/Library/DaisyToolchain/0.2.0/arm/arm-none-eabi/include/c++/10.3.1/cmath **** #ifndef __CORRECT_ISO_CPP_MATH_H_PROTO
 143:/Library/DaisyToolchain/0.2.0/arm/arm-none-eabi/include/c++/10.3.1/cmath ****   inline _GLIBCXX_CONSTEXPR float
 144:/Library/DaisyToolchain/0.2.0/arm/arm-none-eabi/include/c++/10.3.1/cmath ****   atan2(float __y, float __x)
 145:/Library/DaisyToolchain/0.2.0/arm/arm-none-eabi/include/c++/10.3.1/cmath ****   { return __builtin_atan2f(__y, __x); }
 146:/Library/DaisyToolchain/0.2.0/arm/arm-none-eabi/include/c++/10.3.1/cmath **** 
 147:/Library/DaisyToolchain/0.2.0/arm/arm-none-eabi/include/c++/10.3.1/cmath ****   inline _GLIBCXX_CONSTEXPR long double
 148:/Library/DaisyToolchain/0.2.0/arm/arm-none-eabi/include/c++/10.3.1/cmath ****   atan2(long double __y, long double __x)
 149:/Library/DaisyToolchain/0.2.0/arm/arm-none-eabi/include/c++/10.3.1/cmath ****   { return __builtin_atan2l(__y, __x); }
 150:/Library/DaisyToolchain/0.2.0/arm/arm-none-eabi/include/c++/10.3.1/cmath **** #endif
 151:/Library/DaisyToolchain/0.2.0/arm/arm-none-eabi/include/c++/10.3.1/cmath **** 
 152:/Library/DaisyToolchain/0.2.0/arm/arm-none-eabi/include/c++/10.3.1/cmath ****   template<typename _Tp, typename _Up>
 153:/Library/DaisyToolchain/0.2.0/arm/arm-none-eabi/include/c++/10.3.1/cmath ****     inline _GLIBCXX_CONSTEXPR
 154:/Library/DaisyToolchain/0.2.0/arm/arm-none-eabi/include/c++/10.3.1/cmath ****     typename __gnu_cxx::__promote_2<_Tp, _Up>::__type
 155:/Library/DaisyToolchain/0.2.0/arm/arm-none-eabi/include/c++/10.3.1/cmath ****     atan2(_Tp __y, _Up __x)
 156:/Library/DaisyToolchain/0.2.0/arm/arm-none-eabi/include/c++/10.3.1/cmath ****     {
 157:/Library/DaisyToolchain/0.2.0/arm/arm-none-eabi/include/c++/10.3.1/cmath ****       typedef typename __gnu_cxx::__promote_2<_Tp, _Up>::__type __type;
 158:/Library/DaisyToolchain/0.2.0/arm/arm-none-eabi/include/c++/10.3.1/cmath ****       return atan2(__type(__y), __type(__x));
 159:/Library/DaisyToolchain/0.2.0/arm/arm-none-eabi/include/c++/10.3.1/cmath ****     }
 160:/Library/DaisyToolchain/0.2.0/arm/arm-none-eabi/include/c++/10.3.1/cmath **** 
 161:/Library/DaisyToolchain/0.2.0/arm/arm-none-eabi/include/c++/10.3.1/cmath ****   using ::ceil;
 162:/Library/DaisyToolchain/0.2.0/arm/arm-none-eabi/include/c++/10.3.1/cmath **** 
 163:/Library/DaisyToolchain/0.2.0/arm/arm-none-eabi/include/c++/10.3.1/cmath **** #ifndef __CORRECT_ISO_CPP_MATH_H_PROTO
 164:/Library/DaisyToolchain/0.2.0/arm/arm-none-eabi/include/c++/10.3.1/cmath ****   inline _GLIBCXX_CONSTEXPR float
 165:/Library/DaisyToolchain/0.2.0/arm/arm-none-eabi/include/c++/10.3.1/cmath ****   ceil(float __x)
ARM GAS  /var/folders/yd/h_51qzcj4039f6rvxdz3lvym0000gn/T//cca9f80X.s 			page 39


 166:/Library/DaisyToolchain/0.2.0/arm/arm-none-eabi/include/c++/10.3.1/cmath ****   { return __builtin_ceilf(__x); }
 167:/Library/DaisyToolchain/0.2.0/arm/arm-none-eabi/include/c++/10.3.1/cmath **** 
 168:/Library/DaisyToolchain/0.2.0/arm/arm-none-eabi/include/c++/10.3.1/cmath ****   inline _GLIBCXX_CONSTEXPR long double
 169:/Library/DaisyToolchain/0.2.0/arm/arm-none-eabi/include/c++/10.3.1/cmath ****   ceil(long double __x)
 170:/Library/DaisyToolchain/0.2.0/arm/arm-none-eabi/include/c++/10.3.1/cmath ****   { return __builtin_ceill(__x); }
 171:/Library/DaisyToolchain/0.2.0/arm/arm-none-eabi/include/c++/10.3.1/cmath **** #endif
 172:/Library/DaisyToolchain/0.2.0/arm/arm-none-eabi/include/c++/10.3.1/cmath **** 
 173:/Library/DaisyToolchain/0.2.0/arm/arm-none-eabi/include/c++/10.3.1/cmath ****   template<typename _Tp>
 174:/Library/DaisyToolchain/0.2.0/arm/arm-none-eabi/include/c++/10.3.1/cmath ****     inline _GLIBCXX_CONSTEXPR
 175:/Library/DaisyToolchain/0.2.0/arm/arm-none-eabi/include/c++/10.3.1/cmath ****     typename __gnu_cxx::__enable_if<__is_integer<_Tp>::__value, 
 176:/Library/DaisyToolchain/0.2.0/arm/arm-none-eabi/include/c++/10.3.1/cmath ****                                     double>::__type
 177:/Library/DaisyToolchain/0.2.0/arm/arm-none-eabi/include/c++/10.3.1/cmath ****     ceil(_Tp __x)
 178:/Library/DaisyToolchain/0.2.0/arm/arm-none-eabi/include/c++/10.3.1/cmath ****     { return __builtin_ceil(__x); }
 179:/Library/DaisyToolchain/0.2.0/arm/arm-none-eabi/include/c++/10.3.1/cmath **** 
 180:/Library/DaisyToolchain/0.2.0/arm/arm-none-eabi/include/c++/10.3.1/cmath ****   using ::cos;
 181:/Library/DaisyToolchain/0.2.0/arm/arm-none-eabi/include/c++/10.3.1/cmath **** 
 182:/Library/DaisyToolchain/0.2.0/arm/arm-none-eabi/include/c++/10.3.1/cmath **** #ifndef __CORRECT_ISO_CPP_MATH_H_PROTO
 183:/Library/DaisyToolchain/0.2.0/arm/arm-none-eabi/include/c++/10.3.1/cmath ****   inline _GLIBCXX_CONSTEXPR float
 184:/Library/DaisyToolchain/0.2.0/arm/arm-none-eabi/include/c++/10.3.1/cmath ****   cos(float __x)
 185:/Library/DaisyToolchain/0.2.0/arm/arm-none-eabi/include/c++/10.3.1/cmath ****   { return __builtin_cosf(__x); }
 186:/Library/DaisyToolchain/0.2.0/arm/arm-none-eabi/include/c++/10.3.1/cmath **** 
 187:/Library/DaisyToolchain/0.2.0/arm/arm-none-eabi/include/c++/10.3.1/cmath ****   inline _GLIBCXX_CONSTEXPR long double
 188:/Library/DaisyToolchain/0.2.0/arm/arm-none-eabi/include/c++/10.3.1/cmath ****   cos(long double __x)
 189:/Library/DaisyToolchain/0.2.0/arm/arm-none-eabi/include/c++/10.3.1/cmath ****   { return __builtin_cosl(__x); }
 190:/Library/DaisyToolchain/0.2.0/arm/arm-none-eabi/include/c++/10.3.1/cmath **** #endif
 191:/Library/DaisyToolchain/0.2.0/arm/arm-none-eabi/include/c++/10.3.1/cmath **** 
 192:/Library/DaisyToolchain/0.2.0/arm/arm-none-eabi/include/c++/10.3.1/cmath ****   template<typename _Tp>
 193:/Library/DaisyToolchain/0.2.0/arm/arm-none-eabi/include/c++/10.3.1/cmath ****     inline _GLIBCXX_CONSTEXPR
 194:/Library/DaisyToolchain/0.2.0/arm/arm-none-eabi/include/c++/10.3.1/cmath ****     typename __gnu_cxx::__enable_if<__is_integer<_Tp>::__value,
 195:/Library/DaisyToolchain/0.2.0/arm/arm-none-eabi/include/c++/10.3.1/cmath ****                                     double>::__type
 196:/Library/DaisyToolchain/0.2.0/arm/arm-none-eabi/include/c++/10.3.1/cmath ****     cos(_Tp __x)
 197:/Library/DaisyToolchain/0.2.0/arm/arm-none-eabi/include/c++/10.3.1/cmath ****     { return __builtin_cos(__x); }
 198:/Library/DaisyToolchain/0.2.0/arm/arm-none-eabi/include/c++/10.3.1/cmath **** 
 199:/Library/DaisyToolchain/0.2.0/arm/arm-none-eabi/include/c++/10.3.1/cmath ****   using ::cosh;
 200:/Library/DaisyToolchain/0.2.0/arm/arm-none-eabi/include/c++/10.3.1/cmath **** 
 201:/Library/DaisyToolchain/0.2.0/arm/arm-none-eabi/include/c++/10.3.1/cmath **** #ifndef __CORRECT_ISO_CPP_MATH_H_PROTO
 202:/Library/DaisyToolchain/0.2.0/arm/arm-none-eabi/include/c++/10.3.1/cmath ****   inline _GLIBCXX_CONSTEXPR float
 203:/Library/DaisyToolchain/0.2.0/arm/arm-none-eabi/include/c++/10.3.1/cmath ****   cosh(float __x)
 204:/Library/DaisyToolchain/0.2.0/arm/arm-none-eabi/include/c++/10.3.1/cmath ****   { return __builtin_coshf(__x); }
 205:/Library/DaisyToolchain/0.2.0/arm/arm-none-eabi/include/c++/10.3.1/cmath **** 
 206:/Library/DaisyToolchain/0.2.0/arm/arm-none-eabi/include/c++/10.3.1/cmath ****   inline _GLIBCXX_CONSTEXPR long double
 207:/Library/DaisyToolchain/0.2.0/arm/arm-none-eabi/include/c++/10.3.1/cmath ****   cosh(long double __x)
 208:/Library/DaisyToolchain/0.2.0/arm/arm-none-eabi/include/c++/10.3.1/cmath ****   { return __builtin_coshl(__x); }
 209:/Library/DaisyToolchain/0.2.0/arm/arm-none-eabi/include/c++/10.3.1/cmath **** #endif
 210:/Library/DaisyToolchain/0.2.0/arm/arm-none-eabi/include/c++/10.3.1/cmath **** 
 211:/Library/DaisyToolchain/0.2.0/arm/arm-none-eabi/include/c++/10.3.1/cmath ****   template<typename _Tp>
 212:/Library/DaisyToolchain/0.2.0/arm/arm-none-eabi/include/c++/10.3.1/cmath ****     inline _GLIBCXX_CONSTEXPR
 213:/Library/DaisyToolchain/0.2.0/arm/arm-none-eabi/include/c++/10.3.1/cmath ****     typename __gnu_cxx::__enable_if<__is_integer<_Tp>::__value,
 214:/Library/DaisyToolchain/0.2.0/arm/arm-none-eabi/include/c++/10.3.1/cmath ****                                     double>::__type
 215:/Library/DaisyToolchain/0.2.0/arm/arm-none-eabi/include/c++/10.3.1/cmath ****     cosh(_Tp __x)
 216:/Library/DaisyToolchain/0.2.0/arm/arm-none-eabi/include/c++/10.3.1/cmath ****     { return __builtin_cosh(__x); }
 217:/Library/DaisyToolchain/0.2.0/arm/arm-none-eabi/include/c++/10.3.1/cmath **** 
 218:/Library/DaisyToolchain/0.2.0/arm/arm-none-eabi/include/c++/10.3.1/cmath ****   using ::exp;
 219:/Library/DaisyToolchain/0.2.0/arm/arm-none-eabi/include/c++/10.3.1/cmath **** 
 220:/Library/DaisyToolchain/0.2.0/arm/arm-none-eabi/include/c++/10.3.1/cmath **** #ifndef __CORRECT_ISO_CPP_MATH_H_PROTO
 221:/Library/DaisyToolchain/0.2.0/arm/arm-none-eabi/include/c++/10.3.1/cmath ****   inline _GLIBCXX_CONSTEXPR float
 222:/Library/DaisyToolchain/0.2.0/arm/arm-none-eabi/include/c++/10.3.1/cmath ****   exp(float __x)
ARM GAS  /var/folders/yd/h_51qzcj4039f6rvxdz3lvym0000gn/T//cca9f80X.s 			page 40


 223:/Library/DaisyToolchain/0.2.0/arm/arm-none-eabi/include/c++/10.3.1/cmath ****   { return __builtin_expf(__x); }
 224:/Library/DaisyToolchain/0.2.0/arm/arm-none-eabi/include/c++/10.3.1/cmath **** 
 225:/Library/DaisyToolchain/0.2.0/arm/arm-none-eabi/include/c++/10.3.1/cmath ****   inline _GLIBCXX_CONSTEXPR long double
 226:/Library/DaisyToolchain/0.2.0/arm/arm-none-eabi/include/c++/10.3.1/cmath ****   exp(long double __x)
 227:/Library/DaisyToolchain/0.2.0/arm/arm-none-eabi/include/c++/10.3.1/cmath ****   { return __builtin_expl(__x); }
 228:/Library/DaisyToolchain/0.2.0/arm/arm-none-eabi/include/c++/10.3.1/cmath **** #endif
 229:/Library/DaisyToolchain/0.2.0/arm/arm-none-eabi/include/c++/10.3.1/cmath **** 
 230:/Library/DaisyToolchain/0.2.0/arm/arm-none-eabi/include/c++/10.3.1/cmath ****   template<typename _Tp>
 231:/Library/DaisyToolchain/0.2.0/arm/arm-none-eabi/include/c++/10.3.1/cmath ****     inline _GLIBCXX_CONSTEXPR
 232:/Library/DaisyToolchain/0.2.0/arm/arm-none-eabi/include/c++/10.3.1/cmath ****     typename __gnu_cxx::__enable_if<__is_integer<_Tp>::__value,
 233:/Library/DaisyToolchain/0.2.0/arm/arm-none-eabi/include/c++/10.3.1/cmath ****                                     double>::__type
 234:/Library/DaisyToolchain/0.2.0/arm/arm-none-eabi/include/c++/10.3.1/cmath ****     exp(_Tp __x)
 235:/Library/DaisyToolchain/0.2.0/arm/arm-none-eabi/include/c++/10.3.1/cmath ****     { return __builtin_exp(__x); }
 236:/Library/DaisyToolchain/0.2.0/arm/arm-none-eabi/include/c++/10.3.1/cmath **** 
 237:/Library/DaisyToolchain/0.2.0/arm/arm-none-eabi/include/c++/10.3.1/cmath ****   using ::fabs;
 238:/Library/DaisyToolchain/0.2.0/arm/arm-none-eabi/include/c++/10.3.1/cmath **** 
 239:/Library/DaisyToolchain/0.2.0/arm/arm-none-eabi/include/c++/10.3.1/cmath **** #ifndef __CORRECT_ISO_CPP_MATH_H_PROTO
 240:/Library/DaisyToolchain/0.2.0/arm/arm-none-eabi/include/c++/10.3.1/cmath ****   inline _GLIBCXX_CONSTEXPR float
 241:/Library/DaisyToolchain/0.2.0/arm/arm-none-eabi/include/c++/10.3.1/cmath ****   fabs(float __x)
 242:/Library/DaisyToolchain/0.2.0/arm/arm-none-eabi/include/c++/10.3.1/cmath ****   { return __builtin_fabsf(__x); }
 243:/Library/DaisyToolchain/0.2.0/arm/arm-none-eabi/include/c++/10.3.1/cmath **** 
 244:/Library/DaisyToolchain/0.2.0/arm/arm-none-eabi/include/c++/10.3.1/cmath ****   inline _GLIBCXX_CONSTEXPR long double
 245:/Library/DaisyToolchain/0.2.0/arm/arm-none-eabi/include/c++/10.3.1/cmath ****   fabs(long double __x)
 246:/Library/DaisyToolchain/0.2.0/arm/arm-none-eabi/include/c++/10.3.1/cmath ****   { return __builtin_fabsl(__x); }
 247:/Library/DaisyToolchain/0.2.0/arm/arm-none-eabi/include/c++/10.3.1/cmath **** #endif
 248:/Library/DaisyToolchain/0.2.0/arm/arm-none-eabi/include/c++/10.3.1/cmath **** 
 249:/Library/DaisyToolchain/0.2.0/arm/arm-none-eabi/include/c++/10.3.1/cmath ****   template<typename _Tp>
 250:/Library/DaisyToolchain/0.2.0/arm/arm-none-eabi/include/c++/10.3.1/cmath ****     inline _GLIBCXX_CONSTEXPR
 251:/Library/DaisyToolchain/0.2.0/arm/arm-none-eabi/include/c++/10.3.1/cmath ****     typename __gnu_cxx::__enable_if<__is_integer<_Tp>::__value,
 252:/Library/DaisyToolchain/0.2.0/arm/arm-none-eabi/include/c++/10.3.1/cmath ****                                     double>::__type
 253:/Library/DaisyToolchain/0.2.0/arm/arm-none-eabi/include/c++/10.3.1/cmath ****     fabs(_Tp __x)
 254:/Library/DaisyToolchain/0.2.0/arm/arm-none-eabi/include/c++/10.3.1/cmath ****     { return __builtin_fabs(__x); }
 255:/Library/DaisyToolchain/0.2.0/arm/arm-none-eabi/include/c++/10.3.1/cmath **** 
 256:/Library/DaisyToolchain/0.2.0/arm/arm-none-eabi/include/c++/10.3.1/cmath ****   using ::floor;
 257:/Library/DaisyToolchain/0.2.0/arm/arm-none-eabi/include/c++/10.3.1/cmath **** 
 258:/Library/DaisyToolchain/0.2.0/arm/arm-none-eabi/include/c++/10.3.1/cmath **** #ifndef __CORRECT_ISO_CPP_MATH_H_PROTO
 259:/Library/DaisyToolchain/0.2.0/arm/arm-none-eabi/include/c++/10.3.1/cmath ****   inline _GLIBCXX_CONSTEXPR float
 260:/Library/DaisyToolchain/0.2.0/arm/arm-none-eabi/include/c++/10.3.1/cmath ****   floor(float __x)
 261:/Library/DaisyToolchain/0.2.0/arm/arm-none-eabi/include/c++/10.3.1/cmath ****   { return __builtin_floorf(__x); }
 262:/Library/DaisyToolchain/0.2.0/arm/arm-none-eabi/include/c++/10.3.1/cmath **** 
 263:/Library/DaisyToolchain/0.2.0/arm/arm-none-eabi/include/c++/10.3.1/cmath ****   inline _GLIBCXX_CONSTEXPR long double
 264:/Library/DaisyToolchain/0.2.0/arm/arm-none-eabi/include/c++/10.3.1/cmath ****   floor(long double __x)
 265:/Library/DaisyToolchain/0.2.0/arm/arm-none-eabi/include/c++/10.3.1/cmath ****   { return __builtin_floorl(__x); }
 266:/Library/DaisyToolchain/0.2.0/arm/arm-none-eabi/include/c++/10.3.1/cmath **** #endif
 267:/Library/DaisyToolchain/0.2.0/arm/arm-none-eabi/include/c++/10.3.1/cmath **** 
 268:/Library/DaisyToolchain/0.2.0/arm/arm-none-eabi/include/c++/10.3.1/cmath ****   template<typename _Tp>
 269:/Library/DaisyToolchain/0.2.0/arm/arm-none-eabi/include/c++/10.3.1/cmath ****     inline _GLIBCXX_CONSTEXPR
 270:/Library/DaisyToolchain/0.2.0/arm/arm-none-eabi/include/c++/10.3.1/cmath ****     typename __gnu_cxx::__enable_if<__is_integer<_Tp>::__value,
 271:/Library/DaisyToolchain/0.2.0/arm/arm-none-eabi/include/c++/10.3.1/cmath ****                                     double>::__type
 272:/Library/DaisyToolchain/0.2.0/arm/arm-none-eabi/include/c++/10.3.1/cmath ****     floor(_Tp __x)
 273:/Library/DaisyToolchain/0.2.0/arm/arm-none-eabi/include/c++/10.3.1/cmath ****     { return __builtin_floor(__x); }
 274:/Library/DaisyToolchain/0.2.0/arm/arm-none-eabi/include/c++/10.3.1/cmath **** 
 275:/Library/DaisyToolchain/0.2.0/arm/arm-none-eabi/include/c++/10.3.1/cmath ****   using ::fmod;
 276:/Library/DaisyToolchain/0.2.0/arm/arm-none-eabi/include/c++/10.3.1/cmath **** 
 277:/Library/DaisyToolchain/0.2.0/arm/arm-none-eabi/include/c++/10.3.1/cmath **** #ifndef __CORRECT_ISO_CPP_MATH_H_PROTO
 278:/Library/DaisyToolchain/0.2.0/arm/arm-none-eabi/include/c++/10.3.1/cmath ****   inline _GLIBCXX_CONSTEXPR float
 279:/Library/DaisyToolchain/0.2.0/arm/arm-none-eabi/include/c++/10.3.1/cmath ****   fmod(float __x, float __y)
ARM GAS  /var/folders/yd/h_51qzcj4039f6rvxdz3lvym0000gn/T//cca9f80X.s 			page 41


 280:/Library/DaisyToolchain/0.2.0/arm/arm-none-eabi/include/c++/10.3.1/cmath ****   { return __builtin_fmodf(__x, __y); }
 281:/Library/DaisyToolchain/0.2.0/arm/arm-none-eabi/include/c++/10.3.1/cmath **** 
 282:/Library/DaisyToolchain/0.2.0/arm/arm-none-eabi/include/c++/10.3.1/cmath ****   inline _GLIBCXX_CONSTEXPR long double
 283:/Library/DaisyToolchain/0.2.0/arm/arm-none-eabi/include/c++/10.3.1/cmath ****   fmod(long double __x, long double __y)
 284:/Library/DaisyToolchain/0.2.0/arm/arm-none-eabi/include/c++/10.3.1/cmath ****   { return __builtin_fmodl(__x, __y); }
 285:/Library/DaisyToolchain/0.2.0/arm/arm-none-eabi/include/c++/10.3.1/cmath **** #endif
 286:/Library/DaisyToolchain/0.2.0/arm/arm-none-eabi/include/c++/10.3.1/cmath **** 
 287:/Library/DaisyToolchain/0.2.0/arm/arm-none-eabi/include/c++/10.3.1/cmath ****   template<typename _Tp, typename _Up>
 288:/Library/DaisyToolchain/0.2.0/arm/arm-none-eabi/include/c++/10.3.1/cmath ****     inline _GLIBCXX_CONSTEXPR
 289:/Library/DaisyToolchain/0.2.0/arm/arm-none-eabi/include/c++/10.3.1/cmath ****     typename __gnu_cxx::__promote_2<_Tp, _Up>::__type
 290:/Library/DaisyToolchain/0.2.0/arm/arm-none-eabi/include/c++/10.3.1/cmath ****     fmod(_Tp __x, _Up __y)
 291:/Library/DaisyToolchain/0.2.0/arm/arm-none-eabi/include/c++/10.3.1/cmath ****     {
 292:/Library/DaisyToolchain/0.2.0/arm/arm-none-eabi/include/c++/10.3.1/cmath ****       typedef typename __gnu_cxx::__promote_2<_Tp, _Up>::__type __type;
 293:/Library/DaisyToolchain/0.2.0/arm/arm-none-eabi/include/c++/10.3.1/cmath ****       return fmod(__type(__x), __type(__y));
 294:/Library/DaisyToolchain/0.2.0/arm/arm-none-eabi/include/c++/10.3.1/cmath ****     }
 295:/Library/DaisyToolchain/0.2.0/arm/arm-none-eabi/include/c++/10.3.1/cmath **** 
 296:/Library/DaisyToolchain/0.2.0/arm/arm-none-eabi/include/c++/10.3.1/cmath ****   using ::frexp;
 297:/Library/DaisyToolchain/0.2.0/arm/arm-none-eabi/include/c++/10.3.1/cmath **** 
 298:/Library/DaisyToolchain/0.2.0/arm/arm-none-eabi/include/c++/10.3.1/cmath **** #ifndef __CORRECT_ISO_CPP_MATH_H_PROTO
 299:/Library/DaisyToolchain/0.2.0/arm/arm-none-eabi/include/c++/10.3.1/cmath ****   inline float
 300:/Library/DaisyToolchain/0.2.0/arm/arm-none-eabi/include/c++/10.3.1/cmath ****   frexp(float __x, int* __exp)
 301:/Library/DaisyToolchain/0.2.0/arm/arm-none-eabi/include/c++/10.3.1/cmath ****   { return __builtin_frexpf(__x, __exp); }
 302:/Library/DaisyToolchain/0.2.0/arm/arm-none-eabi/include/c++/10.3.1/cmath **** 
 303:/Library/DaisyToolchain/0.2.0/arm/arm-none-eabi/include/c++/10.3.1/cmath ****   inline long double
 304:/Library/DaisyToolchain/0.2.0/arm/arm-none-eabi/include/c++/10.3.1/cmath ****   frexp(long double __x, int* __exp)
 305:/Library/DaisyToolchain/0.2.0/arm/arm-none-eabi/include/c++/10.3.1/cmath ****   { return __builtin_frexpl(__x, __exp); }
 306:/Library/DaisyToolchain/0.2.0/arm/arm-none-eabi/include/c++/10.3.1/cmath **** #endif
 307:/Library/DaisyToolchain/0.2.0/arm/arm-none-eabi/include/c++/10.3.1/cmath **** 
 308:/Library/DaisyToolchain/0.2.0/arm/arm-none-eabi/include/c++/10.3.1/cmath ****   template<typename _Tp>
 309:/Library/DaisyToolchain/0.2.0/arm/arm-none-eabi/include/c++/10.3.1/cmath ****     inline _GLIBCXX_CONSTEXPR
 310:/Library/DaisyToolchain/0.2.0/arm/arm-none-eabi/include/c++/10.3.1/cmath ****     typename __gnu_cxx::__enable_if<__is_integer<_Tp>::__value, 
 311:/Library/DaisyToolchain/0.2.0/arm/arm-none-eabi/include/c++/10.3.1/cmath ****                                     double>::__type
 312:/Library/DaisyToolchain/0.2.0/arm/arm-none-eabi/include/c++/10.3.1/cmath ****     frexp(_Tp __x, int* __exp)
 313:/Library/DaisyToolchain/0.2.0/arm/arm-none-eabi/include/c++/10.3.1/cmath ****     { return __builtin_frexp(__x, __exp); }
 314:/Library/DaisyToolchain/0.2.0/arm/arm-none-eabi/include/c++/10.3.1/cmath **** 
 315:/Library/DaisyToolchain/0.2.0/arm/arm-none-eabi/include/c++/10.3.1/cmath ****   using ::ldexp;
 316:/Library/DaisyToolchain/0.2.0/arm/arm-none-eabi/include/c++/10.3.1/cmath **** 
 317:/Library/DaisyToolchain/0.2.0/arm/arm-none-eabi/include/c++/10.3.1/cmath **** #ifndef __CORRECT_ISO_CPP_MATH_H_PROTO
 318:/Library/DaisyToolchain/0.2.0/arm/arm-none-eabi/include/c++/10.3.1/cmath ****   inline _GLIBCXX_CONSTEXPR float
 319:/Library/DaisyToolchain/0.2.0/arm/arm-none-eabi/include/c++/10.3.1/cmath ****   ldexp(float __x, int __exp)
 320:/Library/DaisyToolchain/0.2.0/arm/arm-none-eabi/include/c++/10.3.1/cmath ****   { return __builtin_ldexpf(__x, __exp); }
 321:/Library/DaisyToolchain/0.2.0/arm/arm-none-eabi/include/c++/10.3.1/cmath **** 
 322:/Library/DaisyToolchain/0.2.0/arm/arm-none-eabi/include/c++/10.3.1/cmath ****   inline _GLIBCXX_CONSTEXPR long double
 323:/Library/DaisyToolchain/0.2.0/arm/arm-none-eabi/include/c++/10.3.1/cmath ****   ldexp(long double __x, int __exp)
 324:/Library/DaisyToolchain/0.2.0/arm/arm-none-eabi/include/c++/10.3.1/cmath ****   { return __builtin_ldexpl(__x, __exp); }
 325:/Library/DaisyToolchain/0.2.0/arm/arm-none-eabi/include/c++/10.3.1/cmath **** #endif
 326:/Library/DaisyToolchain/0.2.0/arm/arm-none-eabi/include/c++/10.3.1/cmath **** 
 327:/Library/DaisyToolchain/0.2.0/arm/arm-none-eabi/include/c++/10.3.1/cmath ****   template<typename _Tp>
 328:/Library/DaisyToolchain/0.2.0/arm/arm-none-eabi/include/c++/10.3.1/cmath ****     inline _GLIBCXX_CONSTEXPR
 329:/Library/DaisyToolchain/0.2.0/arm/arm-none-eabi/include/c++/10.3.1/cmath ****     typename __gnu_cxx::__enable_if<__is_integer<_Tp>::__value, 
 330:/Library/DaisyToolchain/0.2.0/arm/arm-none-eabi/include/c++/10.3.1/cmath ****                                     double>::__type
 331:/Library/DaisyToolchain/0.2.0/arm/arm-none-eabi/include/c++/10.3.1/cmath ****     ldexp(_Tp __x, int __exp)
 332:/Library/DaisyToolchain/0.2.0/arm/arm-none-eabi/include/c++/10.3.1/cmath ****     { return __builtin_ldexp(__x, __exp); }
 333:/Library/DaisyToolchain/0.2.0/arm/arm-none-eabi/include/c++/10.3.1/cmath **** 
 334:/Library/DaisyToolchain/0.2.0/arm/arm-none-eabi/include/c++/10.3.1/cmath ****   using ::log;
 335:/Library/DaisyToolchain/0.2.0/arm/arm-none-eabi/include/c++/10.3.1/cmath **** 
 336:/Library/DaisyToolchain/0.2.0/arm/arm-none-eabi/include/c++/10.3.1/cmath **** #ifndef __CORRECT_ISO_CPP_MATH_H_PROTO
ARM GAS  /var/folders/yd/h_51qzcj4039f6rvxdz3lvym0000gn/T//cca9f80X.s 			page 42


 337:/Library/DaisyToolchain/0.2.0/arm/arm-none-eabi/include/c++/10.3.1/cmath ****   inline _GLIBCXX_CONSTEXPR float
 338:/Library/DaisyToolchain/0.2.0/arm/arm-none-eabi/include/c++/10.3.1/cmath ****   log(float __x)
 1199              		.loc 7 338 3 is_stmt 1 view .LVU246
 1200              	.LBB1452:
 339:/Library/DaisyToolchain/0.2.0/arm/arm-none-eabi/include/c++/10.3.1/cmath ****   { return __builtin_logf(__x); }
 1201              		.loc 7 339 5 view .LVU247
 1202              		.loc 7 339 26 is_stmt 0 view .LVU248
 1203 0022 FFF7FEFF 		bl	logf
 1204              	.LVL62:
 1205              		.loc 7 339 26 view .LVU249
 1206              	.LBE1452:
 1207              	.LBE1451:
  63:./chowdsp_wdf/wdft/wdft_nonlinearities.h ****         }
 1208              		.loc 6 63 28 view .LVU250
 1209 0026 84ED0D0A 		vstr.32	s0, [r4, #52]
  64:./chowdsp_wdf/wdft/wdft_nonlinearities.h **** 
 1210              		.loc 6 64 9 view .LVU251
 1211 002a 10BD     		pop	{r4, pc}
  64:./chowdsp_wdf/wdft/wdft_nonlinearities.h **** 
 1212              		.loc 6 64 9 view .LVU252
 1213              		.cfi_endproc
 1214              	.LFE3558:
 1216              		.section	.text._ZN7chowdsp4wdft9ResistorTIfED0Ev,"axG",%progbits,_ZN7chowdsp4wdft9ResistorTIfED5Ev
 1217              		.align	1
 1218              		.p2align 2,,3
 1219              		.weak	_ZN7chowdsp4wdft9ResistorTIfED0Ev
 1220              		.syntax unified
 1221              		.thumb
 1222              		.thumb_func
 1224              	_ZN7chowdsp4wdft9ResistorTIfED0Ev:
 1225              	.LVL63:
 1226              	.LFB3248:
  12:./chowdsp_wdf/wdft/wdft_one_ports.h ****     {
 1227              		.loc 2 12 11 is_stmt 1 view -0
 1228              		.cfi_startproc
 1229              		@ args = 0, pretend = 0, frame = 0
 1230              		@ frame_needed = 0, uses_anonymous_args = 0
  12:./chowdsp_wdf/wdft/wdft_one_ports.h ****     {
 1231              		.loc 2 12 11 is_stmt 0 view .LVU254
 1232 0000 10B5     		push	{r4, lr}
 1233              		.cfi_def_cfa_offset 8
 1234              		.cfi_offset 4, -8
 1235              		.cfi_offset 14, -4
  12:./chowdsp_wdf/wdft/wdft_one_ports.h ****     {
 1236              		.loc 2 12 11 view .LVU255
 1237 0002 0446     		mov	r4, r0
 1238              	.LVL64:
 1239              	.LBB1453:
 1240              	.LBI1453:
  12:./chowdsp_wdf/wdft/wdft_one_ports.h ****     {
 1241              		.loc 2 12 11 is_stmt 1 view .LVU256
 1242              	.LBB1454:
 1243              	.LBI1454:
  14:./chowdsp_wdf/wdft/wdft_base.h **** 
 1244              		.loc 1 14 17 view .LVU257
  14:./chowdsp_wdf/wdft/wdft_base.h **** 
 1245              		.loc 1 14 17 is_stmt 0 view .LVU258
ARM GAS  /var/folders/yd/h_51qzcj4039f6rvxdz3lvym0000gn/T//cca9f80X.s 			page 43


 1246              	.LBE1454:
 1247              	.LBE1453:
  12:./chowdsp_wdf/wdft/wdft_one_ports.h ****     {
 1248              		.loc 2 12 11 view .LVU259
 1249 0004 2021     		movs	r1, #32
 1250 0006 FFF7FEFF 		bl	_ZdlPvj
 1251              	.LVL65:
  12:./chowdsp_wdf/wdft/wdft_one_ports.h ****     {
 1252              		.loc 2 12 11 view .LVU260
 1253 000a 2046     		mov	r0, r4
 1254 000c 10BD     		pop	{r4, pc}
  12:./chowdsp_wdf/wdft/wdft_one_ports.h ****     {
 1255              		.loc 2 12 11 view .LVU261
 1256              		.cfi_endproc
 1257              	.LFE3248:
 1259 000e 00BF     		.section	.text._ZN7chowdsp4wdft10CapacitorTIfED0Ev,"axG",%progbits,_ZN7chowdsp4wdft10CapacitorTIfE
 1260              		.align	1
 1261              		.p2align 2,,3
 1262              		.weak	_ZN7chowdsp4wdft10CapacitorTIfED0Ev
 1263              		.syntax unified
 1264              		.thumb
 1265              		.thumb_func
 1267              	_ZN7chowdsp4wdft10CapacitorTIfED0Ev:
 1268              	.LVL66:
 1269              	.LFB3259:
  61:./chowdsp_wdf/wdft/wdft_one_ports.h ****     {
 1270              		.loc 2 61 11 is_stmt 1 view -0
 1271              		.cfi_startproc
 1272              		@ args = 0, pretend = 0, frame = 0
 1273              		@ frame_needed = 0, uses_anonymous_args = 0
  61:./chowdsp_wdf/wdft/wdft_one_ports.h ****     {
 1274              		.loc 2 61 11 is_stmt 0 view .LVU263
 1275 0000 10B5     		push	{r4, lr}
 1276              		.cfi_def_cfa_offset 8
 1277              		.cfi_offset 4, -8
 1278              		.cfi_offset 14, -4
  61:./chowdsp_wdf/wdft/wdft_one_ports.h ****     {
 1279              		.loc 2 61 11 view .LVU264
 1280 0002 0446     		mov	r4, r0
 1281              	.LVL67:
 1282              	.LBB1455:
 1283              	.LBI1455:
  61:./chowdsp_wdf/wdft/wdft_one_ports.h ****     {
 1284              		.loc 2 61 11 is_stmt 1 view .LVU265
 1285              	.LBB1456:
 1286              	.LBI1456:
  14:./chowdsp_wdf/wdft/wdft_base.h **** 
 1287              		.loc 1 14 17 view .LVU266
  14:./chowdsp_wdf/wdft/wdft_base.h **** 
 1288              		.loc 1 14 17 is_stmt 0 view .LVU267
 1289              	.LBE1456:
 1290              	.LBE1455:
  61:./chowdsp_wdf/wdft/wdft_one_ports.h ****     {
 1291              		.loc 2 61 11 view .LVU268
 1292 0004 2821     		movs	r1, #40
 1293 0006 FFF7FEFF 		bl	_ZdlPvj
 1294              	.LVL68:
ARM GAS  /var/folders/yd/h_51qzcj4039f6rvxdz3lvym0000gn/T//cca9f80X.s 			page 44


  61:./chowdsp_wdf/wdft/wdft_one_ports.h ****     {
 1295              		.loc 2 61 11 view .LVU269
 1296 000a 2046     		mov	r0, r4
 1297 000c 10BD     		pop	{r4, pc}
  61:./chowdsp_wdf/wdft/wdft_one_ports.h ****     {
 1298              		.loc 2 61 11 view .LVU270
 1299              		.cfi_endproc
 1300              	.LFE3259:
 1302 000e 00BF     		.section	.text._ZN7chowdsp4wdft10WDFSeriesTIfNS_3wdf3WDFIfEES4_ED0Ev,"axG",%progbits,_ZN7chowdsp4w
 1303              		.align	1
 1304              		.p2align 2,,3
 1305              		.weak	_ZN7chowdsp4wdft10WDFSeriesTIfNS_3wdf3WDFIfEES4_ED0Ev
 1306              		.syntax unified
 1307              		.thumb
 1308              		.thumb_func
 1310              	_ZN7chowdsp4wdft10WDFSeriesTIfNS_3wdf3WDFIfEES4_ED0Ev:
 1311              	.LVL69:
 1312              	.LFB3270:
  70:./chowdsp_wdf/wdft/wdft_adaptors.h ****     {
 1313              		.loc 3 70 11 is_stmt 1 view -0
 1314              		.cfi_startproc
 1315              		@ args = 0, pretend = 0, frame = 0
 1316              		@ frame_needed = 0, uses_anonymous_args = 0
  70:./chowdsp_wdf/wdft/wdft_adaptors.h ****     {
 1317              		.loc 3 70 11 is_stmt 0 view .LVU272
 1318 0000 10B5     		push	{r4, lr}
 1319              		.cfi_def_cfa_offset 8
 1320              		.cfi_offset 4, -8
 1321              		.cfi_offset 14, -4
  70:./chowdsp_wdf/wdft/wdft_adaptors.h ****     {
 1322              		.loc 3 70 11 view .LVU273
 1323 0002 0446     		mov	r4, r0
 1324              	.LVL70:
 1325              	.LBB1457:
 1326              	.LBI1457:
  70:./chowdsp_wdf/wdft/wdft_adaptors.h ****     {
 1327              		.loc 3 70 11 is_stmt 1 view .LVU274
 1328              	.LBB1458:
 1329              	.LBI1458:
  14:./chowdsp_wdf/wdft/wdft_base.h **** 
 1330              		.loc 1 14 17 view .LVU275
  14:./chowdsp_wdf/wdft/wdft_base.h **** 
 1331              		.loc 1 14 17 is_stmt 0 view .LVU276
 1332              	.LBE1458:
 1333              	.LBE1457:
  70:./chowdsp_wdf/wdft/wdft_adaptors.h ****     {
 1334              		.loc 3 70 11 view .LVU277
 1335 0004 2821     		movs	r1, #40
 1336 0006 FFF7FEFF 		bl	_ZdlPvj
 1337              	.LVL71:
  70:./chowdsp_wdf/wdft/wdft_adaptors.h ****     {
 1338              		.loc 3 70 11 view .LVU278
 1339 000a 2046     		mov	r0, r4
 1340 000c 10BD     		pop	{r4, pc}
  70:./chowdsp_wdf/wdft/wdft_adaptors.h ****     {
 1341              		.loc 3 70 11 view .LVU279
 1342              		.cfi_endproc
ARM GAS  /var/folders/yd/h_51qzcj4039f6rvxdz3lvym0000gn/T//cca9f80X.s 			page 45


 1343              	.LFE3270:
 1345 000e 00BF     		.section	.text._ZN7chowdsp4wdft23ResistiveCurrentSourceTIfED0Ev,"axG",%progbits,_ZN7chowdsp4wdft23
 1346              		.align	1
 1347              		.p2align 2,,3
 1348              		.weak	_ZN7chowdsp4wdft23ResistiveCurrentSourceTIfED0Ev
 1349              		.syntax unified
 1350              		.thumb
 1351              		.thumb_func
 1353              	_ZN7chowdsp4wdft23ResistiveCurrentSourceTIfED0Ev:
 1354              	.LVL72:
 1355              	.LFB3339:
 234:./chowdsp_wdf/wdft/wdft_sources.h ****     {
 1356              		.loc 4 234 11 is_stmt 1 view -0
 1357              		.cfi_startproc
 1358              		@ args = 0, pretend = 0, frame = 0
 1359              		@ frame_needed = 0, uses_anonymous_args = 0
 234:./chowdsp_wdf/wdft/wdft_sources.h ****     {
 1360              		.loc 4 234 11 is_stmt 0 view .LVU281
 1361 0000 10B5     		push	{r4, lr}
 1362              		.cfi_def_cfa_offset 8
 1363              		.cfi_offset 4, -8
 1364              		.cfi_offset 14, -4
 234:./chowdsp_wdf/wdft/wdft_sources.h ****     {
 1365              		.loc 4 234 11 view .LVU282
 1366 0002 0446     		mov	r4, r0
 1367              	.LVL73:
 1368              	.LBB1459:
 1369              	.LBI1459:
 234:./chowdsp_wdf/wdft/wdft_sources.h ****     {
 1370              		.loc 4 234 11 is_stmt 1 view .LVU283
 1371              	.LBB1460:
 1372              	.LBI1460:
  14:./chowdsp_wdf/wdft/wdft_base.h **** 
 1373              		.loc 1 14 17 view .LVU284
  14:./chowdsp_wdf/wdft/wdft_base.h **** 
 1374              		.loc 1 14 17 is_stmt 0 view .LVU285
 1375              	.LBE1460:
 1376              	.LBE1459:
 234:./chowdsp_wdf/wdft/wdft_sources.h ****     {
 1377              		.loc 4 234 11 view .LVU286
 1378 0004 2421     		movs	r1, #36
 1379 0006 FFF7FEFF 		bl	_ZdlPvj
 1380              	.LVL74:
 234:./chowdsp_wdf/wdft/wdft_sources.h ****     {
 1381              		.loc 4 234 11 view .LVU287
 1382 000a 2046     		mov	r0, r4
 1383 000c 10BD     		pop	{r4, pc}
 234:./chowdsp_wdf/wdft/wdft_sources.h ****     {
 1384              		.loc 4 234 11 view .LVU288
 1385              		.cfi_endproc
 1386              	.LFE3339:
 1388 000e 00BF     		.section	.text._ZN7chowdsp4wdft12WDFParallelTIfNS_3wdf3WDFIfEES4_ED0Ev,"axG",%progbits,_ZN7chowdsp
 1389              		.align	1
 1390              		.p2align 2,,3
 1391              		.weak	_ZN7chowdsp4wdft12WDFParallelTIfNS_3wdf3WDFIfEES4_ED0Ev
 1392              		.syntax unified
 1393              		.thumb
ARM GAS  /var/folders/yd/h_51qzcj4039f6rvxdz3lvym0000gn/T//cca9f80X.s 			page 46


 1394              		.thumb_func
 1396              	_ZN7chowdsp4wdft12WDFParallelTIfNS_3wdf3WDFIfEES4_ED0Ev:
 1397              	.LVL75:
 1398              	.LFB3305:
  12:./chowdsp_wdf/wdft/wdft_adaptors.h ****     {
 1399              		.loc 3 12 11 is_stmt 1 view -0
 1400              		.cfi_startproc
 1401              		@ args = 0, pretend = 0, frame = 0
 1402              		@ frame_needed = 0, uses_anonymous_args = 0
  12:./chowdsp_wdf/wdft/wdft_adaptors.h ****     {
 1403              		.loc 3 12 11 is_stmt 0 view .LVU290
 1404 0000 10B5     		push	{r4, lr}
 1405              		.cfi_def_cfa_offset 8
 1406              		.cfi_offset 4, -8
 1407              		.cfi_offset 14, -4
  12:./chowdsp_wdf/wdft/wdft_adaptors.h ****     {
 1408              		.loc 3 12 11 view .LVU291
 1409 0002 0446     		mov	r4, r0
 1410              	.LVL76:
 1411              	.LBB1461:
 1412              	.LBI1461:
  12:./chowdsp_wdf/wdft/wdft_adaptors.h ****     {
 1413              		.loc 3 12 11 is_stmt 1 view .LVU292
 1414              	.LBB1462:
 1415              	.LBI1462:
  14:./chowdsp_wdf/wdft/wdft_base.h **** 
 1416              		.loc 1 14 17 view .LVU293
  14:./chowdsp_wdf/wdft/wdft_base.h **** 
 1417              		.loc 1 14 17 is_stmt 0 view .LVU294
 1418              	.LBE1462:
 1419              	.LBE1461:
  12:./chowdsp_wdf/wdft/wdft_adaptors.h ****     {
 1420              		.loc 3 12 11 view .LVU295
 1421 0004 2C21     		movs	r1, #44
 1422 0006 FFF7FEFF 		bl	_ZdlPvj
 1423              	.LVL77:
  12:./chowdsp_wdf/wdft/wdft_adaptors.h ****     {
 1424              		.loc 3 12 11 view .LVU296
 1425 000a 2046     		mov	r0, r4
 1426 000c 10BD     		pop	{r4, pc}
  12:./chowdsp_wdf/wdft/wdft_adaptors.h ****     {
 1427              		.loc 3 12 11 view .LVU297
 1428              		.cfi_endproc
 1429              	.LFE3305:
 1431 000e 00BF     		.section	.text._ZN7chowdsp4wdft19IdealVoltageSourceTIfNS_3wdf3WDFIfEEED0Ev,"axG",%progbits,_ZN7cho
 1432              		.align	1
 1433              		.p2align 2,,3
 1434              		.weak	_ZN7chowdsp4wdft19IdealVoltageSourceTIfNS_3wdf3WDFIfEEED0Ev
 1435              		.syntax unified
 1436              		.thumb
 1437              		.thumb_func
 1439              	_ZN7chowdsp4wdft19IdealVoltageSourceTIfNS_3wdf3WDFIfEEED0Ev:
 1440              	.LVL78:
 1441              	.LFB3285:
  12:./chowdsp_wdf/wdft/wdft_sources.h ****     {
 1442              		.loc 4 12 11 is_stmt 1 view -0
 1443              		.cfi_startproc
ARM GAS  /var/folders/yd/h_51qzcj4039f6rvxdz3lvym0000gn/T//cca9f80X.s 			page 47


 1444              		@ args = 0, pretend = 0, frame = 0
 1445              		@ frame_needed = 0, uses_anonymous_args = 0
  12:./chowdsp_wdf/wdft/wdft_sources.h ****     {
 1446              		.loc 4 12 11 is_stmt 0 view .LVU299
 1447 0000 10B5     		push	{r4, lr}
 1448              		.cfi_def_cfa_offset 8
 1449              		.cfi_offset 4, -8
 1450              		.cfi_offset 14, -4
  12:./chowdsp_wdf/wdft/wdft_sources.h ****     {
 1451              		.loc 4 12 11 view .LVU300
 1452 0002 0446     		mov	r4, r0
 1453              	.LVL79:
 1454              	.LBB1463:
 1455              	.LBI1463:
  12:./chowdsp_wdf/wdft/wdft_sources.h ****     {
 1456              		.loc 4 12 11 is_stmt 1 view .LVU301
 1457              	.LBB1464:
 1458              	.LBI1464:
  42:./chowdsp_wdf/wdft/wdft_base.h ****     {
 1459              		.loc 1 42 11 view .LVU302
 1460              	.LBB1465:
 1461              	.LBI1465:
  14:./chowdsp_wdf/wdft/wdft_base.h **** 
 1462              		.loc 1 14 17 view .LVU303
  14:./chowdsp_wdf/wdft/wdft_base.h **** 
 1463              		.loc 1 14 17 is_stmt 0 view .LVU304
 1464              	.LBE1465:
 1465              	.LBE1464:
 1466              	.LBE1463:
  12:./chowdsp_wdf/wdft/wdft_sources.h ****     {
 1467              		.loc 4 12 11 view .LVU305
 1468 0004 2021     		movs	r1, #32
 1469 0006 FFF7FEFF 		bl	_ZdlPvj
 1470              	.LVL80:
  12:./chowdsp_wdf/wdft/wdft_sources.h ****     {
 1471              		.loc 4 12 11 view .LVU306
 1472 000a 2046     		mov	r0, r4
 1473 000c 10BD     		pop	{r4, pc}
  12:./chowdsp_wdf/wdft/wdft_sources.h ****     {
 1474              		.loc 4 12 11 view .LVU307
 1475              		.cfi_endproc
 1476              	.LFE3285:
 1478 000e 00BF     		.section	.text._ZN7chowdsp4wdft10DiodePairTIfNS_3wdf3WDFIfEELNS0_12DiodeQualityE1ENS_5Omega5OmegaE
 1479              		.align	1
 1480              		.p2align 2,,3
 1481              		.weak	_ZN7chowdsp4wdft10DiodePairTIfNS_3wdf3WDFIfEELNS0_12DiodeQualityE1ENS_5Omega5OmegaEED0Ev
 1482              		.syntax unified
 1483              		.thumb
 1484              		.thumb_func
 1486              	_ZN7chowdsp4wdft10DiodePairTIfNS_3wdf3WDFIfEELNS0_12DiodeQualityE1ENS_5Omega5OmegaEED0Ev:
 1487              	.LVL81:
 1488              	.LFB3317:
  28:./chowdsp_wdf/wdft/wdft_nonlinearities.h ****     {
 1489              		.loc 6 28 11 is_stmt 1 view -0
 1490              		.cfi_startproc
 1491              		@ args = 0, pretend = 0, frame = 0
 1492              		@ frame_needed = 0, uses_anonymous_args = 0
ARM GAS  /var/folders/yd/h_51qzcj4039f6rvxdz3lvym0000gn/T//cca9f80X.s 			page 48


  28:./chowdsp_wdf/wdft/wdft_nonlinearities.h ****     {
 1493              		.loc 6 28 11 is_stmt 0 view .LVU309
 1494 0000 10B5     		push	{r4, lr}
 1495              		.cfi_def_cfa_offset 8
 1496              		.cfi_offset 4, -8
 1497              		.cfi_offset 14, -4
  28:./chowdsp_wdf/wdft/wdft_nonlinearities.h ****     {
 1498              		.loc 6 28 11 view .LVU310
 1499 0002 0446     		mov	r4, r0
 1500              	.LVL82:
 1501              	.LBB1466:
 1502              	.LBI1466:
  28:./chowdsp_wdf/wdft/wdft_nonlinearities.h ****     {
 1503              		.loc 6 28 11 is_stmt 1 view .LVU311
 1504              	.LBB1467:
 1505              	.LBI1467:
  42:./chowdsp_wdf/wdft/wdft_base.h ****     {
 1506              		.loc 1 42 11 view .LVU312
 1507              	.LBB1468:
 1508              	.LBI1468:
  14:./chowdsp_wdf/wdft/wdft_base.h **** 
 1509              		.loc 1 14 17 view .LVU313
  14:./chowdsp_wdf/wdft/wdft_base.h **** 
 1510              		.loc 1 14 17 is_stmt 0 view .LVU314
 1511              	.LBE1468:
 1512              	.LBE1467:
 1513              	.LBE1466:
  28:./chowdsp_wdf/wdft/wdft_nonlinearities.h ****     {
 1514              		.loc 6 28 11 view .LVU315
 1515 0004 3C21     		movs	r1, #60
 1516 0006 FFF7FEFF 		bl	_ZdlPvj
 1517              	.LVL83:
  28:./chowdsp_wdf/wdft/wdft_nonlinearities.h ****     {
 1518              		.loc 6 28 11 view .LVU316
 1519 000a 2046     		mov	r0, r4
 1520 000c 10BD     		pop	{r4, pc}
  28:./chowdsp_wdf/wdft/wdft_nonlinearities.h ****     {
 1521              		.loc 6 28 11 view .LVU317
 1522              		.cfi_endproc
 1523              	.LFE3317:
 1525 000e 00BF     		.section	.text._ZN7chowdsp3wdf10WDFWrapperIfNS_4wdft12WDFParallelTIfNS0_3WDFIfEES5_EEE9reflectedEv
 1526              		.align	1
 1527              		.p2align 2,,3
 1528              		.weak	_ZN7chowdsp3wdf10WDFWrapperIfNS_4wdft12WDFParallelTIfNS0_3WDFIfEES5_EEE9reflectedEv
 1529              		.syntax unified
 1530              		.thumb
 1531              		.thumb_func
 1533              	_ZN7chowdsp3wdf10WDFWrapperIfNS_4wdft12WDFParallelTIfNS0_3WDFIfEES5_EEE9reflectedEv:
 1534              	.LVL84:
 1535              	.LFB3329:
  98:./chowdsp_wdf/wdf/wdf_base.h ****         {
 1536              		.loc 5 98 18 is_stmt 1 view -0
 1537              		.cfi_startproc
 1538              		@ args = 0, pretend = 0, frame = 0
 1539              		@ frame_needed = 0, uses_anonymous_args = 0
  98:./chowdsp_wdf/wdf/wdf_base.h ****         {
 1540              		.loc 5 98 18 is_stmt 0 view .LVU319
ARM GAS  /var/folders/yd/h_51qzcj4039f6rvxdz3lvym0000gn/T//cca9f80X.s 			page 49


 1541 0000 10B5     		push	{r4, lr}
 1542              		.cfi_def_cfa_offset 8
 1543              		.cfi_offset 4, -8
 1544              		.cfi_offset 14, -4
  98:./chowdsp_wdf/wdf/wdf_base.h ****         {
 1545              		.loc 5 98 18 view .LVU320
 1546 0002 0446     		mov	r4, r0
 1547              	.LVL85:
 1548              	.LBB1471:
 1549              	.LBI1471:
  47:./chowdsp_wdf/wdft/wdft_adaptors.h ****         {
 1550              		.loc 3 47 18 is_stmt 1 view .LVU321
 1551              	.LBB1472:
  49:./chowdsp_wdf/wdft/wdft_adaptors.h ****             port2.reflected();
 1552              		.loc 3 49 13 is_stmt 0 view .LVU322
 1553 0004 406C     		ldr	r0, [r0, #68]
 1554              	.LVL86:
  49:./chowdsp_wdf/wdft/wdft_adaptors.h ****             port2.reflected();
 1555              		.loc 3 49 28 view .LVU323
 1556 0006 0368     		ldr	r3, [r0]
 1557 0008 9B69     		ldr	r3, [r3, #24]
 1558 000a 9847     		blx	r3
 1559              	.LVL87:
  50:./chowdsp_wdf/wdft/wdft_adaptors.h **** 
 1560              		.loc 3 50 13 view .LVU324
 1561 000c A06C     		ldr	r0, [r4, #72]
  50:./chowdsp_wdf/wdft/wdft_adaptors.h **** 
 1562              		.loc 3 50 28 view .LVU325
 1563 000e 0368     		ldr	r3, [r0]
 1564 0010 9B69     		ldr	r3, [r3, #24]
 1565 0012 9847     		blx	r3
 1566              	.LVL88:
  53:./chowdsp_wdf/wdft/wdft_adaptors.h **** 
 1567              		.loc 3 53 33 view .LVU326
 1568 0014 94ED177A 		vldr.32	s14, [r4, #92]
  52:./chowdsp_wdf/wdft/wdft_adaptors.h ****             wdf.b = port2.wdf.b - port1Reflect * bDiff;
 1569              		.loc 3 52 45 view .LVU327
 1570 0018 D4E91132 		ldrd	r3, r2, [r4, #68]
  52:./chowdsp_wdf/wdft/wdft_adaptors.h ****             wdf.b = port2.wdf.b - port1Reflect * bDiff;
 1571              		.loc 3 52 31 view .LVU328
 1572 001c 92ED060A 		vldr.32	s0, [r2, #24]
  52:./chowdsp_wdf/wdft/wdft_adaptors.h ****             wdf.b = port2.wdf.b - port1Reflect * bDiff;
 1573              		.loc 3 52 33 view .LVU329
 1574 0020 D3ED067A 		vldr.32	s15, [r3, #24]
 1575 0024 70EE677A 		vsub.f32	s15, s0, s15
  53:./chowdsp_wdf/wdft/wdft_adaptors.h **** 
 1576              		.loc 3 53 33 view .LVU330
 1577 0028 A7EEC70A 		vfms.f32	s0, s15, s14
  52:./chowdsp_wdf/wdft/wdft_adaptors.h ****             wdf.b = port2.wdf.b - port1Reflect * bDiff;
 1578              		.loc 3 52 19 view .LVU331
 1579 002c C4ED187A 		vstr.32	s15, [r4, #96]
  53:./chowdsp_wdf/wdft/wdft_adaptors.h **** 
 1580              		.loc 3 53 19 view .LVU332
 1581 0030 84ED160A 		vstr.32	s0, [r4, #88]
 1582              	.LVL89:
  53:./chowdsp_wdf/wdft/wdft_adaptors.h **** 
 1583              		.loc 3 53 19 view .LVU333
ARM GAS  /var/folders/yd/h_51qzcj4039f6rvxdz3lvym0000gn/T//cca9f80X.s 			page 50


 1584              	.LBE1472:
 1585              	.LBE1471:
 100:./chowdsp_wdf/wdf/wdf_base.h ****             return this->wdf.b;
 1586              		.loc 5 100 25 view .LVU334
 1587 0034 84ED060A 		vstr.32	s0, [r4, #24]
 1588              		.loc 5 102 9 view .LVU335
 1589 0038 10BD     		pop	{r4, pc}
 1590              		.loc 5 102 9 view .LVU336
 1591              		.cfi_endproc
 1592              	.LFE3329:
 1594 003a 00BF     		.section	.text._ZN7chowdsp3wdf10WDFWrapperIfNS_4wdft12WDFParallelTIfNS0_3WDFIfEES5_EEE8incidentEf,
 1595              		.align	1
 1596              		.p2align 2,,3
 1597              		.weak	_ZN7chowdsp3wdf10WDFWrapperIfNS_4wdft12WDFParallelTIfNS0_3WDFIfEES5_EEE8incidentEf
 1598              		.syntax unified
 1599              		.thumb
 1600              		.thumb_func
 1602              	_ZN7chowdsp3wdf10WDFWrapperIfNS_4wdft12WDFParallelTIfNS0_3WDFIfEES5_EEE8incidentEf:
 1603              	.LVL90:
 1604              	.LFB3333:
  91:./chowdsp_wdf/wdf/wdf_base.h ****         {
 1605              		.loc 5 91 21 is_stmt 1 view -0
 1606              		.cfi_startproc
 1607              		@ args = 0, pretend = 0, frame = 0
 1608              		@ frame_needed = 0, uses_anonymous_args = 0
 1609              	.LBB1475:
 1610              	.LBB1476:
  39:./chowdsp_wdf/wdft/wdft_adaptors.h ****             port1.incident (b2 + bDiff);
 1611              		.loc 3 39 47 is_stmt 0 view .LVU338
 1612 0000 836C     		ldr	r3, [r0, #72]
 1613              	.LBE1476:
 1614              	.LBE1475:
  91:./chowdsp_wdf/wdf/wdf_base.h ****         {
 1615              		.loc 5 91 21 view .LVU339
 1616 0002 10B5     		push	{r4, lr}
 1617              		.cfi_def_cfa_offset 8
 1618              		.cfi_offset 4, -8
 1619              		.cfi_offset 14, -4
 1620              	.LBB1481:
 1621              	.LBB1477:
  39:./chowdsp_wdf/wdft/wdft_adaptors.h ****             port1.incident (b2 + bDiff);
 1622              		.loc 3 39 35 view .LVU340
 1623 0004 D3ED067A 		vldr.32	s15, [r3, #24]
 1624              	.LBE1477:
 1625              	.LBE1481:
  91:./chowdsp_wdf/wdf/wdf_base.h ****         {
 1626              		.loc 5 91 21 view .LVU341
 1627 0008 0446     		mov	r4, r0
 1628 000a 2DED028B 		vpush.64	{d8}
 1629              		.cfi_def_cfa_offset 16
 1630              		.cfi_offset 80, -16
 1631              		.cfi_offset 81, -12
 1632              	.LBB1482:
 1633              	.LBB1478:
  39:./chowdsp_wdf/wdft/wdft_adaptors.h ****             port1.incident (b2 + bDiff);
 1634              		.loc 3 39 35 view .LVU342
 1635 000e 90ED168A 		vldr.32	s16, [r0, #88]
ARM GAS  /var/folders/yd/h_51qzcj4039f6rvxdz3lvym0000gn/T//cca9f80X.s 			page 51


 1636              	.LBE1478:
 1637              	.LBE1482:
  91:./chowdsp_wdf/wdf/wdf_base.h ****         {
 1638              		.loc 5 91 21 view .LVU343
 1639 0012 F0EE408A 		vmov.f32	s17, s0
 1640              	.LBB1483:
 1641              	.LBB1479:
  40:./chowdsp_wdf/wdft/wdft_adaptors.h ****             port2.incident (b2);
 1642              		.loc 3 40 13 view .LVU344
 1643 0016 406C     		ldr	r0, [r0, #68]
 1644              	.LVL91:
  39:./chowdsp_wdf/wdft/wdft_adaptors.h ****             port1.incident (b2 + bDiff);
 1645              		.loc 3 39 35 view .LVU345
 1646 0018 38EE678A 		vsub.f32	s16, s16, s15
  40:./chowdsp_wdf/wdft/wdft_adaptors.h ****             port2.incident (b2);
 1647              		.loc 3 40 28 view .LVU346
 1648 001c 94ED180A 		vldr.32	s0, [r4, #96]
 1649              	.LVL92:
  40:./chowdsp_wdf/wdft/wdft_adaptors.h ****             port2.incident (b2);
 1650              		.loc 3 40 28 view .LVU347
 1651 0020 0368     		ldr	r3, [r0]
 1652              	.LBE1479:
 1653              	.LBE1483:
  93:./chowdsp_wdf/wdf/wdf_base.h ****             internalWDF.incident (x);
 1654              		.loc 5 93 25 view .LVU348
 1655 0022 C4ED058A 		vstr.32	s17, [r4, #20]
 1656              	.LVL93:
 1657              	.LBB1484:
 1658              	.LBI1475:
  37:./chowdsp_wdf/wdft/wdft_adaptors.h ****         {
 1659              		.loc 3 37 21 is_stmt 1 view .LVU349
 1660              	.LBB1480:
  39:./chowdsp_wdf/wdft/wdft_adaptors.h ****             port1.incident (b2 + bDiff);
 1661              		.loc 3 39 24 is_stmt 0 view .LVU350
 1662 0026 38EE288A 		vadd.f32	s16, s16, s17
 1663              	.LVL94:
  40:./chowdsp_wdf/wdft/wdft_adaptors.h ****             port2.incident (b2);
 1664              		.loc 3 40 28 view .LVU351
 1665 002a 5B69     		ldr	r3, [r3, #20]
 1666 002c 38EE000A 		vadd.f32	s0, s16, s0
 1667 0030 9847     		blx	r3
 1668              	.LVL95:
  41:./chowdsp_wdf/wdft/wdft_adaptors.h **** 
 1669              		.loc 3 41 13 view .LVU352
 1670 0032 A06C     		ldr	r0, [r4, #72]
  41:./chowdsp_wdf/wdft/wdft_adaptors.h **** 
 1671              		.loc 3 41 28 view .LVU353
 1672 0034 B0EE480A 		vmov.f32	s0, s16
 1673 0038 0368     		ldr	r3, [r0]
 1674 003a 5B69     		ldr	r3, [r3, #20]
 1675 003c 9847     		blx	r3
 1676              	.LVL96:
  43:./chowdsp_wdf/wdft/wdft_adaptors.h ****         }
 1677              		.loc 3 43 19 view .LVU354
 1678 003e C4ED158A 		vstr.32	s17, [r4, #84]
 1679              	.LVL97:
  43:./chowdsp_wdf/wdft/wdft_adaptors.h ****         }
ARM GAS  /var/folders/yd/h_51qzcj4039f6rvxdz3lvym0000gn/T//cca9f80X.s 			page 52


 1680              		.loc 3 43 19 view .LVU355
 1681              	.LBE1480:
 1682              	.LBE1484:
  95:./chowdsp_wdf/wdf/wdf_base.h **** 
 1683              		.loc 5 95 9 view .LVU356
 1684 0042 BDEC028B 		vldm	sp!, {d8}
 1685              		.cfi_restore 80
 1686              		.cfi_restore 81
 1687              		.cfi_def_cfa_offset 8
 1688 0046 10BD     		pop	{r4, pc}
  95:./chowdsp_wdf/wdf/wdf_base.h **** 
 1689              		.loc 5 95 9 view .LVU357
 1690              		.cfi_endproc
 1691              	.LFE3333:
 1693              		.section	.text._ZN7chowdsp3wdf14WDFRootWrapperIfNS_4wdft10DiodePairTIfNS0_3WDFIfEELNS2_12DiodeQual
 1694              		.align	1
 1695              		.p2align 2,,3
 1696              		.weak	_ZN7chowdsp3wdf14WDFRootWrapperIfNS_4wdft10DiodePairTIfNS0_3WDFIfEELNS2_12DiodeQualityE1ENS_
 1697              		.syntax unified
 1698              		.thumb
 1699              		.thumb_func
 1701              	_ZN7chowdsp3wdf14WDFRootWrapperIfNS_4wdft10DiodePairTIfNS0_3WDFIfEELNS2_12DiodeQualityE1ENS_5Omega5
 1702              	.LVL98:
 1703              	.LFB3557:
 103:./chowdsp_wdf/wdf/wdf_base.h **** 
 104:./chowdsp_wdf/wdf/wdf_base.h ****     protected:
 105:./chowdsp_wdf/wdf/wdf_base.h ****         WDFType internalWDF;
 106:./chowdsp_wdf/wdf/wdf_base.h ****     };
 107:./chowdsp_wdf/wdf/wdf_base.h **** 
 108:./chowdsp_wdf/wdf/wdf_base.h ****     template <typename T, typename WDFType>
 109:./chowdsp_wdf/wdf/wdf_base.h ****     class WDFRootWrapper : public WDFWrapper<T, WDFType>
 110:./chowdsp_wdf/wdf/wdf_base.h ****     {
 111:./chowdsp_wdf/wdf/wdf_base.h ****     public:
 112:./chowdsp_wdf/wdf/wdf_base.h ****         template <typename Next, typename... Args>
 113:./chowdsp_wdf/wdf/wdf_base.h ****         WDFRootWrapper (const std::string& name, Next& next, Args&&... args) : WDFWrapper<T, WDFTyp
 114:./chowdsp_wdf/wdf/wdf_base.h ****         {
 115:./chowdsp_wdf/wdf/wdf_base.h ****             next.connectToNode (this);
 116:./chowdsp_wdf/wdf/wdf_base.h ****             calcImpedance();
 117:./chowdsp_wdf/wdf/wdf_base.h ****         }
 118:./chowdsp_wdf/wdf/wdf_base.h **** 
 119:./chowdsp_wdf/wdf/wdf_base.h ****         inline void propagateImpedance() override
 120:./chowdsp_wdf/wdf/wdf_base.h ****         {
 121:./chowdsp_wdf/wdf/wdf_base.h ****             this->calcImpedance();
 122:./chowdsp_wdf/wdf/wdf_base.h ****         }
 123:./chowdsp_wdf/wdf/wdf_base.h **** 
 124:./chowdsp_wdf/wdf/wdf_base.h ****         inline void calcImpedance() override
 1704              		.loc 5 124 21 is_stmt 1 view -0
 1705              		.cfi_startproc
 1706              		@ args = 0, pretend = 0, frame = 0
 1707              		@ frame_needed = 0, uses_anonymous_args = 0
 1708              	.LBB1489:
 1709              	.LBB1490:
  61:./chowdsp_wdf/wdft/wdft_nonlinearities.h ****             R_Is_overVt = R_Is * oneOverVt;
 1710              		.loc 6 61 29 is_stmt 0 view .LVU359
 1711 0000 036F     		ldr	r3, [r0, #112]
  61:./chowdsp_wdf/wdft/wdft_nonlinearities.h ****             R_Is_overVt = R_Is * oneOverVt;
 1712              		.loc 6 61 31 view .LVU360
ARM GAS  /var/folders/yd/h_51qzcj4039f6rvxdz3lvym0000gn/T//cca9f80X.s 			page 53


 1713 0002 90ED157A 		vldr.32	s14, [r0, #84]
 1714 0006 D3ED037A 		vldr.32	s15, [r3, #12]
  62:./chowdsp_wdf/wdft/wdft_nonlinearities.h ****             logR_Is_overVt = log (R_Is_overVt);
 1715              		.loc 6 62 32 view .LVU361
 1716 000a 90ED180A 		vldr.32	s0, [r0, #96]
  61:./chowdsp_wdf/wdft/wdft_nonlinearities.h ****             R_Is_overVt = R_Is * oneOverVt;
 1717              		.loc 6 61 31 view .LVU362
 1718 000e 67EE877A 		vmul.f32	s15, s15, s14
 1719              	.LBE1490:
 1720              	.LBE1489:
 1721              		.loc 5 124 21 view .LVU363
 1722 0012 10B5     		push	{r4, lr}
 1723              		.cfi_def_cfa_offset 8
 1724              		.cfi_offset 4, -8
 1725              		.cfi_offset 14, -4
 1726              	.LBB1495:
 1727              	.LBB1493:
  62:./chowdsp_wdf/wdft/wdft_nonlinearities.h ****             logR_Is_overVt = log (R_Is_overVt);
 1728              		.loc 6 62 32 view .LVU364
 1729 0014 27EE800A 		vmul.f32	s0, s15, s0
 1730              	.LBE1493:
 1731              	.LBE1495:
 1732              		.loc 5 124 21 view .LVU365
 1733 0018 0446     		mov	r4, r0
 1734              	.LVL99:
 1735              	.LBB1496:
 1736              	.LBI1489:
  54:./chowdsp_wdf/wdft/wdft_nonlinearities.h ****         {
 1737              		.loc 6 54 21 is_stmt 1 view .LVU366
 1738              	.LBB1494:
  61:./chowdsp_wdf/wdft/wdft_nonlinearities.h ****             R_Is_overVt = R_Is * oneOverVt;
 1739              		.loc 6 61 18 is_stmt 0 view .LVU367
 1740 001a C0ED197A 		vstr.32	s15, [r0, #100]
  62:./chowdsp_wdf/wdft/wdft_nonlinearities.h ****             logR_Is_overVt = log (R_Is_overVt);
 1741              		.loc 6 62 25 view .LVU368
 1742 001e 80ED1A0A 		vstr.32	s0, [r0, #104]
 1743              	.LVL100:
 1744              	.LBB1491:
 1745              	.LBI1491:
 338:/Library/DaisyToolchain/0.2.0/arm/arm-none-eabi/include/c++/10.3.1/cmath ****   { return __builtin_logf(__x); }
 1746              		.loc 7 338 3 is_stmt 1 view .LVU369
 1747              	.LBB1492:
 1748              		.loc 7 339 5 view .LVU370
 1749              		.loc 7 339 26 is_stmt 0 view .LVU371
 1750 0022 FFF7FEFF 		bl	logf
 1751              	.LVL101:
 1752              		.loc 7 339 26 view .LVU372
 1753              	.LBE1492:
 1754              	.LBE1491:
  63:./chowdsp_wdf/wdft/wdft_nonlinearities.h ****         }
 1755              		.loc 6 63 28 view .LVU373
 1756 0026 84ED1B0A 		vstr.32	s0, [r4, #108]
 1757              	.LVL102:
  63:./chowdsp_wdf/wdft/wdft_nonlinearities.h ****         }
 1758              		.loc 6 63 28 view .LVU374
 1759              	.LBE1494:
 1760              	.LBE1496:
ARM GAS  /var/folders/yd/h_51qzcj4039f6rvxdz3lvym0000gn/T//cca9f80X.s 			page 54


 125:./chowdsp_wdf/wdf/wdf_base.h ****         {
 126:./chowdsp_wdf/wdf/wdf_base.h ****             this->internalWDF.calcImpedance();
 127:./chowdsp_wdf/wdf/wdf_base.h ****         }
 1761              		.loc 5 127 9 view .LVU375
 1762 002a 10BD     		pop	{r4, pc}
 1763              		.loc 5 127 9 view .LVU376
 1764              		.cfi_endproc
 1765              	.LFE3557:
 1767              		.section	.text._ZN7chowdsp4wdft7BaseWDF24propagateImpedanceChangeEv,"axG",%progbits,_ZN7chowdsp4wd
 1768              		.align	1
 1769              		.p2align 2,,3
 1770              		.weak	_ZN7chowdsp4wdft7BaseWDF24propagateImpedanceChangeEv
 1771              		.syntax unified
 1772              		.thumb
 1773              		.thumb_func
 1775              	_ZN7chowdsp4wdft7BaseWDF24propagateImpedanceChangeEv:
 1776              	.LVL103:
 1777              	.LFB557:
  20:./chowdsp_wdf/wdft/wdft_base.h ****         {
 1778              		.loc 1 20 29 is_stmt 1 view -0
 1779              		.cfi_startproc
 1780              		@ args = 0, pretend = 0, frame = 0
 1781              		@ frame_needed = 0, uses_anonymous_args = 0
  22:./chowdsp_wdf/wdft/wdft_base.h ****                 return; // the impedance propagation is being deferred until later...
 1782              		.loc 1 22 13 view .LVU378
 1783 0000 037A     		ldrb	r3, [r0, #8]	@ zero_extendqisi2
 1784 0002 63B9     		cbnz	r3, .L66
 1785              	.LVL104:
 1786              	.LBB1499:
 1787              	.LBI1499:
  20:./chowdsp_wdf/wdft/wdft_base.h ****         {
 1788              		.loc 1 20 29 view .LVU379
 1789              	.LBB1500:
  25:./chowdsp_wdf/wdft/wdft_base.h **** 
 1790              		.loc 1 25 13 view .LVU380
  25:./chowdsp_wdf/wdft/wdft_base.h **** 
 1791              		.loc 1 25 27 is_stmt 0 view .LVU381
 1792 0004 0368     		ldr	r3, [r0]
 1793              	.LBE1500:
 1794              	.LBE1499:
  20:./chowdsp_wdf/wdft/wdft_base.h ****         {
 1795              		.loc 1 20 29 view .LVU382
 1796 0006 10B5     		push	{r4, lr}
 1797              		.cfi_def_cfa_offset 8
 1798              		.cfi_offset 4, -8
 1799              		.cfi_offset 14, -4
 1800 0008 0446     		mov	r4, r0
 1801              	.LBB1503:
 1802              	.LBB1501:
  25:./chowdsp_wdf/wdft/wdft_base.h **** 
 1803              		.loc 1 25 26 view .LVU383
 1804 000a 9B68     		ldr	r3, [r3, #8]
 1805 000c 9847     		blx	r3
 1806              	.LVL105:
  27:./chowdsp_wdf/wdft/wdft_base.h ****                 parent->propagateImpedanceChange();
 1807              		.loc 1 27 13 is_stmt 1 view .LVU384
  27:./chowdsp_wdf/wdft/wdft_base.h ****                 parent->propagateImpedanceChange();
ARM GAS  /var/folders/yd/h_51qzcj4039f6rvxdz3lvym0000gn/T//cca9f80X.s 			page 55


 1808              		.loc 1 27 17 is_stmt 0 view .LVU385
 1809 000e 6068     		ldr	r0, [r4, #4]
  27:./chowdsp_wdf/wdft/wdft_base.h ****                 parent->propagateImpedanceChange();
 1810              		.loc 1 27 13 view .LVU386
 1811 0010 20B1     		cbz	r0, .L58
  28:./chowdsp_wdf/wdft/wdft_base.h ****         }
 1812              		.loc 1 28 17 is_stmt 1 view .LVU387
  28:./chowdsp_wdf/wdft/wdft_base.h ****         }
 1813              		.loc 1 28 50 is_stmt 0 view .LVU388
 1814 0012 0368     		ldr	r3, [r0]
 1815              	.LBE1501:
 1816              	.LBE1503:
  29:./chowdsp_wdf/wdft/wdft_base.h **** 
 1817              		.loc 1 29 9 view .LVU389
 1818 0014 BDE81040 		pop	{r4, lr}
 1819              		.cfi_remember_state
 1820              		.cfi_restore 14
 1821              		.cfi_restore 4
 1822              		.cfi_def_cfa_offset 0
 1823              	.LVL106:
 1824              	.LBB1504:
 1825              	.LBB1502:
  28:./chowdsp_wdf/wdft/wdft_base.h ****         }
 1826              		.loc 1 28 49 view .LVU390
 1827 0018 DB68     		ldr	r3, [r3, #12]
 1828 001a 1847     		bx	r3	@ indirect register sibling call
 1829              	.LVL107:
 1830              	.L58:
 1831              		.cfi_restore_state
  28:./chowdsp_wdf/wdft/wdft_base.h ****         }
 1832              		.loc 1 28 49 view .LVU391
 1833              	.LBE1502:
 1834              	.LBE1504:
  29:./chowdsp_wdf/wdft/wdft_base.h **** 
 1835              		.loc 1 29 9 view .LVU392
 1836 001c 10BD     		pop	{r4, pc}
 1837              	.LVL108:
 1838              	.L66:
 1839              		.cfi_def_cfa_offset 0
 1840              		.cfi_restore 4
 1841              		.cfi_restore 14
  29:./chowdsp_wdf/wdft/wdft_base.h **** 
 1842              		.loc 1 29 9 view .LVU393
 1843 001e 7047     		bx	lr
 1844              		.cfi_endproc
 1845              	.LFE557:
 1847              		.section	.text._ZN7chowdsp3wdf10WDFWrapperIfNS_4wdft10DiodePairTIfNS0_3WDFIfEELNS2_12DiodeQualityE
 1848              		.align	1
 1849              		.p2align 2,,3
 1850              		.weak	_ZN7chowdsp3wdf10WDFWrapperIfNS_4wdft10DiodePairTIfNS0_3WDFIfEELNS2_12DiodeQualityE1ENS_5Ome
 1851              		.syntax unified
 1852              		.thumb
 1853              		.thumb_func
 1855              	_ZN7chowdsp3wdf10WDFWrapperIfNS_4wdft10DiodePairTIfNS0_3WDFIfEELNS2_12DiodeQualityE1ENS_5Omega5Omeg
 1856              	.LVL109:
 1857              	.LFB3612:
  83:./chowdsp_wdf/wdf/wdf_base.h ****         {
ARM GAS  /var/folders/yd/h_51qzcj4039f6rvxdz3lvym0000gn/T//cca9f80X.s 			page 56


 1858              		.loc 5 83 21 is_stmt 1 view -0
 1859              		.cfi_startproc
 1860              		@ args = 0, pretend = 0, frame = 0
 1861              		@ frame_needed = 0, uses_anonymous_args = 0
 1862              	.LBB1509:
 1863              	.LBB1510:
  61:./chowdsp_wdf/wdft/wdft_nonlinearities.h ****             R_Is_overVt = R_Is * oneOverVt;
 1864              		.loc 6 61 29 is_stmt 0 view .LVU395
 1865 0000 036F     		ldr	r3, [r0, #112]
  61:./chowdsp_wdf/wdft/wdft_nonlinearities.h ****             R_Is_overVt = R_Is * oneOverVt;
 1866              		.loc 6 61 31 view .LVU396
 1867 0002 90ED157A 		vldr.32	s14, [r0, #84]
 1868 0006 D3ED037A 		vldr.32	s15, [r3, #12]
  62:./chowdsp_wdf/wdft/wdft_nonlinearities.h ****             logR_Is_overVt = log (R_Is_overVt);
 1869              		.loc 6 62 32 view .LVU397
 1870 000a 90ED180A 		vldr.32	s0, [r0, #96]
  61:./chowdsp_wdf/wdft/wdft_nonlinearities.h ****             R_Is_overVt = R_Is * oneOverVt;
 1871              		.loc 6 61 31 view .LVU398
 1872 000e 67EE877A 		vmul.f32	s15, s15, s14
 1873              	.LBE1510:
 1874              	.LBE1509:
  83:./chowdsp_wdf/wdf/wdf_base.h ****         {
 1875              		.loc 5 83 21 view .LVU399
 1876 0012 10B5     		push	{r4, lr}
 1877              		.cfi_def_cfa_offset 8
 1878              		.cfi_offset 4, -8
 1879              		.cfi_offset 14, -4
 1880              	.LBB1516:
 1881              	.LBB1513:
  62:./chowdsp_wdf/wdft/wdft_nonlinearities.h ****             logR_Is_overVt = log (R_Is_overVt);
 1882              		.loc 6 62 32 view .LVU400
 1883 0014 27EE800A 		vmul.f32	s0, s15, s0
 1884              	.LBE1513:
 1885              	.LBE1516:
  83:./chowdsp_wdf/wdf/wdf_base.h ****         {
 1886              		.loc 5 83 21 view .LVU401
 1887 0018 0446     		mov	r4, r0
 1888              	.LVL110:
 1889              	.LBB1517:
 1890              	.LBI1509:
  54:./chowdsp_wdf/wdft/wdft_nonlinearities.h ****         {
 1891              		.loc 6 54 21 is_stmt 1 view .LVU402
 1892              	.LBB1514:
  61:./chowdsp_wdf/wdft/wdft_nonlinearities.h ****             R_Is_overVt = R_Is * oneOverVt;
 1893              		.loc 6 61 18 is_stmt 0 view .LVU403
 1894 001a C0ED197A 		vstr.32	s15, [r0, #100]
  62:./chowdsp_wdf/wdft/wdft_nonlinearities.h ****             logR_Is_overVt = log (R_Is_overVt);
 1895              		.loc 6 62 25 view .LVU404
 1896 001e 80ED1A0A 		vstr.32	s0, [r0, #104]
 1897              	.LVL111:
 1898              	.LBB1511:
 1899              	.LBI1511:
 338:/Library/DaisyToolchain/0.2.0/arm/arm-none-eabi/include/c++/10.3.1/cmath ****   { return __builtin_logf(__x); }
 1900              		.loc 7 338 3 is_stmt 1 view .LVU405
 1901              	.LBB1512:
 1902              		.loc 7 339 5 view .LVU406
 1903              		.loc 7 339 26 is_stmt 0 view .LVU407
ARM GAS  /var/folders/yd/h_51qzcj4039f6rvxdz3lvym0000gn/T//cca9f80X.s 			page 57


 1904 0022 FFF7FEFF 		bl	logf
 1905              	.LVL112:
 1906              		.loc 7 339 26 view .LVU408
 1907              	.LBE1512:
 1908              	.LBE1511:
 1909              	.LBE1514:
 1910              	.LBE1517:
  86:./chowdsp_wdf/wdf/wdf_base.h ****             this->wdf.G = internalWDF.wdf.G;
 1911              		.loc 5 86 25 view .LVU409
 1912 0026 626C     		ldr	r2, [r4, #68]	@ float
  87:./chowdsp_wdf/wdf/wdf_base.h ****         }
 1913              		.loc 5 87 25 view .LVU410
 1914 0028 A36C     		ldr	r3, [r4, #72]	@ float
 1915              	.LBB1518:
 1916              	.LBB1515:
  63:./chowdsp_wdf/wdft/wdft_nonlinearities.h ****         }
 1917              		.loc 6 63 28 view .LVU411
 1918 002a 84ED1B0A 		vstr.32	s0, [r4, #108]
 1919              	.LVL113:
  63:./chowdsp_wdf/wdft/wdft_nonlinearities.h ****         }
 1920              		.loc 6 63 28 view .LVU412
 1921              	.LBE1515:
 1922              	.LBE1518:
  86:./chowdsp_wdf/wdf/wdf_base.h ****             this->wdf.G = internalWDF.wdf.G;
 1923              		.loc 5 86 25 view .LVU413
 1924 002e E260     		str	r2, [r4, #12]	@ float
  87:./chowdsp_wdf/wdf/wdf_base.h ****         }
 1925              		.loc 5 87 25 view .LVU414
 1926 0030 2361     		str	r3, [r4, #16]	@ float
  88:./chowdsp_wdf/wdf/wdf_base.h **** 
 1927              		.loc 5 88 9 view .LVU415
 1928 0032 10BD     		pop	{r4, pc}
  88:./chowdsp_wdf/wdf/wdf_base.h **** 
 1929              		.loc 5 88 9 view .LVU416
 1930              		.cfi_endproc
 1931              	.LFE3612:
 1933              		.section	.text._ZN7chowdsp3wdf14WDFRootWrapperIfNS_4wdft10DiodePairTIfNS0_3WDFIfEELNS2_12DiodeQual
 1934              		.align	1
 1935              		.p2align 2,,3
 1936              		.weak	_ZN7chowdsp3wdf14WDFRootWrapperIfNS_4wdft10DiodePairTIfNS0_3WDFIfEELNS2_12DiodeQualityE1ENS_
 1937              		.syntax unified
 1938              		.thumb
 1939              		.thumb_func
 1941              	_ZN7chowdsp3wdf14WDFRootWrapperIfNS_4wdft10DiodePairTIfNS0_3WDFIfEELNS2_12DiodeQualityE1ENS_5Omega5
 1942              	.LVL114:
 1943              	.LFB3706:
 119:./chowdsp_wdf/wdf/wdf_base.h ****         {
 1944              		.loc 5 119 21 is_stmt 1 view -0
 1945              		.cfi_startproc
 1946              		@ args = 0, pretend = 0, frame = 0
 1947              		@ frame_needed = 0, uses_anonymous_args = 0
 121:./chowdsp_wdf/wdf/wdf_base.h ****         }
 1948              		.loc 5 121 32 is_stmt 0 view .LVU418
 1949 0000 0368     		ldr	r3, [r0]
 1950 0002 0D4A     		ldr	r2, .L78
 1951 0004 9B68     		ldr	r3, [r3, #8]
 1952 0006 9342     		cmp	r3, r2
ARM GAS  /var/folders/yd/h_51qzcj4039f6rvxdz3lvym0000gn/T//cca9f80X.s 			page 58


 1953 0008 15D1     		bne	.L72
 1954              	.LVL115:
 1955              	.LBB1525:
 1956              	.LBI1525:
 124:./chowdsp_wdf/wdf/wdf_base.h ****         {
 1957              		.loc 5 124 21 is_stmt 1 view .LVU419
 1958              	.LBB1526:
 1959              	.LBI1526:
  54:./chowdsp_wdf/wdft/wdft_nonlinearities.h ****         {
 1960              		.loc 6 54 21 view .LVU420
 1961              	.LBB1527:
  61:./chowdsp_wdf/wdft/wdft_nonlinearities.h ****             R_Is_overVt = R_Is * oneOverVt;
 1962              		.loc 6 61 29 is_stmt 0 view .LVU421
 1963 000a 036F     		ldr	r3, [r0, #112]
  61:./chowdsp_wdf/wdft/wdft_nonlinearities.h ****             R_Is_overVt = R_Is * oneOverVt;
 1964              		.loc 6 61 31 view .LVU422
 1965 000c 90ED157A 		vldr.32	s14, [r0, #84]
 1966 0010 D3ED037A 		vldr.32	s15, [r3, #12]
  62:./chowdsp_wdf/wdft/wdft_nonlinearities.h ****             logR_Is_overVt = log (R_Is_overVt);
 1967              		.loc 6 62 32 view .LVU423
 1968 0014 90ED180A 		vldr.32	s0, [r0, #96]
  61:./chowdsp_wdf/wdft/wdft_nonlinearities.h ****             R_Is_overVt = R_Is * oneOverVt;
 1969              		.loc 6 61 31 view .LVU424
 1970 0018 67EE877A 		vmul.f32	s15, s15, s14
 1971              	.LBE1527:
 1972              	.LBE1526:
 1973              	.LBE1525:
 119:./chowdsp_wdf/wdf/wdf_base.h ****         {
 1974              		.loc 5 119 21 view .LVU425
 1975 001c 10B5     		push	{r4, lr}
 1976              		.cfi_def_cfa_offset 8
 1977              		.cfi_offset 4, -8
 1978              		.cfi_offset 14, -4
 1979              	.LBB1532:
 1980              	.LBB1531:
 1981              	.LBB1530:
  62:./chowdsp_wdf/wdft/wdft_nonlinearities.h ****             logR_Is_overVt = log (R_Is_overVt);
 1982              		.loc 6 62 32 view .LVU426
 1983 001e 27EE800A 		vmul.f32	s0, s15, s0
 1984 0022 0446     		mov	r4, r0
  61:./chowdsp_wdf/wdft/wdft_nonlinearities.h ****             R_Is_overVt = R_Is * oneOverVt;
 1985              		.loc 6 61 18 view .LVU427
 1986 0024 C0ED197A 		vstr.32	s15, [r0, #100]
  62:./chowdsp_wdf/wdft/wdft_nonlinearities.h ****             logR_Is_overVt = log (R_Is_overVt);
 1987              		.loc 6 62 25 view .LVU428
 1988 0028 80ED1A0A 		vstr.32	s0, [r0, #104]
 1989              	.LVL116:
 1990              	.LBB1528:
 1991              	.LBI1528:
 338:/Library/DaisyToolchain/0.2.0/arm/arm-none-eabi/include/c++/10.3.1/cmath ****   { return __builtin_logf(__x); }
 1992              		.loc 7 338 3 is_stmt 1 view .LVU429
 1993              	.LBB1529:
 1994              		.loc 7 339 5 view .LVU430
 1995              		.loc 7 339 26 is_stmt 0 view .LVU431
 1996 002c FFF7FEFF 		bl	logf
 1997              	.LVL117:
 1998              		.loc 7 339 26 view .LVU432
ARM GAS  /var/folders/yd/h_51qzcj4039f6rvxdz3lvym0000gn/T//cca9f80X.s 			page 59


 1999              	.LBE1529:
 2000              	.LBE1528:
  63:./chowdsp_wdf/wdft/wdft_nonlinearities.h ****         }
 2001              		.loc 6 63 28 view .LVU433
 2002 0030 84ED1B0A 		vstr.32	s0, [r4, #108]
 2003              	.LBE1530:
 2004              	.LBE1531:
 2005              	.LBE1532:
 122:./chowdsp_wdf/wdf/wdf_base.h **** 
 2006              		.loc 5 122 9 view .LVU434
 2007 0034 10BD     		pop	{r4, pc}
 2008              	.LVL118:
 2009              	.L72:
 2010              		.cfi_def_cfa_offset 0
 2011              		.cfi_restore 4
 2012              		.cfi_restore 14
 121:./chowdsp_wdf/wdf/wdf_base.h ****         }
 2013              		.loc 5 121 32 view .LVU435
 2014 0036 1847     		bx	r3	@ indirect register sibling call
 2015              	.LVL119:
 2016              	.L79:
 121:./chowdsp_wdf/wdf/wdf_base.h ****         }
 2017              		.loc 5 121 32 view .LVU436
 2018              		.align	2
 2019              	.L78:
 2020 0038 00000000 		.word	_ZN7chowdsp3wdf14WDFRootWrapperIfNS_4wdft10DiodePairTIfNS0_3WDFIfEELNS2_12DiodeQualityE1ENS_
 2021              		.cfi_endproc
 2022              	.LFE3706:
 2024              		.section	.text._ZN7chowdsp3wdf10WDFWrapperIfNS_4wdft10WDFSeriesTIfNS0_3WDFIfEES5_EEE9reflectedEv,"
 2025              		.align	1
 2026              		.p2align 2,,3
 2027              		.weak	_ZN7chowdsp3wdf10WDFWrapperIfNS_4wdft10WDFSeriesTIfNS0_3WDFIfEES5_EEE9reflectedEv
 2028              		.syntax unified
 2029              		.thumb
 2030              		.thumb_func
 2032              	_ZN7chowdsp3wdf10WDFWrapperIfNS_4wdft10WDFSeriesTIfNS0_3WDFIfEES5_EEE9reflectedEv:
 2033              	.LVL120:
 2034              	.LFB3294:
  98:./chowdsp_wdf/wdf/wdf_base.h ****         {
 2035              		.loc 5 98 18 is_stmt 1 view -0
 2036              		.cfi_startproc
 2037              		@ args = 0, pretend = 0, frame = 0
 2038              		@ frame_needed = 0, uses_anonymous_args = 0
  98:./chowdsp_wdf/wdf/wdf_base.h ****         {
 2039              		.loc 5 98 18 is_stmt 0 view .LVU438
 2040 0000 10B5     		push	{r4, lr}
 2041              		.cfi_def_cfa_offset 8
 2042              		.cfi_offset 4, -8
 2043              		.cfi_offset 14, -4
 2044 0002 0446     		mov	r4, r0
 2045              	.LVL121:
 2046              	.LBB1535:
 2047              	.LBI1535:
  91:./chowdsp_wdf/wdft/wdft_adaptors.h **** 
  92:./chowdsp_wdf/wdft/wdft_adaptors.h ****         /** Accepts an incident wave into a WDF series adaptor. */
  93:./chowdsp_wdf/wdft/wdft_adaptors.h ****         inline void incident (T x) noexcept
  94:./chowdsp_wdf/wdft/wdft_adaptors.h ****         {
ARM GAS  /var/folders/yd/h_51qzcj4039f6rvxdz3lvym0000gn/T//cca9f80X.s 			page 60


  95:./chowdsp_wdf/wdft/wdft_adaptors.h ****             const auto b1 = port1.wdf.b - port1Reflect * (x + port1.wdf.b + port2.wdf.b);
  96:./chowdsp_wdf/wdft/wdft_adaptors.h ****             port1.incident (b1);
  97:./chowdsp_wdf/wdft/wdft_adaptors.h ****             port2.incident (-(x + b1));
  98:./chowdsp_wdf/wdft/wdft_adaptors.h **** 
  99:./chowdsp_wdf/wdft/wdft_adaptors.h ****             wdf.a = x;
 100:./chowdsp_wdf/wdft/wdft_adaptors.h ****         }
 101:./chowdsp_wdf/wdft/wdft_adaptors.h **** 
 102:./chowdsp_wdf/wdft/wdft_adaptors.h ****         /** Propogates a reflected wave from a WDF series adaptor. */
 103:./chowdsp_wdf/wdft/wdft_adaptors.h ****         inline T reflected() noexcept
 2048              		.loc 3 103 18 is_stmt 1 view .LVU439
 2049              	.LBB1536:
 104:./chowdsp_wdf/wdft/wdft_adaptors.h ****         {
 105:./chowdsp_wdf/wdft/wdft_adaptors.h ****             wdf.b = -(port1.reflected() + port2.reflected());
 2050              		.loc 3 105 23 is_stmt 0 view .LVU440
 2051 0004 406C     		ldr	r0, [r0, #68]
 2052              	.LVL122:
 2053              		.loc 3 105 38 view .LVU441
 2054 0006 0368     		ldr	r3, [r0]
 2055              	.LBE1536:
 2056              	.LBE1535:
  98:./chowdsp_wdf/wdf/wdf_base.h ****         {
 2057              		.loc 5 98 18 view .LVU442
 2058 0008 2DED028B 		vpush.64	{d8}
 2059              		.cfi_def_cfa_offset 16
 2060              		.cfi_offset 80, -16
 2061              		.cfi_offset 81, -12
 2062              	.LBB1539:
 2063              	.LBB1537:
 2064              		.loc 3 105 38 view .LVU443
 2065 000c 9B69     		ldr	r3, [r3, #24]
 2066 000e 9847     		blx	r3
 2067              	.LVL123:
 2068              		.loc 3 105 43 view .LVU444
 2069 0010 A06C     		ldr	r0, [r4, #72]
 2070              		.loc 3 105 38 view .LVU445
 2071 0012 B0EE408A 		vmov.f32	s16, s0
 2072              		.loc 3 105 58 view .LVU446
 2073 0016 0368     		ldr	r3, [r0]
 2074 0018 9B69     		ldr	r3, [r3, #24]
 2075 001a 9847     		blx	r3
 2076              	.LVL124:
 2077              		.loc 3 105 41 view .LVU447
 2078 001c 38EE000A 		vadd.f32	s0, s16, s0
 2079              	.LBE1537:
 2080              	.LBE1539:
 102:./chowdsp_wdf/wdf/wdf_base.h **** 
 2081              		.loc 5 102 9 view .LVU448
 2082 0020 BDEC028B 		vldm	sp!, {d8}
 2083              		.cfi_restore 80
 2084              		.cfi_restore 81
 2085              		.cfi_def_cfa_offset 8
 2086              	.LBB1540:
 2087              	.LBB1538:
 2088              		.loc 3 105 19 view .LVU449
 2089 0024 B1EE400A 		vneg.f32	s0, s0
 2090 0028 84ED160A 		vstr.32	s0, [r4, #88]
 2091              	.LVL125:
ARM GAS  /var/folders/yd/h_51qzcj4039f6rvxdz3lvym0000gn/T//cca9f80X.s 			page 61


 2092              		.loc 3 105 19 view .LVU450
 2093              	.LBE1538:
 2094              	.LBE1540:
 100:./chowdsp_wdf/wdf/wdf_base.h ****             return this->wdf.b;
 2095              		.loc 5 100 25 view .LVU451
 2096 002c 84ED060A 		vstr.32	s0, [r4, #24]
 102:./chowdsp_wdf/wdf/wdf_base.h **** 
 2097              		.loc 5 102 9 view .LVU452
 2098 0030 10BD     		pop	{r4, pc}
 102:./chowdsp_wdf/wdf/wdf_base.h **** 
 2099              		.loc 5 102 9 view .LVU453
 2100              		.cfi_endproc
 2101              	.LFE3294:
 2103 0032 00BF     		.section	.text._ZN7chowdsp3wdf10WDFWrapperIfNS_4wdft10DiodePairTIfNS0_3WDFIfEELNS2_12DiodeQualityE
 2104              		.align	1
 2105              		.p2align 2,,3
 2106              		.weak	_ZN7chowdsp3wdf10WDFWrapperIfNS_4wdft10DiodePairTIfNS0_3WDFIfEELNS2_12DiodeQualityE1ENS_5Ome
 2107              		.syntax unified
 2108              		.thumb
 2109              		.thumb_func
 2111              	_ZN7chowdsp3wdf10WDFWrapperIfNS_4wdft10DiodePairTIfNS0_3WDFIfEELNS2_12DiodeQualityE1ENS_5Omega5Omeg
 2112              	.LVL126:
 2113              	.LFB3332:
  98:./chowdsp_wdf/wdf/wdf_base.h ****         {
 2114              		.loc 5 98 18 is_stmt 1 view -0
 2115              		.cfi_startproc
 2116              		@ args = 0, pretend = 0, frame = 0
 2117              		@ frame_needed = 0, uses_anonymous_args = 0
 2118              		@ link register save eliminated.
 2119              	.LBB1613:
 2120              	.LBB1614:
 2121              	.LBB1615:
  70:./chowdsp_wdf/wdft/wdft_nonlinearities.h ****         }
  71:./chowdsp_wdf/wdft/wdft_nonlinearities.h **** 
  72:./chowdsp_wdf/wdft/wdft_nonlinearities.h ****         /** Propogates a reflected wave from a WDF diode pair. */
  73:./chowdsp_wdf/wdft/wdft_nonlinearities.h ****         inline T reflected() noexcept
  74:./chowdsp_wdf/wdft/wdft_nonlinearities.h ****         {
  75:./chowdsp_wdf/wdft/wdft_nonlinearities.h ****             reflectedInternal();
  76:./chowdsp_wdf/wdft/wdft_nonlinearities.h ****             return wdf.b;
  77:./chowdsp_wdf/wdft/wdft_nonlinearities.h ****         }
  78:./chowdsp_wdf/wdft/wdft_nonlinearities.h **** 
  79:./chowdsp_wdf/wdft/wdft_nonlinearities.h ****         WDFMembers<T> wdf;
  80:./chowdsp_wdf/wdft/wdft_nonlinearities.h **** 
  81:./chowdsp_wdf/wdft/wdft_nonlinearities.h ****     private:
  82:./chowdsp_wdf/wdft/wdft_nonlinearities.h ****         /** Implementation for float/double (Good). */
  83:./chowdsp_wdf/wdft/wdft_nonlinearities.h ****         template <typename C = T, DiodeQuality Q = Quality>
  84:./chowdsp_wdf/wdft/wdft_nonlinearities.h ****         inline typename std::enable_if<Q == Good, void>::type
  85:./chowdsp_wdf/wdft/wdft_nonlinearities.h ****             reflectedInternal() noexcept
  86:./chowdsp_wdf/wdft/wdft_nonlinearities.h ****         {
  87:./chowdsp_wdf/wdft/wdft_nonlinearities.h ****             // See eqn (18) from reference paper
  88:./chowdsp_wdf/wdft/wdft_nonlinearities.h ****             T lambda = (T) signum::signum (wdf.a);
  89:./chowdsp_wdf/wdft/wdft_nonlinearities.h ****             wdf.b = wdf.a + (T) 2 * lambda * (R_Is - Vt * OmegaProvider::omega (logR_Is_overVt + la
  90:./chowdsp_wdf/wdft/wdft_nonlinearities.h ****         }
  91:./chowdsp_wdf/wdft/wdft_nonlinearities.h **** 
  92:./chowdsp_wdf/wdft/wdft_nonlinearities.h ****         /** Implementation for float/double (Best). */
  93:./chowdsp_wdf/wdft/wdft_nonlinearities.h ****         template <typename C = T, DiodeQuality Q = Quality>
  94:./chowdsp_wdf/wdft/wdft_nonlinearities.h ****         inline typename std::enable_if<Q == Best, void>::type
ARM GAS  /var/folders/yd/h_51qzcj4039f6rvxdz3lvym0000gn/T//cca9f80X.s 			page 62


  95:./chowdsp_wdf/wdft/wdft_nonlinearities.h ****             reflectedInternal() noexcept
  96:./chowdsp_wdf/wdft/wdft_nonlinearities.h ****         {
  97:./chowdsp_wdf/wdft/wdft_nonlinearities.h ****             // See eqn (39) from reference paper
  98:./chowdsp_wdf/wdft/wdft_nonlinearities.h ****             T lambda = (T) signum::signum (wdf.a);
 2122              		.loc 6 98 43 is_stmt 0 view .LVU455
 2123 0000 90ED130A 		vldr.32	s0, [r0, #76]
 2124              	.LBB1616:
 2125              	.LBB1617:
 2126              	.LBB1618:
 2127              	.LBB1619:
 2128              	.LBB1620:
 2129              	.LBB1621:
 2130              		.file 8 "./chowdsp_wdf/wdft/../math/sample_type.h"
   1:./chowdsp_wdf/wdft/../math/sample_type.h **** #ifndef CHOWDSP_WDF_SAMPLE_TYPE_H
   2:./chowdsp_wdf/wdft/../math/sample_type.h **** #define CHOWDSP_WDF_SAMPLE_TYPE_H
   3:./chowdsp_wdf/wdft/../math/sample_type.h **** 
   4:./chowdsp_wdf/wdft/../math/sample_type.h **** #include <type_traits>
   5:./chowdsp_wdf/wdft/../math/sample_type.h **** 
   6:./chowdsp_wdf/wdft/../math/sample_type.h **** #ifndef DOXYGEN
   7:./chowdsp_wdf/wdft/../math/sample_type.h **** 
   8:./chowdsp_wdf/wdft/../math/sample_type.h **** namespace chowdsp
   9:./chowdsp_wdf/wdft/../math/sample_type.h **** {
  10:./chowdsp_wdf/wdft/../math/sample_type.h **** #if ! (JUCE_MODULE_AVAILABLE_chowdsp_dsp)
  11:./chowdsp_wdf/wdft/../math/sample_type.h **** /** Useful structs for determining the internal data type of SIMD types */
  12:./chowdsp_wdf/wdft/../math/sample_type.h **** namespace SampleTypeHelpers
  13:./chowdsp_wdf/wdft/../math/sample_type.h **** {
  14:./chowdsp_wdf/wdft/../math/sample_type.h ****     template <typename T, bool = std::is_floating_point<T>::value>
  15:./chowdsp_wdf/wdft/../math/sample_type.h ****     struct ElementType
  16:./chowdsp_wdf/wdft/../math/sample_type.h ****     {
  17:./chowdsp_wdf/wdft/../math/sample_type.h ****         using Type = T;
  18:./chowdsp_wdf/wdft/../math/sample_type.h ****     };
  19:./chowdsp_wdf/wdft/../math/sample_type.h **** 
  20:./chowdsp_wdf/wdft/../math/sample_type.h ****     template <typename T>
  21:./chowdsp_wdf/wdft/../math/sample_type.h ****     struct ElementType<T, false>
  22:./chowdsp_wdf/wdft/../math/sample_type.h ****     {
  23:./chowdsp_wdf/wdft/../math/sample_type.h ****         using Type = typename T::value_type;
  24:./chowdsp_wdf/wdft/../math/sample_type.h ****     };
  25:./chowdsp_wdf/wdft/../math/sample_type.h **** } // namespace SampleTypeHelpers
  26:./chowdsp_wdf/wdft/../math/sample_type.h **** #endif
  27:./chowdsp_wdf/wdft/../math/sample_type.h **** 
  28:./chowdsp_wdf/wdft/../math/sample_type.h **** /** Type alias for a SIMD numeric type */
  29:./chowdsp_wdf/wdft/../math/sample_type.h **** template <typename T>
  30:./chowdsp_wdf/wdft/../math/sample_type.h **** using NumericType = typename SampleTypeHelpers::ElementType<T>::Type;
  31:./chowdsp_wdf/wdft/../math/sample_type.h **** 
  32:./chowdsp_wdf/wdft/../math/sample_type.h **** /** Returns true if all the elements in a SIMD vector are equal */
  33:./chowdsp_wdf/wdft/../math/sample_type.h **** inline bool all (bool x)
  34:./chowdsp_wdf/wdft/../math/sample_type.h **** {
  35:./chowdsp_wdf/wdft/../math/sample_type.h ****     return x;
  36:./chowdsp_wdf/wdft/../math/sample_type.h **** }
  37:./chowdsp_wdf/wdft/../math/sample_type.h **** 
  38:./chowdsp_wdf/wdft/../math/sample_type.h **** /** Ternary select operation */
  39:./chowdsp_wdf/wdft/../math/sample_type.h **** template <typename T>
  40:./chowdsp_wdf/wdft/../math/sample_type.h **** inline T select (bool b, const T& t, const T& f)
  41:./chowdsp_wdf/wdft/../math/sample_type.h **** {
  42:./chowdsp_wdf/wdft/../math/sample_type.h ****     return b ? t : f;
 2131              		.loc 8 42 14 view .LVU456
 2132 0004 B2EE006A 		vmov.f32	s12, #8.0e+0
ARM GAS  /var/folders/yd/h_51qzcj4039f6rvxdz3lvym0000gn/T//cca9f80X.s 			page 63


 2133              	.LVL127:
 2134              		.loc 8 42 14 view .LVU457
 2135              	.LBE1621:
 2136              	.LBE1620:
 2137              	.LBE1619:
 2138              	.LBE1618:
 2139              	.LBE1617:
 2140              	.LBE1616:
 2141              	.LBE1615:
 2142              	.LBE1614:
 2143              	.LBI1613:
  73:./chowdsp_wdf/wdft/wdft_nonlinearities.h ****         {
 2144              		.loc 6 73 18 is_stmt 1 view .LVU458
 2145              	.LBB1879:
 2146              	.LBI1614:
  95:./chowdsp_wdf/wdft/wdft_nonlinearities.h ****         {
 2147              		.loc 6 95 13 view .LVU459
 2148              	.LBB1877:
 2149              	.LBB1741:
 2150              	.LBI1741:
 2151              		.file 9 "./chowdsp_wdf/wdft/../math/signum.h"
   1:./chowdsp_wdf/wdft/../math/signum.h **** #pragma once
   2:./chowdsp_wdf/wdft/../math/signum.h **** 
   3:./chowdsp_wdf/wdft/../math/signum.h **** namespace chowdsp
   4:./chowdsp_wdf/wdft/../math/signum.h **** {
   5:./chowdsp_wdf/wdft/../math/signum.h **** /** Methods for implementing the signum function */
   6:./chowdsp_wdf/wdft/../math/signum.h **** namespace signum
   7:./chowdsp_wdf/wdft/../math/signum.h **** {
   8:./chowdsp_wdf/wdft/../math/signum.h ****     /** Signum function to determine the sign of the input. */
   9:./chowdsp_wdf/wdft/../math/signum.h ****     template <typename T>
  10:./chowdsp_wdf/wdft/../math/signum.h ****     inline int signum (T val)
 2152              		.loc 9 10 16 view .LVU460
 2153              		.loc 9 10 16 is_stmt 0 view .LVU461
 2154              	.LBE1741:
  99:./chowdsp_wdf/wdft/wdft_nonlinearities.h ****             T lambda_a_over_vt = lambda * wdf.a * oneOverVt;
 2155              		.loc 6 99 15 view .LVU462
 2156 0008 D0ED187A 		vldr.32	s15, [r0, #96]
 2157              	.LBB1744:
 2158              	.LBB1742:
  11:./chowdsp_wdf/wdft/../math/signum.h ****     {
  12:./chowdsp_wdf/wdft/../math/signum.h ****         return (T (0) < val) - (val < T (0));
 2159              		.loc 9 12 23 view .LVU463
 2160 000c B5EEC00A 		vcmpe.f32	s0, #0
 2161              	.LBE1742:
 2162              	.LBE1744:
 100:./chowdsp_wdf/wdft/wdft_nonlinearities.h ****             wdf.b = wdf.a - twoVt * lambda * (Omega::omega4 (logR_Is_overVt + lambda_a_over_vt) - O
 2163              		.loc 6 100 62 view .LVU464
 2164 0010 D0ED1B4A 		vldr.32	s9, [r0, #108]
 2165              		.loc 6 100 35 view .LVU465
 2166 0014 D0ED176A 		vldr.32	s13, [r0, #92]
 2167              	.LBB1745:
 2168              	.LBB1743:
 2169              		.loc 9 12 23 view .LVU466
 2170 0018 F1EE10FA 		vmrs	APSR_nzcv, FPSCR
 2171 001c CCBF     		ite	gt
 2172 001e 0123     		movgt	r3, #1
 2173 0020 0023     		movle	r3, #0
ARM GAS  /var/folders/yd/h_51qzcj4039f6rvxdz3lvym0000gn/T//cca9f80X.s 			page 64


 2174              		.loc 9 12 37 view .LVU467
 2175 0022 4CBF     		ite	mi
 2176 0024 0122     		movmi	r2, #1
 2177 0026 0022     		movpl	r2, #0
 2178              		.loc 9 12 44 view .LVU468
 2179 0028 9B1A     		subs	r3, r3, r2
 2180              	.LBE1743:
 2181              	.LBE1745:
  98:./chowdsp_wdf/wdft/wdft_nonlinearities.h ****             T lambda_a_over_vt = lambda * wdf.a * oneOverVt;
 2182              		.loc 6 98 15 view .LVU469
 2183 002a 07EE103A 		vmov	s14, r3	@ int
 2184 002e B8EEC77A 		vcvt.f32.s32	s14, s14
 2185              	.LVL128:
  99:./chowdsp_wdf/wdft/wdft_nonlinearities.h ****             wdf.b = wdf.a - twoVt * lambda * (Omega::omega4 (logR_Is_overVt + lambda_a_over_vt) - O
 2186              		.loc 6 99 41 view .LVU470
 2187 0032 60EE075A 		vmul.f32	s11, s0, s14
 2188              		.loc 6 100 35 view .LVU471
 2189 0036 67EE266A 		vmul.f32	s13, s14, s13
  99:./chowdsp_wdf/wdft/wdft_nonlinearities.h ****             wdf.b = wdf.a - twoVt * lambda * (Omega::omega4 (logR_Is_overVt + lambda_a_over_vt) - O
 2190              		.loc 6 99 15 view .LVU472
 2191 003a 65EEA77A 		vmul.f32	s15, s11, s15
 2192              	.LVL129:
 2193              		.loc 6 100 61 view .LVU473
 2194 003e 37EEA47A 		vadd.f32	s14, s15, s9
 2195              	.LVL130:
 2196              	.LBB1746:
 2197              	.LBI1616:
 2198              		.file 10 "./chowdsp_wdf/wdft/../math/omega.h"
   1:./chowdsp_wdf/wdft/../math/omega.h **** /*
   2:./chowdsp_wdf/wdft/../math/omega.h ****  * Copyright (C) 2019 Stefano D'Angelo
   3:./chowdsp_wdf/wdft/../math/omega.h ****  *
   4:./chowdsp_wdf/wdft/../math/omega.h ****  * Permission is hereby granted, free of charge, to any person obtaining a copy
   5:./chowdsp_wdf/wdft/../math/omega.h ****  * of this software and associated documentation files (the "Software"), to deal
   6:./chowdsp_wdf/wdft/../math/omega.h ****  * in the Software without restriction, including without limitation the rights
   7:./chowdsp_wdf/wdft/../math/omega.h ****  * to use, copy, modify, merge, publish, distribute, sublicense, and/or sell
   8:./chowdsp_wdf/wdft/../math/omega.h ****  * copies of the Software, and to permit persons to whom the Software is
   9:./chowdsp_wdf/wdft/../math/omega.h ****  * furnished to do so, subject to the following conditions:
  10:./chowdsp_wdf/wdft/../math/omega.h ****  *
  11:./chowdsp_wdf/wdft/../math/omega.h ****  * The above copyright notice and this permission notice shall be included in
  12:./chowdsp_wdf/wdft/../math/omega.h ****  * all copies or substantial portions of the Software.
  13:./chowdsp_wdf/wdft/../math/omega.h ****  *
  14:./chowdsp_wdf/wdft/../math/omega.h ****  * THE SOFTWARE IS PROVIDED "AS IS", WITHOUT WARRANTY OF ANY KIND, EXPRESS OR
  15:./chowdsp_wdf/wdft/../math/omega.h ****  * IMPLIED, INCLUDING BUT NOT LIMITED TO THE WARRANTIES OF MERCHANTABILITY,
  16:./chowdsp_wdf/wdft/../math/omega.h ****  * FITNESS FOR A PARTICULAR PURPOSE AND NONINFRINGEMENT. IN NO EVENT SHALL THE
  17:./chowdsp_wdf/wdft/../math/omega.h ****  * AUTHORS OR COPYRIGHT HOLDERS BE LIABLE FOR ANY CLAIM, DAMAGES OR OTHER
  18:./chowdsp_wdf/wdft/../math/omega.h ****  * LIABILITY, WHETHER IN AN ACTION OF CONTRACT, TORT OR OTHERWISE, ARISING FROM,
  19:./chowdsp_wdf/wdft/../math/omega.h ****  * OUT OF OR IN CONNECTION WITH THE SOFTWARE OR THE USE OR OTHER DEALINGS IN
  20:./chowdsp_wdf/wdft/../math/omega.h ****  * THE SOFTWARE.
  21:./chowdsp_wdf/wdft/../math/omega.h ****  * 
  22:./chowdsp_wdf/wdft/../math/omega.h ****  * NOTE: code has been modified significantly by Jatin Chowdhury
  23:./chowdsp_wdf/wdft/../math/omega.h ****  */
  24:./chowdsp_wdf/wdft/../math/omega.h **** 
  25:./chowdsp_wdf/wdft/../math/omega.h **** #ifndef OMEGA_H_INCLUDED
  26:./chowdsp_wdf/wdft/../math/omega.h **** #define OMEGA_H_INCLUDED
  27:./chowdsp_wdf/wdft/../math/omega.h **** 
  28:./chowdsp_wdf/wdft/../math/omega.h **** #include <algorithm>
  29:./chowdsp_wdf/wdft/../math/omega.h **** #include <cstdint>
ARM GAS  /var/folders/yd/h_51qzcj4039f6rvxdz3lvym0000gn/T//cca9f80X.s 			page 65


  30:./chowdsp_wdf/wdft/../math/omega.h **** #include <cstddef>
  31:./chowdsp_wdf/wdft/../math/omega.h **** #include "sample_type.h"
  32:./chowdsp_wdf/wdft/../math/omega.h **** 
  33:./chowdsp_wdf/wdft/../math/omega.h **** namespace chowdsp
  34:./chowdsp_wdf/wdft/../math/omega.h **** {
  35:./chowdsp_wdf/wdft/../math/omega.h **** /**
  36:./chowdsp_wdf/wdft/../math/omega.h ****  * Useful approximations for evaluating the Wright Omega function.
  37:./chowdsp_wdf/wdft/../math/omega.h ****  *
  38:./chowdsp_wdf/wdft/../math/omega.h ****  * This approach was devloped by Stefano D'Angelo, and adapted from his
  39:./chowdsp_wdf/wdft/../math/omega.h ****  * original implementation under the MIT license.
  40:./chowdsp_wdf/wdft/../math/omega.h ****  * - Paper: https://www.dafx.de/paper-archive/2019/DAFx2019_paper_5.pdf
  41:./chowdsp_wdf/wdft/../math/omega.h ****  * - Original Source: https://www.dangelo.audio/dafx2019-omega.html
  42:./chowdsp_wdf/wdft/../math/omega.h ****  */
  43:./chowdsp_wdf/wdft/../math/omega.h **** namespace Omega
  44:./chowdsp_wdf/wdft/../math/omega.h **** {
  45:./chowdsp_wdf/wdft/../math/omega.h ****     /**
  46:./chowdsp_wdf/wdft/../math/omega.h ****      * Evaluates a polynomial of a given order, using Estrin's scheme.
  47:./chowdsp_wdf/wdft/../math/omega.h ****      * Coefficients should be given in the form { a_n, a_n-1, ..., a_1, a_0 }
  48:./chowdsp_wdf/wdft/../math/omega.h ****      * https://en.wikipedia.org/wiki/Estrin%27s_scheme
  49:./chowdsp_wdf/wdft/../math/omega.h ****      */
  50:./chowdsp_wdf/wdft/../math/omega.h ****     template <int ORDER, typename T, typename X>
  51:./chowdsp_wdf/wdft/../math/omega.h ****     inline typename std::enable_if<(ORDER == 1), decltype (T {} * X {})>::type estrin (const T (&co
  52:./chowdsp_wdf/wdft/../math/omega.h ****     {
  53:./chowdsp_wdf/wdft/../math/omega.h ****         return coeffs[1] + coeffs[0] * x;
  54:./chowdsp_wdf/wdft/../math/omega.h ****     }
  55:./chowdsp_wdf/wdft/../math/omega.h **** 
  56:./chowdsp_wdf/wdft/../math/omega.h ****     template <int ORDER, typename T, typename X>
  57:./chowdsp_wdf/wdft/../math/omega.h ****     inline typename std::enable_if<(ORDER > 1), decltype (T {} * X {})>::type estrin (const T (&coe
  58:./chowdsp_wdf/wdft/../math/omega.h ****     {
  59:./chowdsp_wdf/wdft/../math/omega.h ****         decltype (T {} * X {}) temp[ORDER / 2 + 1];
  60:./chowdsp_wdf/wdft/../math/omega.h ****         for (int n = ORDER; n >= 0; n -= 2)
  61:./chowdsp_wdf/wdft/../math/omega.h ****             temp[n / 2] = coeffs[n] + coeffs[n - 1] * x;
  62:./chowdsp_wdf/wdft/../math/omega.h **** 
  63:./chowdsp_wdf/wdft/../math/omega.h ****         temp[0] = (ORDER % 2 == 0) ? coeffs[0] : temp[0];
  64:./chowdsp_wdf/wdft/../math/omega.h **** 
  65:./chowdsp_wdf/wdft/../math/omega.h ****         return estrin<ORDER / 2> (temp, x * x); // recurse!
  66:./chowdsp_wdf/wdft/../math/omega.h ****     }
  67:./chowdsp_wdf/wdft/../math/omega.h **** 
  68:./chowdsp_wdf/wdft/../math/omega.h ****     /** approximation for log_2(x), optimized on the range [1, 2] */
  69:./chowdsp_wdf/wdft/../math/omega.h ****     template <typename T>
  70:./chowdsp_wdf/wdft/../math/omega.h ****     constexpr T log2_approx (T x)
  71:./chowdsp_wdf/wdft/../math/omega.h ****     {
  72:./chowdsp_wdf/wdft/../math/omega.h ****         constexpr auto alpha = (T) 0.1640425613334452;
  73:./chowdsp_wdf/wdft/../math/omega.h ****         constexpr auto beta = (T) -1.098865286222744;
  74:./chowdsp_wdf/wdft/../math/omega.h ****         constexpr auto gamma = (T) 3.148297929334117;
  75:./chowdsp_wdf/wdft/../math/omega.h ****         constexpr auto zeta = (T) -2.213475204444817;
  76:./chowdsp_wdf/wdft/../math/omega.h **** 
  77:./chowdsp_wdf/wdft/../math/omega.h ****         return estrin<3> ({ alpha, beta, gamma, zeta }, x);
  78:./chowdsp_wdf/wdft/../math/omega.h ****     }
  79:./chowdsp_wdf/wdft/../math/omega.h **** 
  80:./chowdsp_wdf/wdft/../math/omega.h **** #if defined(XSIMD_HPP)
  81:./chowdsp_wdf/wdft/../math/omega.h ****     /** approximation for log_2(x), optimized on the range [1, 2] */
  82:./chowdsp_wdf/wdft/../math/omega.h ****     template <typename T>
  83:./chowdsp_wdf/wdft/../math/omega.h ****     inline xsimd::batch<T> log2_approx (const xsimd::batch<T>& x)
  84:./chowdsp_wdf/wdft/../math/omega.h ****     {
  85:./chowdsp_wdf/wdft/../math/omega.h ****         static constexpr auto alpha = (NumericType<T>) 0.1640425613334452;
  86:./chowdsp_wdf/wdft/../math/omega.h ****         static constexpr auto beta = (NumericType<T>) -1.098865286222744;
ARM GAS  /var/folders/yd/h_51qzcj4039f6rvxdz3lvym0000gn/T//cca9f80X.s 			page 66


  87:./chowdsp_wdf/wdft/../math/omega.h ****         static constexpr auto gamma = (NumericType<T>) 3.148297929334117;
  88:./chowdsp_wdf/wdft/../math/omega.h ****         static constexpr auto zeta = (NumericType<T>) -2.213475204444817;
  89:./chowdsp_wdf/wdft/../math/omega.h **** 
  90:./chowdsp_wdf/wdft/../math/omega.h ****         return estrin<3> ({ alpha, beta, gamma, zeta }, x);
  91:./chowdsp_wdf/wdft/../math/omega.h ****     }
  92:./chowdsp_wdf/wdft/../math/omega.h **** #endif
  93:./chowdsp_wdf/wdft/../math/omega.h **** 
  94:./chowdsp_wdf/wdft/../math/omega.h ****     /** approximation for log(x) */
  95:./chowdsp_wdf/wdft/../math/omega.h ****     template <typename T>
  96:./chowdsp_wdf/wdft/../math/omega.h ****     constexpr T log_approx (T x);
  97:./chowdsp_wdf/wdft/../math/omega.h **** 
  98:./chowdsp_wdf/wdft/../math/omega.h ****     /** approximation for log(x) (32-bit) */
  99:./chowdsp_wdf/wdft/../math/omega.h ****     template <>
 100:./chowdsp_wdf/wdft/../math/omega.h ****     CHOWDSP_WDF_MAYBE_UNUSED constexpr float log_approx (float x)
 101:./chowdsp_wdf/wdft/../math/omega.h ****     {
 102:./chowdsp_wdf/wdft/../math/omega.h ****         union
 103:./chowdsp_wdf/wdft/../math/omega.h ****         {
 104:./chowdsp_wdf/wdft/../math/omega.h ****             int32_t i;
 105:./chowdsp_wdf/wdft/../math/omega.h ****             float f;
 106:./chowdsp_wdf/wdft/../math/omega.h ****         } v {};
 107:./chowdsp_wdf/wdft/../math/omega.h ****         v.f = x;
 108:./chowdsp_wdf/wdft/../math/omega.h ****         int32_t ex = v.i & 0x7f800000;
 109:./chowdsp_wdf/wdft/../math/omega.h ****         int32_t e = (ex >> 23) - 127;
 110:./chowdsp_wdf/wdft/../math/omega.h ****         v.i = (v.i - ex) | 0x3f800000;
 111:./chowdsp_wdf/wdft/../math/omega.h **** 
 112:./chowdsp_wdf/wdft/../math/omega.h ****         return 0.693147180559945f * ((float) e + log2_approx<float> (v.f));
 113:./chowdsp_wdf/wdft/../math/omega.h ****     }
 114:./chowdsp_wdf/wdft/../math/omega.h **** 
 115:./chowdsp_wdf/wdft/../math/omega.h ****     /** approximation for log(x) (64-bit) */
 116:./chowdsp_wdf/wdft/../math/omega.h ****     template <>
 117:./chowdsp_wdf/wdft/../math/omega.h ****     CHOWDSP_WDF_MAYBE_UNUSED constexpr double log_approx (double x)
 118:./chowdsp_wdf/wdft/../math/omega.h ****     {
 119:./chowdsp_wdf/wdft/../math/omega.h ****         union
 120:./chowdsp_wdf/wdft/../math/omega.h ****         {
 121:./chowdsp_wdf/wdft/../math/omega.h ****             int64_t i;
 122:./chowdsp_wdf/wdft/../math/omega.h ****             double d;
 123:./chowdsp_wdf/wdft/../math/omega.h ****         } v {};
 124:./chowdsp_wdf/wdft/../math/omega.h ****         v.d = x;
 125:./chowdsp_wdf/wdft/../math/omega.h ****         int64_t ex = v.i & 0x7ff0000000000000;
 126:./chowdsp_wdf/wdft/../math/omega.h ****         int64_t e = (ex >> 53) - 510;
 127:./chowdsp_wdf/wdft/../math/omega.h ****         v.i = (v.i - ex) | 0x3ff0000000000000;
 128:./chowdsp_wdf/wdft/../math/omega.h **** 
 129:./chowdsp_wdf/wdft/../math/omega.h ****         return 0.693147180559945 * ((double) e + log2_approx<double> (v.d));
 130:./chowdsp_wdf/wdft/../math/omega.h ****     }
 131:./chowdsp_wdf/wdft/../math/omega.h **** 
 132:./chowdsp_wdf/wdft/../math/omega.h **** #if defined(XSIMD_HPP)
 133:./chowdsp_wdf/wdft/../math/omega.h ****     /** approximation for log(x) (SIMD 32-bit) */
 134:./chowdsp_wdf/wdft/../math/omega.h ****     template <>
 135:./chowdsp_wdf/wdft/../math/omega.h ****     CHOWDSP_WDF_MAYBE_UNUSED inline xsimd::batch<float> log_approx (xsimd::batch<float> x)
 136:./chowdsp_wdf/wdft/../math/omega.h ****     {
 137:./chowdsp_wdf/wdft/../math/omega.h ****         union
 138:./chowdsp_wdf/wdft/../math/omega.h ****         {
 139:./chowdsp_wdf/wdft/../math/omega.h ****             xsimd::batch<int32_t> i;
 140:./chowdsp_wdf/wdft/../math/omega.h ****             xsimd::batch<float> f;
 141:./chowdsp_wdf/wdft/../math/omega.h ****         } v;
 142:./chowdsp_wdf/wdft/../math/omega.h ****         v.f = x;
 143:./chowdsp_wdf/wdft/../math/omega.h ****         xsimd::batch<int32_t> ex = v.i & 0x7f800000;
ARM GAS  /var/folders/yd/h_51qzcj4039f6rvxdz3lvym0000gn/T//cca9f80X.s 			page 67


 144:./chowdsp_wdf/wdft/../math/omega.h ****         xsimd::batch<float> e = xsimd::to_float ((ex >> 23) - 127);
 145:./chowdsp_wdf/wdft/../math/omega.h ****         v.i = (v.i - ex) | 0x3f800000;
 146:./chowdsp_wdf/wdft/../math/omega.h **** 
 147:./chowdsp_wdf/wdft/../math/omega.h ****         return 0.693147180559945f * (log2_approx<float> (v.f) + e);
 148:./chowdsp_wdf/wdft/../math/omega.h ****     }
 149:./chowdsp_wdf/wdft/../math/omega.h **** 
 150:./chowdsp_wdf/wdft/../math/omega.h ****     /** approximation for log(x) (64-bit) */
 151:./chowdsp_wdf/wdft/../math/omega.h ****     template <>
 152:./chowdsp_wdf/wdft/../math/omega.h ****     CHOWDSP_WDF_MAYBE_UNUSED inline xsimd::batch<double> log_approx (xsimd::batch<double> x)
 153:./chowdsp_wdf/wdft/../math/omega.h ****     {
 154:./chowdsp_wdf/wdft/../math/omega.h ****         union
 155:./chowdsp_wdf/wdft/../math/omega.h ****         {
 156:./chowdsp_wdf/wdft/../math/omega.h ****             xsimd::batch<int64_t> i;
 157:./chowdsp_wdf/wdft/../math/omega.h ****             xsimd::batch<double> d;
 158:./chowdsp_wdf/wdft/../math/omega.h ****         } v {};
 159:./chowdsp_wdf/wdft/../math/omega.h ****         v.d = x;
 160:./chowdsp_wdf/wdft/../math/omega.h ****         xsimd::batch<int64_t> ex = v.i & 0x7ff0000000000000;
 161:./chowdsp_wdf/wdft/../math/omega.h ****         xsimd::batch<double> e = xsimd::to_float ((ex >> 53) - 510);
 162:./chowdsp_wdf/wdft/../math/omega.h ****         v.i = (v.i - ex) | 0x3ff0000000000000;
 163:./chowdsp_wdf/wdft/../math/omega.h **** 
 164:./chowdsp_wdf/wdft/../math/omega.h ****         return 0.693147180559945 * (e + log2_approx<double> (v.d));
 165:./chowdsp_wdf/wdft/../math/omega.h ****     }
 166:./chowdsp_wdf/wdft/../math/omega.h **** #endif
 167:./chowdsp_wdf/wdft/../math/omega.h **** 
 168:./chowdsp_wdf/wdft/../math/omega.h ****     /** approximation for 2^x, optimized on the range [0, 1] */
 169:./chowdsp_wdf/wdft/../math/omega.h ****     template <typename T>
 170:./chowdsp_wdf/wdft/../math/omega.h ****     constexpr T pow2_approx (T x)
 171:./chowdsp_wdf/wdft/../math/omega.h ****     {
 172:./chowdsp_wdf/wdft/../math/omega.h ****         constexpr auto alpha = (T) 0.07944154167983575;
 173:./chowdsp_wdf/wdft/../math/omega.h ****         constexpr auto beta = (T) 0.2274112777602189;
 174:./chowdsp_wdf/wdft/../math/omega.h ****         constexpr auto gamma = (T) 0.6931471805599453;
 175:./chowdsp_wdf/wdft/../math/omega.h ****         constexpr auto zeta = (T) 1.0;
 176:./chowdsp_wdf/wdft/../math/omega.h **** 
 177:./chowdsp_wdf/wdft/../math/omega.h ****         return estrin<3> ({ alpha, beta, gamma, zeta }, x);
 178:./chowdsp_wdf/wdft/../math/omega.h ****     }
 179:./chowdsp_wdf/wdft/../math/omega.h **** 
 180:./chowdsp_wdf/wdft/../math/omega.h **** #if defined(XSIMD_HPP)
 181:./chowdsp_wdf/wdft/../math/omega.h ****     template <typename T>
 182:./chowdsp_wdf/wdft/../math/omega.h ****     inline xsimd::batch<T> pow2_approx (const xsimd::batch<T>& x)
 183:./chowdsp_wdf/wdft/../math/omega.h ****     {
 184:./chowdsp_wdf/wdft/../math/omega.h ****         static constexpr auto alpha = (NumericType<T>) 0.07944154167983575;
 185:./chowdsp_wdf/wdft/../math/omega.h ****         static constexpr auto beta = (NumericType<T>) 0.2274112777602189;
 186:./chowdsp_wdf/wdft/../math/omega.h ****         static constexpr auto gamma = (NumericType<T>) 0.6931471805599453;
 187:./chowdsp_wdf/wdft/../math/omega.h ****         static constexpr auto zeta = (NumericType<T>) 1.0;
 188:./chowdsp_wdf/wdft/../math/omega.h **** 
 189:./chowdsp_wdf/wdft/../math/omega.h ****         return estrin<3> ({ alpha, beta, gamma, zeta }, x);
 190:./chowdsp_wdf/wdft/../math/omega.h ****     }
 191:./chowdsp_wdf/wdft/../math/omega.h **** #endif
 192:./chowdsp_wdf/wdft/../math/omega.h **** 
 193:./chowdsp_wdf/wdft/../math/omega.h ****     /** approximation for exp(x) */
 194:./chowdsp_wdf/wdft/../math/omega.h ****     template <typename T>
 195:./chowdsp_wdf/wdft/../math/omega.h ****     T exp_approx (T x);
 196:./chowdsp_wdf/wdft/../math/omega.h **** 
 197:./chowdsp_wdf/wdft/../math/omega.h ****     /** approximation for exp(x) (32-bit) */
 198:./chowdsp_wdf/wdft/../math/omega.h ****     template <>
 199:./chowdsp_wdf/wdft/../math/omega.h ****     CHOWDSP_WDF_MAYBE_UNUSED constexpr float exp_approx (float x)
 200:./chowdsp_wdf/wdft/../math/omega.h ****     {
ARM GAS  /var/folders/yd/h_51qzcj4039f6rvxdz3lvym0000gn/T//cca9f80X.s 			page 68


 201:./chowdsp_wdf/wdft/../math/omega.h ****         x = std::max (-126.0f, 1.442695040888963f * x);
 202:./chowdsp_wdf/wdft/../math/omega.h **** 
 203:./chowdsp_wdf/wdft/../math/omega.h ****         union
 204:./chowdsp_wdf/wdft/../math/omega.h ****         {
 205:./chowdsp_wdf/wdft/../math/omega.h ****             int32_t i;
 206:./chowdsp_wdf/wdft/../math/omega.h ****             float f;
 207:./chowdsp_wdf/wdft/../math/omega.h ****         } v {};
 208:./chowdsp_wdf/wdft/../math/omega.h **** 
 209:./chowdsp_wdf/wdft/../math/omega.h ****         auto xi = (int32_t) x;
 210:./chowdsp_wdf/wdft/../math/omega.h ****         int32_t l = x < 0.0f ? xi - 1 : xi;
 211:./chowdsp_wdf/wdft/../math/omega.h ****         float f = x - (float) l;
 212:./chowdsp_wdf/wdft/../math/omega.h ****         v.i = (l + 127) << 23;
 213:./chowdsp_wdf/wdft/../math/omega.h **** 
 214:./chowdsp_wdf/wdft/../math/omega.h ****         return v.f * pow2_approx<float> (f);
 215:./chowdsp_wdf/wdft/../math/omega.h ****     }
 216:./chowdsp_wdf/wdft/../math/omega.h **** 
 217:./chowdsp_wdf/wdft/../math/omega.h ****     /** approximation for exp(x) (64-bit) */
 218:./chowdsp_wdf/wdft/../math/omega.h ****     template <>
 219:./chowdsp_wdf/wdft/../math/omega.h ****     CHOWDSP_WDF_MAYBE_UNUSED constexpr double exp_approx (double x)
 220:./chowdsp_wdf/wdft/../math/omega.h ****     {
 221:./chowdsp_wdf/wdft/../math/omega.h ****         x = std::max ((double) -126.0, 1.442695040888963 * x);
 222:./chowdsp_wdf/wdft/../math/omega.h **** 
 223:./chowdsp_wdf/wdft/../math/omega.h ****         union
 224:./chowdsp_wdf/wdft/../math/omega.h ****         {
 225:./chowdsp_wdf/wdft/../math/omega.h ****             int64_t i;
 226:./chowdsp_wdf/wdft/../math/omega.h ****             double d;
 227:./chowdsp_wdf/wdft/../math/omega.h ****         } v {};
 228:./chowdsp_wdf/wdft/../math/omega.h **** 
 229:./chowdsp_wdf/wdft/../math/omega.h ****         auto xi = (int64_t) x;
 230:./chowdsp_wdf/wdft/../math/omega.h ****         int64_t l = x < 0.0 ? xi - 1 : xi;
 231:./chowdsp_wdf/wdft/../math/omega.h ****         double d = x - (double) l;
 232:./chowdsp_wdf/wdft/../math/omega.h ****         v.i = (l + 1023) << 52;
 233:./chowdsp_wdf/wdft/../math/omega.h **** 
 234:./chowdsp_wdf/wdft/../math/omega.h ****         return v.d * pow2_approx<double> (d);
 235:./chowdsp_wdf/wdft/../math/omega.h ****     }
 236:./chowdsp_wdf/wdft/../math/omega.h **** 
 237:./chowdsp_wdf/wdft/../math/omega.h **** #if defined(XSIMD_HPP)
 238:./chowdsp_wdf/wdft/../math/omega.h ****     /** approximation for exp(x) (32-bit) */
 239:./chowdsp_wdf/wdft/../math/omega.h ****     template <>
 240:./chowdsp_wdf/wdft/../math/omega.h ****     CHOWDSP_WDF_MAYBE_UNUSED inline xsimd::batch<float> exp_approx (xsimd::batch<float> x)
 241:./chowdsp_wdf/wdft/../math/omega.h ****     {
 242:./chowdsp_wdf/wdft/../math/omega.h ****         x = xsimd::max (xsimd::broadcast (-126.0f), 1.442695040888963f * x);
 243:./chowdsp_wdf/wdft/../math/omega.h **** 
 244:./chowdsp_wdf/wdft/../math/omega.h ****         union
 245:./chowdsp_wdf/wdft/../math/omega.h ****         {
 246:./chowdsp_wdf/wdft/../math/omega.h ****             xsimd::batch<int32_t> i;
 247:./chowdsp_wdf/wdft/../math/omega.h ****             xsimd::batch<float> f;
 248:./chowdsp_wdf/wdft/../math/omega.h ****         } v {};
 249:./chowdsp_wdf/wdft/../math/omega.h **** 
 250:./chowdsp_wdf/wdft/../math/omega.h ****         auto xi = xsimd::to_int (x);
 251:./chowdsp_wdf/wdft/../math/omega.h ****         xsimd::batch<int32_t> l = xsimd::select (xi < 0, xi - 1, xi);
 252:./chowdsp_wdf/wdft/../math/omega.h ****         xsimd::batch<float> f = x - xsimd::to_float (l);
 253:./chowdsp_wdf/wdft/../math/omega.h ****         v.i = (l + 127) << 23;
 254:./chowdsp_wdf/wdft/../math/omega.h **** 
 255:./chowdsp_wdf/wdft/../math/omega.h ****         return v.f * pow2_approx<float> (f);
 256:./chowdsp_wdf/wdft/../math/omega.h ****     }
 257:./chowdsp_wdf/wdft/../math/omega.h **** 
ARM GAS  /var/folders/yd/h_51qzcj4039f6rvxdz3lvym0000gn/T//cca9f80X.s 			page 69


 258:./chowdsp_wdf/wdft/../math/omega.h ****     /** approximation for exp(x) (64-bit) */
 259:./chowdsp_wdf/wdft/../math/omega.h ****     template <>
 260:./chowdsp_wdf/wdft/../math/omega.h ****     CHOWDSP_WDF_MAYBE_UNUSED inline xsimd::batch<double> exp_approx (xsimd::batch<double> x)
 261:./chowdsp_wdf/wdft/../math/omega.h ****     {
 262:./chowdsp_wdf/wdft/../math/omega.h ****         x = xsimd::max (xsimd::broadcast (-126.0), 1.442695040888963 * x);
 263:./chowdsp_wdf/wdft/../math/omega.h **** 
 264:./chowdsp_wdf/wdft/../math/omega.h ****         union
 265:./chowdsp_wdf/wdft/../math/omega.h ****         {
 266:./chowdsp_wdf/wdft/../math/omega.h ****             xsimd::batch<int64_t> i;
 267:./chowdsp_wdf/wdft/../math/omega.h ****             xsimd::batch<double> d;
 268:./chowdsp_wdf/wdft/../math/omega.h ****         } v {};
 269:./chowdsp_wdf/wdft/../math/omega.h **** 
 270:./chowdsp_wdf/wdft/../math/omega.h ****         auto xi = xsimd::to_int (x);
 271:./chowdsp_wdf/wdft/../math/omega.h ****         xsimd::batch<int64_t> l = xsimd::select (xi < 0, xi - 1, xi);
 272:./chowdsp_wdf/wdft/../math/omega.h ****         xsimd::batch<double> d = x - xsimd::to_float (l);
 273:./chowdsp_wdf/wdft/../math/omega.h ****         v.i = (l + 1023) << 52;
 274:./chowdsp_wdf/wdft/../math/omega.h **** 
 275:./chowdsp_wdf/wdft/../math/omega.h ****         return v.d * pow2_approx<double> (d);
 276:./chowdsp_wdf/wdft/../math/omega.h ****     }
 277:./chowdsp_wdf/wdft/../math/omega.h **** #endif
 278:./chowdsp_wdf/wdft/../math/omega.h **** 
 279:./chowdsp_wdf/wdft/../math/omega.h ****     /** First-order approximation of the Wright Omega functions */
 280:./chowdsp_wdf/wdft/../math/omega.h ****     template <typename T>
 281:./chowdsp_wdf/wdft/../math/omega.h ****     constexpr T omega1 (T x)
 282:./chowdsp_wdf/wdft/../math/omega.h ****     {
 283:./chowdsp_wdf/wdft/../math/omega.h **** #if defined(XSIMD_HPP)
 284:./chowdsp_wdf/wdft/../math/omega.h ****         using xsimd::max;
 285:./chowdsp_wdf/wdft/../math/omega.h **** #endif
 286:./chowdsp_wdf/wdft/../math/omega.h ****         using std::max;
 287:./chowdsp_wdf/wdft/../math/omega.h **** 
 288:./chowdsp_wdf/wdft/../math/omega.h ****         return max (x, (T) 0);
 289:./chowdsp_wdf/wdft/../math/omega.h ****     }
 290:./chowdsp_wdf/wdft/../math/omega.h **** 
 291:./chowdsp_wdf/wdft/../math/omega.h ****     /** Second-order approximation of the Wright Omega functions */
 292:./chowdsp_wdf/wdft/../math/omega.h ****     template <typename T>
 293:./chowdsp_wdf/wdft/../math/omega.h ****     constexpr T omega2 (T x)
 294:./chowdsp_wdf/wdft/../math/omega.h ****     {
 295:./chowdsp_wdf/wdft/../math/omega.h ****         constexpr auto x1 = (NumericType<T>) -3.684303659906469;
 296:./chowdsp_wdf/wdft/../math/omega.h ****         constexpr auto x2 = (NumericType<T>) 1.972967391708859;
 297:./chowdsp_wdf/wdft/../math/omega.h ****         constexpr auto a = (NumericType<T>) 9.451797158780131e-3;
 298:./chowdsp_wdf/wdft/../math/omega.h ****         constexpr auto b = (NumericType<T>) 1.126446405111627e-1;
 299:./chowdsp_wdf/wdft/../math/omega.h ****         constexpr auto c = (NumericType<T>) 4.451353886588814e-1;
 300:./chowdsp_wdf/wdft/../math/omega.h ****         constexpr auto d = (NumericType<T>) 5.836596684310648e-1;
 301:./chowdsp_wdf/wdft/../math/omega.h **** 
 302:./chowdsp_wdf/wdft/../math/omega.h ****         return select (x < x1, (T) 0, select (x > x2, x, estrin<3> ({ a, b, c, d }, x)));
 303:./chowdsp_wdf/wdft/../math/omega.h ****     }
 304:./chowdsp_wdf/wdft/../math/omega.h **** 
 305:./chowdsp_wdf/wdft/../math/omega.h ****     /** Third-order approximation of the Wright Omega functions */
 306:./chowdsp_wdf/wdft/../math/omega.h ****     template <typename T>
 307:./chowdsp_wdf/wdft/../math/omega.h ****     constexpr T omega3 (T x)
 308:./chowdsp_wdf/wdft/../math/omega.h ****     {
 309:./chowdsp_wdf/wdft/../math/omega.h ****         constexpr auto x1 = (NumericType<T>) -3.341459552768620;
 310:./chowdsp_wdf/wdft/../math/omega.h ****         constexpr auto x2 = (NumericType<T>) 8.0;
 311:./chowdsp_wdf/wdft/../math/omega.h ****         constexpr auto a = (NumericType<T>) -1.314293149877800e-3;
 312:./chowdsp_wdf/wdft/../math/omega.h ****         constexpr auto b = (NumericType<T>) 4.775931364975583e-2;
 313:./chowdsp_wdf/wdft/../math/omega.h ****         constexpr auto c = (NumericType<T>) 3.631952663804445e-1;
 314:./chowdsp_wdf/wdft/../math/omega.h ****         constexpr auto d = (NumericType<T>) 6.313183464296682e-1;
ARM GAS  /var/folders/yd/h_51qzcj4039f6rvxdz3lvym0000gn/T//cca9f80X.s 			page 70


 315:./chowdsp_wdf/wdft/../math/omega.h **** 
 316:./chowdsp_wdf/wdft/../math/omega.h ****         return select (x < x1, (T) 0, select (x < x2, estrin<3> ({ a, b, c, d }, x), x - log_approx
 317:./chowdsp_wdf/wdft/../math/omega.h ****     }
 318:./chowdsp_wdf/wdft/../math/omega.h **** 
 319:./chowdsp_wdf/wdft/../math/omega.h ****     /** Fourth-order approximation of the Wright Omega functions */
 320:./chowdsp_wdf/wdft/../math/omega.h ****     template <typename T>
 321:./chowdsp_wdf/wdft/../math/omega.h ****     constexpr T omega4 (T x)
 2199              		.loc 10 321 17 is_stmt 1 view .LVU474
 2200              	.LBB1736:
 2201              	.LBB1675:
 2202              	.LBI1618:
 307:./chowdsp_wdf/wdft/../math/omega.h ****     {
 2203              		.loc 10 307 17 view .LVU475
 2204              	.LBB1673:
 2205              	.LBB1623:
 2206              	.LBI1623:
  57:./chowdsp_wdf/wdft/../math/omega.h ****     {
 2207              		.loc 10 57 79 view .LVU476
 2208              	.LBB1624:
 2209              	.LBB1625:
  60:./chowdsp_wdf/wdft/../math/omega.h ****             temp[n / 2] = coeffs[n] + coeffs[n - 1] * x;
 2210              		.loc 10 60 31 view .LVU477
  60:./chowdsp_wdf/wdft/../math/omega.h ****             temp[n / 2] = coeffs[n] + coeffs[n - 1] * x;
 2211              		.loc 10 60 9 view .LVU478
  60:./chowdsp_wdf/wdft/../math/omega.h ****             temp[n / 2] = coeffs[n] + coeffs[n - 1] * x;
 2212              		.loc 10 60 31 view .LVU479
  60:./chowdsp_wdf/wdft/../math/omega.h ****             temp[n / 2] = coeffs[n] + coeffs[n - 1] * x;
 2213              		.loc 10 60 9 view .LVU480
  60:./chowdsp_wdf/wdft/../math/omega.h ****             temp[n / 2] = coeffs[n] + coeffs[n - 1] * x;
 2214              		.loc 10 60 31 view .LVU481
  60:./chowdsp_wdf/wdft/../math/omega.h ****             temp[n / 2] = coeffs[n] + coeffs[n - 1] * x;
 2215              		.loc 10 60 31 is_stmt 0 view .LVU482
 2216              	.LBE1625:
 2217              	.LBB1626:
 2218              	.LBI1626:
  51:./chowdsp_wdf/wdft/../math/omega.h ****     {
 2219              		.loc 10 51 80 is_stmt 1 view .LVU483
  51:./chowdsp_wdf/wdft/../math/omega.h ****     {
 2220              		.loc 10 51 80 is_stmt 0 view .LVU484
 2221              	.LBE1626:
 2222              	.LBE1624:
 2223              	.LBE1623:
 2224              	.LBB1632:
 2225              	.LBI1632:
 100:./chowdsp_wdf/wdft/../math/omega.h ****     {
 2226              		.loc 10 100 46 is_stmt 1 view .LVU485
 2227              	.LBB1633:
 102:./chowdsp_wdf/wdft/../math/omega.h ****         {
 2228              		.loc 10 102 9 view .LVU486
 107:./chowdsp_wdf/wdft/../math/omega.h ****         int32_t ex = v.i & 0x7f800000;
 2229              		.loc 10 107 9 view .LVU487
 108:./chowdsp_wdf/wdft/../math/omega.h ****         int32_t e = (ex >> 23) - 127;
 2230              		.loc 10 108 9 view .LVU488
 109:./chowdsp_wdf/wdft/../math/omega.h ****         v.i = (v.i - ex) | 0x3f800000;
 2231              		.loc 10 109 9 view .LVU489
 110:./chowdsp_wdf/wdft/../math/omega.h **** 
 2232              		.loc 10 110 9 view .LVU490
ARM GAS  /var/folders/yd/h_51qzcj4039f6rvxdz3lvym0000gn/T//cca9f80X.s 			page 71


 112:./chowdsp_wdf/wdft/../math/omega.h ****     }
 2233              		.loc 10 112 9 view .LVU491
 2234              	.LBB1634:
 2235              	.LBI1634:
  70:./chowdsp_wdf/wdft/../math/omega.h ****     {
 2236              		.loc 10 70 17 view .LVU492
 2237              	.LBB1635:
 2238              	.LBB1636:
 2239              	.LBI1636:
  57:./chowdsp_wdf/wdft/../math/omega.h ****     {
 2240              		.loc 10 57 79 view .LVU493
 2241              	.LBB1637:
 2242              	.LBB1638:
  60:./chowdsp_wdf/wdft/../math/omega.h ****             temp[n / 2] = coeffs[n] + coeffs[n - 1] * x;
 2243              		.loc 10 60 31 view .LVU494
  60:./chowdsp_wdf/wdft/../math/omega.h ****             temp[n / 2] = coeffs[n] + coeffs[n - 1] * x;
 2244              		.loc 10 60 9 view .LVU495
  60:./chowdsp_wdf/wdft/../math/omega.h ****             temp[n / 2] = coeffs[n] + coeffs[n - 1] * x;
 2245              		.loc 10 60 31 view .LVU496
  60:./chowdsp_wdf/wdft/../math/omega.h ****             temp[n / 2] = coeffs[n] + coeffs[n - 1] * x;
 2246              		.loc 10 60 9 view .LVU497
  60:./chowdsp_wdf/wdft/../math/omega.h ****             temp[n / 2] = coeffs[n] + coeffs[n - 1] * x;
 2247              		.loc 10 60 31 view .LVU498
  60:./chowdsp_wdf/wdft/../math/omega.h ****             temp[n / 2] = coeffs[n] + coeffs[n - 1] * x;
 2248              		.loc 10 60 31 is_stmt 0 view .LVU499
 2249              	.LBE1638:
 2250              	.LBB1639:
 2251              	.LBI1639:
  51:./chowdsp_wdf/wdft/../math/omega.h ****     {
 2252              		.loc 10 51 80 is_stmt 1 view .LVU500
  51:./chowdsp_wdf/wdft/../math/omega.h ****     {
 2253              		.loc 10 51 80 is_stmt 0 view .LVU501
 2254              	.LBE1639:
 2255              	.LBE1637:
 2256              	.LBE1636:
 2257              	.LBE1635:
 2258              	.LBE1634:
 2259              	.LBE1633:
 2260              	.LBE1632:
 2261              	.LBB1664:
 2262              	.LBI1620:
  40:./chowdsp_wdf/wdft/../math/sample_type.h **** {
 2263              		.loc 8 40 10 is_stmt 1 view .LVU502
 2264              	.LBB1622:
 2265              		.loc 8 42 14 is_stmt 0 view .LVU503
 2266 0042 B4EEC67A 		vcmpe.f32	s14, s12
 2267 0046 F1EE10FA 		vmrs	APSR_nzcv, FPSCR
 2268 004a 40F1C680 		bpl	.L107
 2269              	.LBE1622:
 2270              	.LBE1664:
 2271              	.LBB1665:
 2272              	.LBB1631:
 2273              	.LBB1628:
  61:./chowdsp_wdf/wdft/../math/omega.h **** 
 2274              		.loc 10 61 37 view .LVU504
 2275 004e DFEDAD5A 		vldr.32	s11, .L114
 2276 0052 9FEDAD6A 		vldr.32	s12, .L114+4
ARM GAS  /var/folders/yd/h_51qzcj4039f6rvxdz3lvym0000gn/T//cca9f80X.s 			page 72


 2277 0056 9FEDAD4A 		vldr.32	s8, .L114+8
 2278 005a 9FEDAD5A 		vldr.32	s10, .L114+12
 2279 005e A7EE256A 		vfma.f32	s12, s14, s11
 2280              	.LBE1628:
  65:./chowdsp_wdf/wdft/../math/omega.h ****     }
 2281              		.loc 10 65 43 view .LVU505
 2282 0062 67EE075A 		vmul.f32	s11, s14, s14
 2283              	.LBB1629:
  61:./chowdsp_wdf/wdft/../math/omega.h **** 
 2284              		.loc 10 61 37 view .LVU506
 2285 0066 A7EE045A 		vfma.f32	s10, s14, s8
 2286              	.LBE1629:
 2287              	.LBB1630:
 2288              	.LBB1627:
  53:./chowdsp_wdf/wdft/../math/omega.h ****     }
 2289              		.loc 10 53 40 view .LVU507
 2290 006a A5EE865A 		vfma.f32	s10, s11, s12
 2291              	.LVL131:
 2292              	.L85:
  53:./chowdsp_wdf/wdft/../math/omega.h ****     }
 2293              		.loc 10 53 40 view .LVU508
 2294              	.LBE1627:
 2295              	.LBE1630:
 2296              	.LBE1631:
 2297              	.LBE1665:
 2298              	.LBB1666:
 2299              	.LBI1666:
  40:./chowdsp_wdf/wdft/../math/sample_type.h **** {
 2300              		.loc 8 40 10 is_stmt 1 view .LVU509
 2301              	.LBB1667:
 2302              		.loc 8 42 14 is_stmt 0 view .LVU510
 2303 006e 9FEDA96A 		vldr.32	s12, .L114+16
 2304 0072 B7EE004A 		vmov.f32	s8, #1.0e+0
 2305 0076 B4EEC67A 		vcmpe.f32	s14, s12
 2306 007a F1EE10FA 		vmrs	APSR_nzcv, FPSCR
 2307 007e 00F1A980 		bmi	.L99
 2308              	.LBE1667:
 2309              	.LBE1666:
 2310              	.LBE1673:
 2311              	.LBE1675:
 322:./chowdsp_wdf/wdft/../math/omega.h ****     {
 323:./chowdsp_wdf/wdft/../math/omega.h ****         const auto y = omega3<T> (x);
 324:./chowdsp_wdf/wdft/../math/omega.h ****         return y - (y - exp_approx<T> (x - y)) / (y + (T) 1);
 2312              		.loc 10 324 39 view .LVU511
 2313 0082 37EE457A 		vsub.f32	s14, s14, s10
 2314              	.LVL132:
 2315              		.loc 10 324 53 view .LVU512
 2316 0086 35EE044A 		vadd.f32	s8, s10, s8
 2317              	.L86:
 2318              	.LVL133:
 2319              	.LBB1676:
 2320              	.LBI1676:
 199:./chowdsp_wdf/wdft/../math/omega.h ****     {
 2321              		.loc 10 199 46 is_stmt 1 view .LVU513
 2322              	.LBB1677:
 201:./chowdsp_wdf/wdft/../math/omega.h **** 
 2323              		.loc 10 201 9 view .LVU514
ARM GAS  /var/folders/yd/h_51qzcj4039f6rvxdz3lvym0000gn/T//cca9f80X.s 			page 73


 201:./chowdsp_wdf/wdft/../math/omega.h **** 
 2324              		.loc 10 201 51 is_stmt 0 view .LVU515
 2325 008a DFEDA35A 		vldr.32	s11, .L114+20
 2326              	.LBB1678:
 2327              	.LBB1679:
 2328              		.file 11 "/Library/DaisyToolchain/0.2.0/arm/arm-none-eabi/include/c++/10.3.1/bits/stl_algobase.h"
   1:/Library/DaisyToolchain/0.2.0/arm/arm-none-eabi/include/c++/10.3.1/bits/stl_algobase.h **** // Core algorithmic facilities -*- C++ -*-
   2:/Library/DaisyToolchain/0.2.0/arm/arm-none-eabi/include/c++/10.3.1/bits/stl_algobase.h **** 
   3:/Library/DaisyToolchain/0.2.0/arm/arm-none-eabi/include/c++/10.3.1/bits/stl_algobase.h **** // Copyright (C) 2001-2020 Free Software Foundation, Inc.
   4:/Library/DaisyToolchain/0.2.0/arm/arm-none-eabi/include/c++/10.3.1/bits/stl_algobase.h **** //
   5:/Library/DaisyToolchain/0.2.0/arm/arm-none-eabi/include/c++/10.3.1/bits/stl_algobase.h **** // This file is part of the GNU ISO C++ Library.  This library is free
   6:/Library/DaisyToolchain/0.2.0/arm/arm-none-eabi/include/c++/10.3.1/bits/stl_algobase.h **** // software; you can redistribute it and/or modify it under the
   7:/Library/DaisyToolchain/0.2.0/arm/arm-none-eabi/include/c++/10.3.1/bits/stl_algobase.h **** // terms of the GNU General Public License as published by the
   8:/Library/DaisyToolchain/0.2.0/arm/arm-none-eabi/include/c++/10.3.1/bits/stl_algobase.h **** // Free Software Foundation; either version 3, or (at your option)
