ARM GAS  /var/folders/yd/h_51qzcj4039f6rvxdz3lvym0000gn/T//ccKvYnDW.s 			page 1


   1              		.cpu cortex-m7
   2              		.arch armv7e-m
   3              		.fpu fpv5-d16
   4              		.eabi_attribute 28, 1
   5              		.eabi_attribute 20, 1
   6              		.eabi_attribute 21, 1
   7              		.eabi_attribute 23, 3
   8              		.eabi_attribute 24, 1
   9              		.eabi_attribute 25, 1
  10              		.eabi_attribute 26, 1
  11              		.eabi_attribute 30, 2
  12              		.eabi_attribute 34, 1
  13              		.eabi_attribute 18, 4
  14              		.file	"main.cpp"
  15              		.text
  16              	.Ltext0:
  17              		.cfi_sections	.debug_frame
  18              		.section	.text._ZN5daisy9DaisySeedD2Ev,"axG",%progbits,_ZN5daisy9DaisySeedD5Ev,comdat
  19              		.align	1
  20              		.p2align 2,,3
  21              		.weak	_ZN5daisy9DaisySeedD2Ev
  22              		.syntax unified
  23              		.thumb
  24              		.thumb_func
  26              	_ZN5daisy9DaisySeedD2Ev:
  27              	.LVL0:
  28              	.LFB2556:
  29              		.file 1 "../../libDaisy/src/daisy_seed.h"
   1:../../libDaisy/src/daisy_seed.h **** #pragma once
   2:../../libDaisy/src/daisy_seed.h **** #ifndef DSY_SEED_H
   3:../../libDaisy/src/daisy_seed.h **** #define DSY_SEED_H
   4:../../libDaisy/src/daisy_seed.h **** 
   5:../../libDaisy/src/daisy_seed.h **** #include "daisy.h"
   6:../../libDaisy/src/daisy_seed.h **** 
   7:../../libDaisy/src/daisy_seed.h **** //Uncomment this out if you're still using the rev2 hardware
   8:../../libDaisy/src/daisy_seed.h **** //#define SEED_REV2
   9:../../libDaisy/src/daisy_seed.h **** 
  10:../../libDaisy/src/daisy_seed.h **** namespace daisy
  11:../../libDaisy/src/daisy_seed.h **** {
  12:../../libDaisy/src/daisy_seed.h **** /**
  13:../../libDaisy/src/daisy_seed.h ****    @brief This is the higher-level interface for the Daisy board. \n 
  14:../../libDaisy/src/daisy_seed.h ****     All basic peripheral configuration/initialization is setup here. \n
  15:../../libDaisy/src/daisy_seed.h **** 
  16:../../libDaisy/src/daisy_seed.h ****    @ingroup boards
  17:../../libDaisy/src/daisy_seed.h **** */
  18:../../libDaisy/src/daisy_seed.h **** class DaisySeed
  19:../../libDaisy/src/daisy_seed.h **** {
  20:../../libDaisy/src/daisy_seed.h ****   public:
  21:../../libDaisy/src/daisy_seed.h ****     DaisySeed() {}
  22:../../libDaisy/src/daisy_seed.h ****     ~DaisySeed() {}
  30              		.loc 1 22 5 view -0
  31              		.cfi_startproc
  32              		@ args = 0, pretend = 0, frame = 0
  33              		@ frame_needed = 0, uses_anonymous_args = 0
  34              		@ link register save eliminated.
  35              	.LBB1239:
  36              	.LBI1239:
ARM GAS  /var/folders/yd/h_51qzcj4039f6rvxdz3lvym0000gn/T//ccKvYnDW.s 			page 2


  37              		.file 2 "../../libDaisy/src/sys/system.h"
   1:../../libDaisy/src/sys/system.h **** #ifndef DSY_SYSTEM_H
   2:../../libDaisy/src/sys/system.h **** #define DSY_SYSTEM_H
   3:../../libDaisy/src/sys/system.h **** 
   4:../../libDaisy/src/sys/system.h **** #ifndef UNIT_TEST // for unit tests, a dummy implementation is provided below
   5:../../libDaisy/src/sys/system.h **** 
   6:../../libDaisy/src/sys/system.h **** #include <cstdint>
   7:../../libDaisy/src/sys/system.h **** #include "per/tim.h"
   8:../../libDaisy/src/sys/system.h **** 
   9:../../libDaisy/src/sys/system.h **** namespace daisy
  10:../../libDaisy/src/sys/system.h **** {
  11:../../libDaisy/src/sys/system.h **** /** A handle for interacting with the Core System.
  12:../../libDaisy/src/sys/system.h ****  ** This includes the Clock tree, MPU, global DMA initialization,
  13:../../libDaisy/src/sys/system.h ****  ** cache handling, and any other necessary global initiailzation
  14:../../libDaisy/src/sys/system.h ****  **
  15:../../libDaisy/src/sys/system.h ****  ** @author shensley
  16:../../libDaisy/src/sys/system.h ****  ** @ingroup system
  17:../../libDaisy/src/sys/system.h ****  */
  18:../../libDaisy/src/sys/system.h **** class System
  19:../../libDaisy/src/sys/system.h **** {
  20:../../libDaisy/src/sys/system.h ****   public:
  21:../../libDaisy/src/sys/system.h ****     /** Contains settings for initializing the System */
  22:../../libDaisy/src/sys/system.h ****     struct Config
  23:../../libDaisy/src/sys/system.h ****     {
  24:../../libDaisy/src/sys/system.h ****         /** Specifies the system clock frequency that feeds APB/AHB clocks, etc. */
  25:../../libDaisy/src/sys/system.h ****         enum class SysClkFreq
  26:../../libDaisy/src/sys/system.h ****         {
  27:../../libDaisy/src/sys/system.h ****             FREQ_400MHZ,
  28:../../libDaisy/src/sys/system.h ****             FREQ_480MHZ,
  29:../../libDaisy/src/sys/system.h ****         };
  30:../../libDaisy/src/sys/system.h **** 
  31:../../libDaisy/src/sys/system.h ****         /** Method to call on the struct to set to defaults
  32:../../libDaisy/src/sys/system.h ****          ** CPU Freq set to 400MHz
  33:../../libDaisy/src/sys/system.h ****          ** Cache Enabled
  34:../../libDaisy/src/sys/system.h ****          ** */
  35:../../libDaisy/src/sys/system.h ****         void Defaults()
  36:../../libDaisy/src/sys/system.h ****         {
  37:../../libDaisy/src/sys/system.h ****             cpu_freq    = SysClkFreq::FREQ_400MHZ;
  38:../../libDaisy/src/sys/system.h ****             use_dcache  = true;
  39:../../libDaisy/src/sys/system.h ****             use_icache  = true;
  40:../../libDaisy/src/sys/system.h ****             skip_clocks = false;
  41:../../libDaisy/src/sys/system.h ****         }
  42:../../libDaisy/src/sys/system.h **** 
  43:../../libDaisy/src/sys/system.h ****         /** Method to call on the struct to set to boost mode:
  44:../../libDaisy/src/sys/system.h ****          ** CPU Freq set to 480MHz
  45:../../libDaisy/src/sys/system.h ****          ** Cache Enabled
  46:../../libDaisy/src/sys/system.h ****          ** */
  47:../../libDaisy/src/sys/system.h ****         void Boost()
  48:../../libDaisy/src/sys/system.h ****         {
  49:../../libDaisy/src/sys/system.h ****             cpu_freq    = SysClkFreq::FREQ_480MHZ;
  50:../../libDaisy/src/sys/system.h ****             use_dcache  = true;
  51:../../libDaisy/src/sys/system.h ****             use_icache  = true;
  52:../../libDaisy/src/sys/system.h ****             skip_clocks = false;
  53:../../libDaisy/src/sys/system.h ****         }
  54:../../libDaisy/src/sys/system.h **** 
  55:../../libDaisy/src/sys/system.h ****         SysClkFreq cpu_freq;
  56:../../libDaisy/src/sys/system.h ****         bool       use_dcache;
ARM GAS  /var/folders/yd/h_51qzcj4039f6rvxdz3lvym0000gn/T//ccKvYnDW.s 			page 3


  57:../../libDaisy/src/sys/system.h ****         bool       use_icache;
  58:../../libDaisy/src/sys/system.h ****         bool       skip_clocks;
  59:../../libDaisy/src/sys/system.h ****     };
  60:../../libDaisy/src/sys/system.h **** 
  61:../../libDaisy/src/sys/system.h ****     /** Describes the different regions of memory available to the Daisy */
  62:../../libDaisy/src/sys/system.h ****     enum MemoryRegion
  63:../../libDaisy/src/sys/system.h ****     {
  64:../../libDaisy/src/sys/system.h ****         INTERNAL_FLASH = 0,
  65:../../libDaisy/src/sys/system.h ****         ITCMRAM,
  66:../../libDaisy/src/sys/system.h ****         DTCMRAM,
  67:../../libDaisy/src/sys/system.h ****         SRAM_D1,
  68:../../libDaisy/src/sys/system.h ****         SRAM_D2,
  69:../../libDaisy/src/sys/system.h ****         SRAM_D3,
  70:../../libDaisy/src/sys/system.h ****         SDRAM,
  71:../../libDaisy/src/sys/system.h ****         QSPI,
  72:../../libDaisy/src/sys/system.h ****         INVALID_ADDRESS,
  73:../../libDaisy/src/sys/system.h ****     };
  74:../../libDaisy/src/sys/system.h **** 
  75:../../libDaisy/src/sys/system.h ****     /** Bootloader struct for controlling bootloading parameters */
  76:../../libDaisy/src/sys/system.h ****     struct BootInfo
  77:../../libDaisy/src/sys/system.h ****     {
  78:../../libDaisy/src/sys/system.h ****         enum class Type : uint32_t
  79:../../libDaisy/src/sys/system.h ****         {
  80:../../libDaisy/src/sys/system.h ****             INVALID      = 0x00000000,
  81:../../libDaisy/src/sys/system.h ****             JUMP         = 0xDEADBEEF,
  82:../../libDaisy/src/sys/system.h ****             SKIP_TIMEOUT = 0x5AFEB007,
  83:../../libDaisy/src/sys/system.h ****             INF_TIMEOUT  = 0xB0074EFA,
  84:../../libDaisy/src/sys/system.h ****         } status;
  85:../../libDaisy/src/sys/system.h ****         uint32_t data;
  86:../../libDaisy/src/sys/system.h ****         enum class Version : uint32_t
  87:../../libDaisy/src/sys/system.h ****         {
  88:../../libDaisy/src/sys/system.h ****             LT_v6_0 = 0, // Less than v6.0
  89:../../libDaisy/src/sys/system.h ****             NONE,        // No bootloader present
  90:../../libDaisy/src/sys/system.h ****             v6_0,        // v6.0
  91:../../libDaisy/src/sys/system.h ****             v6_1,        // v6.1 or greater
  92:../../libDaisy/src/sys/system.h ****             LAST
  93:../../libDaisy/src/sys/system.h ****         } version;
  94:../../libDaisy/src/sys/system.h ****     };
  95:../../libDaisy/src/sys/system.h **** 
  96:../../libDaisy/src/sys/system.h ****     System() {}
  97:../../libDaisy/src/sys/system.h ****     ~System() {}
  38              		.loc 2 97 5 view .LVU1
  39              		.loc 2 97 5 is_stmt 0 view .LVU2
  40              	.LBE1239:
  41              	.LBB1240:
  42              	.LBI1240:
  43              		.file 3 "../../libDaisy/src/hid/usb.h"
   1:../../libDaisy/src/hid/usb.h **** #pragma once
   2:../../libDaisy/src/hid/usb.h **** #ifndef DSY_HID_USB_H
   3:../../libDaisy/src/hid/usb.h **** #define DSY_HID_USB_H
   4:../../libDaisy/src/hid/usb.h **** #include <stdint.h>
   5:../../libDaisy/src/hid/usb.h **** #include <stdlib.h>
   6:../../libDaisy/src/hid/usb.h **** 
   7:../../libDaisy/src/hid/usb.h **** namespace daisy
   8:../../libDaisy/src/hid/usb.h **** /** @addtogroup human_interface
   9:../../libDaisy/src/hid/usb.h ****     @{
  10:../../libDaisy/src/hid/usb.h **** */
ARM GAS  /var/folders/yd/h_51qzcj4039f6rvxdz3lvym0000gn/T//ccKvYnDW.s 			page 4


  11:../../libDaisy/src/hid/usb.h **** 
  12:../../libDaisy/src/hid/usb.h **** {
  13:../../libDaisy/src/hid/usb.h **** /** 
  14:../../libDaisy/src/hid/usb.h ****     @brief Interface for initializing and using the USB Peripherals on the daisy
  15:../../libDaisy/src/hid/usb.h ****     @author Stephen Hensley
  16:../../libDaisy/src/hid/usb.h ****     @date December 2019
  17:../../libDaisy/src/hid/usb.h **** */
  18:../../libDaisy/src/hid/usb.h **** class UsbHandle
  19:../../libDaisy/src/hid/usb.h **** {
  20:../../libDaisy/src/hid/usb.h ****   public:
  21:../../libDaisy/src/hid/usb.h ****     /** Return values for USBHandle Functions */
  22:../../libDaisy/src/hid/usb.h ****     enum class Result
  23:../../libDaisy/src/hid/usb.h ****     {
  24:../../libDaisy/src/hid/usb.h ****         OK,
  25:../../libDaisy/src/hid/usb.h ****         ERR,
  26:../../libDaisy/src/hid/usb.h ****     };
  27:../../libDaisy/src/hid/usb.h **** 
  28:../../libDaisy/src/hid/usb.h ****     /** Specified which of the two USB Peripherals to initialize. */
  29:../../libDaisy/src/hid/usb.h ****     enum UsbPeriph
  30:../../libDaisy/src/hid/usb.h ****     {
  31:../../libDaisy/src/hid/usb.h ****         FS_INTERNAL, /**< Internal pin */
  32:../../libDaisy/src/hid/usb.h ****         FS_EXTERNAL, /**< FS External D+ pin is Pin 38 (GPIO32). FS External D- pin is Pin 37 (GPIO
  33:../../libDaisy/src/hid/usb.h ****         FS_BOTH,     /**< Both */
  34:../../libDaisy/src/hid/usb.h ****     };
  35:../../libDaisy/src/hid/usb.h **** 
  36:../../libDaisy/src/hid/usb.h **** 
  37:../../libDaisy/src/hid/usb.h ****     /** Function called upon reception of a buffer */
  38:../../libDaisy/src/hid/usb.h ****     typedef void (*ReceiveCallback)(uint8_t* buff, uint32_t* len);
  39:../../libDaisy/src/hid/usb.h **** 
  40:../../libDaisy/src/hid/usb.h ****     UsbHandle() {}
  41:../../libDaisy/src/hid/usb.h **** 
  42:../../libDaisy/src/hid/usb.h ****     ~UsbHandle() {}
  44              		.loc 3 42 5 is_stmt 1 view .LVU3
  45              		.loc 3 42 5 is_stmt 0 view .LVU4
  46              	.LBE1240:
  47              	.LBB1241:
  48              	.LBI1241:
  49              		.file 4 "../../libDaisy/src/per/adc.h"
   1:../../libDaisy/src/per/adc.h **** #pragma once
   2:../../libDaisy/src/per/adc.h **** #ifndef DSY_ADC_H
   3:../../libDaisy/src/per/adc.h **** #define DSY_ADC_H /**< Macro */
   4:../../libDaisy/src/per/adc.h **** #include <stdint.h>
   5:../../libDaisy/src/per/adc.h **** #include <stdlib.h>
   6:../../libDaisy/src/per/adc.h **** #include "daisy_core.h"
   7:../../libDaisy/src/per/adc.h **** #include "per/gpio.h"
   8:../../libDaisy/src/per/adc.h **** 
   9:../../libDaisy/src/per/adc.h **** #define DSY_ADC_MAX_CHANNELS 16 /**< Maximum number of ADC channels */
  10:../../libDaisy/src/per/adc.h **** 
  11:../../libDaisy/src/per/adc.h **** namespace daisy
  12:../../libDaisy/src/per/adc.h **** {
  13:../../libDaisy/src/per/adc.h **** /** @addtogroup per_analog
  14:../../libDaisy/src/per/adc.h ****     @{
  15:../../libDaisy/src/per/adc.h **** */
  16:../../libDaisy/src/per/adc.h **** 
  17:../../libDaisy/src/per/adc.h **** /* While there may not be many configuration options here,
  18:../../libDaisy/src/per/adc.h **** using a struct like this allows us to add more configuration
  19:../../libDaisy/src/per/adc.h **** later without breaking existing functionality.
ARM GAS  /var/folders/yd/h_51qzcj4039f6rvxdz3lvym0000gn/T//ccKvYnDW.s 			page 5


  20:../../libDaisy/src/per/adc.h **** */
  21:../../libDaisy/src/per/adc.h **** 
  22:../../libDaisy/src/per/adc.h **** /** @brief   Configuration Structure for an ADC Channel 
  23:../../libDaisy/src/per/adc.h ****  *  @details This can be used to configure a a single input, 
  24:../../libDaisy/src/per/adc.h ****  *           or a multiplexed input, allowing up to 8 inputs on 
  25:../../libDaisy/src/per/adc.h ****  *           one channel.
  26:../../libDaisy/src/per/adc.h ****  *  @note    Sharing data lines to multiple muxes _is_ possible, but
  27:../../libDaisy/src/per/adc.h ****  *           each channel sharing data lines must be set to the maximum
  28:../../libDaisy/src/per/adc.h ****  *           number of channels, even if some multiplexers have fewer
  29:../../libDaisy/src/per/adc.h ****  *           inputs connected.
  30:../../libDaisy/src/per/adc.h **** */
  31:../../libDaisy/src/per/adc.h **** struct AdcChannelConfig
  32:../../libDaisy/src/per/adc.h **** {
  33:../../libDaisy/src/per/adc.h ****     /** Which pin to use for multiplexing */
  34:../../libDaisy/src/per/adc.h ****     enum MuxPin
  35:../../libDaisy/src/per/adc.h ****     {
  36:../../libDaisy/src/per/adc.h ****         MUX_SEL_0,    /**< & */
  37:../../libDaisy/src/per/adc.h ****         MUX_SEL_1,    /**< & */
  38:../../libDaisy/src/per/adc.h ****         MUX_SEL_2,    /**< & */
  39:../../libDaisy/src/per/adc.h ****         MUX_SEL_LAST, /**< & */
  40:../../libDaisy/src/per/adc.h ****     };
  41:../../libDaisy/src/per/adc.h **** 
  42:../../libDaisy/src/per/adc.h ****     /** \brief per channel conversion speed added to fixed time based on bitdepth, etc. */
  43:../../libDaisy/src/per/adc.h ****     enum ConversionSpeed
  44:../../libDaisy/src/per/adc.h ****     {
  45:../../libDaisy/src/per/adc.h ****         SPEED_1CYCLES_5,
  46:../../libDaisy/src/per/adc.h ****         SPEED_2CYCLES_5,
  47:../../libDaisy/src/per/adc.h ****         SPEED_8CYCLES_5,
  48:../../libDaisy/src/per/adc.h ****         SPEED_16CYCLES_5,
  49:../../libDaisy/src/per/adc.h ****         SPEED_32CYCLES_5,
  50:../../libDaisy/src/per/adc.h ****         SPEED_64CYCLES_5,
  51:../../libDaisy/src/per/adc.h ****         SPEED_387CYCLES_5,
  52:../../libDaisy/src/per/adc.h ****         SPEED_810CYCLES_5,
  53:../../libDaisy/src/per/adc.h ****     };
  54:../../libDaisy/src/per/adc.h **** 
  55:../../libDaisy/src/per/adc.h ****     /** Initializes a single ADC pin as an ADC. 
  56:../../libDaisy/src/per/adc.h ****     \param pin Pin to init.
  57:../../libDaisy/src/per/adc.h ****     \param speed conversion speed for this pin defaults to 8.5 cycles
  58:../../libDaisy/src/per/adc.h ****      */
  59:../../libDaisy/src/per/adc.h ****     void InitSingle(dsy_gpio_pin pin, ConversionSpeed speed = SPEED_8CYCLES_5);
  60:../../libDaisy/src/per/adc.h **** 
  61:../../libDaisy/src/per/adc.h ****     /** 
  62:../../libDaisy/src/per/adc.h ****     Initializes a single ADC pin as a Multiplexed ADC.
  63:../../libDaisy/src/per/adc.h ****     Requires a CD405X Multiplexer connected to the pin.
  64:../../libDaisy/src/per/adc.h ****     You only need to supply the mux pins that are required,
  65:../../libDaisy/src/per/adc.h ****     e.g. a 4052 mux would only require mux_0 and mux_1.
  66:../../libDaisy/src/per/adc.h ****     Internal Callbacks handle the pin addressing.
  67:../../libDaisy/src/per/adc.h ****     \param adc_pin &
  68:../../libDaisy/src/per/adc.h ****     \param mux_channels must be 1-8
  69:../../libDaisy/src/per/adc.h ****     \param mux_0 First mux pin
  70:../../libDaisy/src/per/adc.h ****     \param mux_1 Second mux pin
  71:../../libDaisy/src/per/adc.h ****     \param mux_2 Third mux pin
  72:../../libDaisy/src/per/adc.h ****     \param speed conversion speed for this pin defaults to 8.5 cycles
  73:../../libDaisy/src/per/adc.h ****     */
  74:../../libDaisy/src/per/adc.h ****     void InitMux(dsy_gpio_pin    adc_pin,
  75:../../libDaisy/src/per/adc.h ****                  size_t          mux_channels,
  76:../../libDaisy/src/per/adc.h ****                  dsy_gpio_pin    mux_0,
ARM GAS  /var/folders/yd/h_51qzcj4039f6rvxdz3lvym0000gn/T//ccKvYnDW.s 			page 6


  77:../../libDaisy/src/per/adc.h ****                  dsy_gpio_pin    mux_1 = {DSY_GPIOX, 0},
  78:../../libDaisy/src/per/adc.h ****                  dsy_gpio_pin    mux_2 = {DSY_GPIOX, 0},
  79:../../libDaisy/src/per/adc.h ****                  ConversionSpeed speed = SPEED_8CYCLES_5);
  80:../../libDaisy/src/per/adc.h **** 
  81:../../libDaisy/src/per/adc.h ****     dsy_gpio        pin_;                   /**< & */
  82:../../libDaisy/src/per/adc.h ****     dsy_gpio        mux_pin_[MUX_SEL_LAST]; /**< & */
  83:../../libDaisy/src/per/adc.h ****     uint8_t         mux_channels_;          /**< & */
  84:../../libDaisy/src/per/adc.h ****     ConversionSpeed speed_;
  85:../../libDaisy/src/per/adc.h **** };
  86:../../libDaisy/src/per/adc.h **** 
  87:../../libDaisy/src/per/adc.h **** /**
  88:../../libDaisy/src/per/adc.h ****    @brief Handler for analog to digital conversion
  89:../../libDaisy/src/per/adc.h **** */
  90:../../libDaisy/src/per/adc.h **** class AdcHandle
  91:../../libDaisy/src/per/adc.h **** {
  92:../../libDaisy/src/per/adc.h ****   public:
  93:../../libDaisy/src/per/adc.h ****     /** Supported oversampling amounts */
  94:../../libDaisy/src/per/adc.h ****     enum OverSampling
  95:../../libDaisy/src/per/adc.h ****     {
  96:../../libDaisy/src/per/adc.h ****         OVS_NONE, /**< & */
  97:../../libDaisy/src/per/adc.h ****         OVS_4,    /**< & */
  98:../../libDaisy/src/per/adc.h ****         OVS_8,    /**< & */
  99:../../libDaisy/src/per/adc.h ****         OVS_16,   /**< & */
 100:../../libDaisy/src/per/adc.h ****         OVS_32,   /**< & */
 101:../../libDaisy/src/per/adc.h ****         OVS_64,   /**< & */
 102:../../libDaisy/src/per/adc.h ****         OVS_128,  /**< & */
 103:../../libDaisy/src/per/adc.h ****         OVS_256,  /**< & */
 104:../../libDaisy/src/per/adc.h ****         OVS_512,  /**< & */
 105:../../libDaisy/src/per/adc.h ****         OVS_1024, /**< & */
 106:../../libDaisy/src/per/adc.h ****         OVS_LAST, /**< & */
 107:../../libDaisy/src/per/adc.h ****     };
 108:../../libDaisy/src/per/adc.h **** 
 109:../../libDaisy/src/per/adc.h ****     AdcHandle() {}
 110:../../libDaisy/src/per/adc.h ****     ~AdcHandle() {}
  50              		.loc 4 110 5 is_stmt 1 view .LVU5
  51              		.loc 4 110 5 is_stmt 0 view .LVU6
  52              	.LBE1241:
  53              	.LBB1242:
  54              	.LBI1242:
  55              		.file 5 "../../libDaisy/src/hid/audio.h"
   1:../../libDaisy/src/hid/audio.h **** #ifndef DSY_AUDIO_H
   2:../../libDaisy/src/hid/audio.h **** #define DSY_AUDIO_H /**< & */
   3:../../libDaisy/src/hid/audio.h **** 
   4:../../libDaisy/src/hid/audio.h **** #include "per/sai.h"
   5:../../libDaisy/src/hid/audio.h **** 
   6:../../libDaisy/src/hid/audio.h **** namespace daisy
   7:../../libDaisy/src/hid/audio.h **** {
   8:../../libDaisy/src/hid/audio.h **** /** @brief Audio Engine Handle
   9:../../libDaisy/src/hid/audio.h ****  *  @ingroup audio 
  10:../../libDaisy/src/hid/audio.h ****  *  @details This class allows for higher level access to an audio engine.
  11:../../libDaisy/src/hid/audio.h ****  *           If you're using a SOM like the DaisySeed or DaisyPatchSM (or any 
  12:../../libDaisy/src/hid/audio.h ****  *            board that includes one of those objects) then the intialization
  13:../../libDaisy/src/hid/audio.h ****  *            is already taken  care of.
  14:../../libDaisy/src/hid/audio.h ****  *           If you're setting up your own custom hardware, or need to make changes
  15:../../libDaisy/src/hid/audio.h ****  *           you will have to take the following steps:
  16:../../libDaisy/src/hid/audio.h ****  *             1. Create and Initialize an SaiHandle or two depending on your requirements
  17:../../libDaisy/src/hid/audio.h ****  *             2. Initialize the Audio Handle with the desired settings and the Initialized SaiHand
ARM GAS  /var/folders/yd/h_51qzcj4039f6rvxdz3lvym0000gn/T//ccKvYnDW.s 			page 7


  18:../../libDaisy/src/hid/audio.h ****  *             3. If the connected codec requires special configuration or initialization, do so
  19:../../libDaisy/src/hid/audio.h ****  *             4. Write a callback method using either the AudioCallback or the InterleavingAudioCa
  20:../../libDaisy/src/hid/audio.h ****  *             5. Start the Audio using one of the StartAudio function
  21:../../libDaisy/src/hid/audio.h ****  */
  22:../../libDaisy/src/hid/audio.h **** class AudioHandle
  23:../../libDaisy/src/hid/audio.h **** {
  24:../../libDaisy/src/hid/audio.h ****   public:
  25:../../libDaisy/src/hid/audio.h ****     /** Manually configurable details about the Audio Engine */
  26:../../libDaisy/src/hid/audio.h ****     /** TODO: Figure out how to get samplerate in here. */
  27:../../libDaisy/src/hid/audio.h ****     struct Config
  28:../../libDaisy/src/hid/audio.h ****     {
  29:../../libDaisy/src/hid/audio.h ****         /** number of samples to process per callback */
  30:../../libDaisy/src/hid/audio.h ****         size_t blocksize;
  31:../../libDaisy/src/hid/audio.h **** 
  32:../../libDaisy/src/hid/audio.h ****         /**< Sample rate of audio */
  33:../../libDaisy/src/hid/audio.h ****         SaiHandle::Config::SampleRate samplerate;
  34:../../libDaisy/src/hid/audio.h **** 
  35:../../libDaisy/src/hid/audio.h ****         /** factor for adjustment before and after callback for hardware that may have extra headro
  36:../../libDaisy/src/hid/audio.h ****         float postgain;
  37:../../libDaisy/src/hid/audio.h **** 
  38:../../libDaisy/src/hid/audio.h ****         /** factor for additional one-sided compensation to audio path for hardware that may
  39:../../libDaisy/src/hid/audio.h ****          *  have unequal input/output ranges
  40:../../libDaisy/src/hid/audio.h ****          */
  41:../../libDaisy/src/hid/audio.h ****         float output_compensation;
  42:../../libDaisy/src/hid/audio.h **** 
  43:../../libDaisy/src/hid/audio.h ****         /** Sets default values for config struct */
  44:../../libDaisy/src/hid/audio.h ****         Config()
  45:../../libDaisy/src/hid/audio.h ****         : blocksize(48),
  46:../../libDaisy/src/hid/audio.h ****           samplerate(SaiHandle::Config::SampleRate::SAI_48KHZ),
  47:../../libDaisy/src/hid/audio.h ****           postgain(1.f),
  48:../../libDaisy/src/hid/audio.h ****           output_compensation(1.f)
  49:../../libDaisy/src/hid/audio.h ****         {
  50:../../libDaisy/src/hid/audio.h ****         }
  51:../../libDaisy/src/hid/audio.h ****     };
  52:../../libDaisy/src/hid/audio.h **** 
  53:../../libDaisy/src/hid/audio.h ****     enum class Result
  54:../../libDaisy/src/hid/audio.h ****     {
  55:../../libDaisy/src/hid/audio.h ****         OK,
  56:../../libDaisy/src/hid/audio.h ****         ERR,
  57:../../libDaisy/src/hid/audio.h ****     };
  58:../../libDaisy/src/hid/audio.h **** 
  59:../../libDaisy/src/hid/audio.h ****     /** Non-Interleaving input buffer
  60:../../libDaisy/src/hid/audio.h ****      * Buffer arranged by float[chn][sample] 
  61:../../libDaisy/src/hid/audio.h ****      * const so that the user can't modify the input
  62:../../libDaisy/src/hid/audio.h ****      */
  63:../../libDaisy/src/hid/audio.h ****     typedef const float* const* InputBuffer;
  64:../../libDaisy/src/hid/audio.h **** 
  65:../../libDaisy/src/hid/audio.h ****     /** Non-Interleaving output buffer
  66:../../libDaisy/src/hid/audio.h ****      * Arranged by float[chn][sample] 
  67:../../libDaisy/src/hid/audio.h ****      */
  68:../../libDaisy/src/hid/audio.h ****     typedef float** OutputBuffer;
  69:../../libDaisy/src/hid/audio.h **** 
  70:../../libDaisy/src/hid/audio.h ****     /** Type for a Non-Interleaving audio callback 
  71:../../libDaisy/src/hid/audio.h ****      * Non-Interleaving audio callbacks in daisy will be of this type
  72:../../libDaisy/src/hid/audio.h ****      */
  73:../../libDaisy/src/hid/audio.h ****     typedef void (*AudioCallback)(InputBuffer  in,
  74:../../libDaisy/src/hid/audio.h ****                                   OutputBuffer out,
ARM GAS  /var/folders/yd/h_51qzcj4039f6rvxdz3lvym0000gn/T//ccKvYnDW.s 			page 8


  75:../../libDaisy/src/hid/audio.h ****                                   size_t       size);
  76:../../libDaisy/src/hid/audio.h **** 
  77:../../libDaisy/src/hid/audio.h ****     /** Interleaving Input buffer
  78:../../libDaisy/src/hid/audio.h ****      ** audio is prepared as { L0, R0, L1, R1, . . . LN, RN }]
  79:../../libDaisy/src/hid/audio.h ****      ** this is const, as the user shouldn't modify it
  80:../../libDaisy/src/hid/audio.h ****     */
  81:../../libDaisy/src/hid/audio.h ****     typedef const float* InterleavingInputBuffer;
  82:../../libDaisy/src/hid/audio.h **** 
  83:../../libDaisy/src/hid/audio.h ****     /** Interleaving Output buffer 
  84:../../libDaisy/src/hid/audio.h ****      ** audio is prepared as { L0, R0, L1, R1, . . . LN, RN }
  85:../../libDaisy/src/hid/audio.h ****     */
  86:../../libDaisy/src/hid/audio.h ****     typedef float* InterleavingOutputBuffer;
  87:../../libDaisy/src/hid/audio.h **** 
  88:../../libDaisy/src/hid/audio.h ****     /** Interleaving Audio Callback 
  89:../../libDaisy/src/hid/audio.h ****      * Interleaving audio callbacks in daisy must be of this type
  90:../../libDaisy/src/hid/audio.h ****      */
  91:../../libDaisy/src/hid/audio.h ****     typedef void (*InterleavingAudioCallback)(InterleavingInputBuffer  in,
  92:../../libDaisy/src/hid/audio.h ****                                               InterleavingOutputBuffer out,
  93:../../libDaisy/src/hid/audio.h ****                                               size_t                   size);
  94:../../libDaisy/src/hid/audio.h **** 
  95:../../libDaisy/src/hid/audio.h ****     AudioHandle() : pimpl_(nullptr) {}
  96:../../libDaisy/src/hid/audio.h ****     ~AudioHandle() {}
  56              		.loc 5 96 5 is_stmt 1 view .LVU7
  57              		.loc 5 96 5 is_stmt 0 view .LVU8
  58              	.LBE1242:
  59              		.loc 1 22 19 view .LVU9
  60 0000 7047     		bx	lr
  61              		.cfi_endproc
  62              	.LFE2556:
  64              		.weak	_ZN5daisy9DaisySeedD1Ev
  65              		.thumb_set _ZN5daisy9DaisySeedD1Ev,_ZN5daisy9DaisySeedD2Ev
  66 0002 00BF     		.section	.text._ZN7chowdsp3wdf3WDFIfE18propagateImpedanceEv,"axG",%progbits,_ZN7chowdsp3wdf3WDFIfE
  67              		.align	1
  68              		.p2align 2,,3
  69              		.weak	_ZN7chowdsp3wdf3WDFIfE18propagateImpedanceEv
  70              		.syntax unified
  71              		.thumb
  72              		.thumb_func
  74              	_ZN7chowdsp3wdf3WDFIfE18propagateImpedanceEv:
  75              	.LVL1:
  76              	.LFB5916:
  77              		.file 6 "./chowdsp_wdf/wdf/wdf_base.h"
   1:./chowdsp_wdf/wdf/wdf_base.h **** #ifndef CHOWDSP_WDF_WDF_BASE_H
   2:./chowdsp_wdf/wdf/wdf_base.h **** #define CHOWDSP_WDF_WDF_BASE_H
   3:./chowdsp_wdf/wdf/wdf_base.h **** 
   4:./chowdsp_wdf/wdf/wdf_base.h **** #include <string>
   5:./chowdsp_wdf/wdf/wdf_base.h **** #include <utility>
   6:./chowdsp_wdf/wdf/wdf_base.h **** 
   7:./chowdsp_wdf/wdf/wdf_base.h **** #include "../wdft/wdft.h"
   8:./chowdsp_wdf/wdf/wdf_base.h **** 
   9:./chowdsp_wdf/wdf/wdf_base.h **** namespace chowdsp
  10:./chowdsp_wdf/wdf/wdf_base.h **** {
  11:./chowdsp_wdf/wdf/wdf_base.h **** namespace wdf
  12:./chowdsp_wdf/wdf/wdf_base.h **** {
  13:./chowdsp_wdf/wdf/wdf_base.h ****     /** Wave digital filter base class */
  14:./chowdsp_wdf/wdf/wdf_base.h ****     template <typename T>
  15:./chowdsp_wdf/wdf/wdf_base.h ****     class WDF : public wdft::BaseWDF
ARM GAS  /var/folders/yd/h_51qzcj4039f6rvxdz3lvym0000gn/T//ccKvYnDW.s 			page 9


  16:./chowdsp_wdf/wdf/wdf_base.h ****     {
  17:./chowdsp_wdf/wdf/wdf_base.h ****     public:
  18:./chowdsp_wdf/wdf/wdf_base.h ****         explicit WDF (std::string type) : type (std::move (type)) {}
  19:./chowdsp_wdf/wdf/wdf_base.h ****         ~WDF() override = default;
  20:./chowdsp_wdf/wdf/wdf_base.h **** 
  21:./chowdsp_wdf/wdf/wdf_base.h ****         void connectToNode (WDF<T>* p) { wdfParent = p; }
  22:./chowdsp_wdf/wdf/wdf_base.h **** 
  23:./chowdsp_wdf/wdf/wdf_base.h ****         /** Sub-classes override this function to propagate
  24:./chowdsp_wdf/wdf/wdf_base.h ****      * an impedance change to the upstream elements in
  25:./chowdsp_wdf/wdf/wdf_base.h ****      * the WDF tree.
  26:./chowdsp_wdf/wdf/wdf_base.h ****      */
  27:./chowdsp_wdf/wdf/wdf_base.h ****         virtual inline void propagateImpedance()
  78              		.loc 6 27 29 is_stmt 1 view -0
  79              		.cfi_startproc
  80              		@ args = 0, pretend = 0, frame = 0
  81              		@ frame_needed = 0, uses_anonymous_args = 0
  28:./chowdsp_wdf/wdf/wdf_base.h ****         {
  29:./chowdsp_wdf/wdf/wdf_base.h ****             calcImpedance();
  82              		.loc 6 29 26 is_stmt 0 view .LVU11
  83 0000 0368     		ldr	r3, [r0]
  27:./chowdsp_wdf/wdf/wdf_base.h ****         {
  84              		.loc 6 27 29 view .LVU12
  85 0002 10B5     		push	{r4, lr}
  86              		.cfi_def_cfa_offset 8
  87              		.cfi_offset 4, -8
  88              		.cfi_offset 14, -4
  27:./chowdsp_wdf/wdf/wdf_base.h ****         {
  89              		.loc 6 27 29 view .LVU13
  90 0004 0446     		mov	r4, r0
  91              		.loc 6 29 26 view .LVU14
  92 0006 9B68     		ldr	r3, [r3, #8]
  93 0008 9847     		blx	r3
  94              	.LVL2:
  30:./chowdsp_wdf/wdf/wdf_base.h **** 
  31:./chowdsp_wdf/wdf/wdf_base.h ****             if (wdfParent != nullptr)
  95              		.loc 6 31 17 view .LVU15
  96 000a 606B     		ldr	r0, [r4, #52]
  97              		.loc 6 31 13 view .LVU16
  98 000c 20B1     		cbz	r0, .L3
  32:./chowdsp_wdf/wdf/wdf_base.h ****                 wdfParent->propagateImpedance();
  99              		.loc 6 32 46 view .LVU17
 100 000e 0368     		ldr	r3, [r0]
  33:./chowdsp_wdf/wdf/wdf_base.h ****         }
 101              		.loc 6 33 9 view .LVU18
 102 0010 BDE81040 		pop	{r4, lr}
 103              		.cfi_remember_state
 104              		.cfi_restore 14
 105              		.cfi_restore 4
 106              		.cfi_def_cfa_offset 0
 107              	.LVL3:
  32:./chowdsp_wdf/wdf/wdf_base.h ****                 wdfParent->propagateImpedance();
 108              		.loc 6 32 46 view .LVU19
 109 0014 1B69     		ldr	r3, [r3, #16]
 110 0016 1847     		bx	r3	@ indirect register sibling call
 111              	.LVL4:
 112              	.L3:
 113              		.cfi_restore_state
ARM GAS  /var/folders/yd/h_51qzcj4039f6rvxdz3lvym0000gn/T//ccKvYnDW.s 			page 10


 114              		.loc 6 33 9 view .LVU20
 115 0018 10BD     		pop	{r4, pc}
 116              		.loc 6 33 9 view .LVU21
 117              		.cfi_endproc
 118              	.LFE5916:
 120 001a 00BF     		.section	.text._ZN8controls8ControlsILj6ELj4ELj2ELj2EED2Ev,"axG",%progbits,_ZN8controls8ControlsIL
 121              		.align	1
 122              		.p2align 2,,3
 123              		.weak	_ZN8controls8ControlsILj6ELj4ELj2ELj2EED2Ev
 124              		.syntax unified
 125              		.thumb
 126              		.thumb_func
 128              	_ZN8controls8ControlsILj6ELj4ELj2ELj2EED2Ev:
 129              	.LVL5:
 130              	.LFB6178:
 131              		.file 7 "Controls.h"
   1:Controls.h    **** #pragma once
   2:Controls.h    **** /**
   3:Controls.h    ****  * Controls.h - Daisy Seed controls helper
   4:Controls.h    ****  *
   5:Controls.h    ****  * Features:
   6:Controls.h    ****  *  - Smoothed 0..1 pot reads via libDaisy::AnalogControl
   7:Controls.h    ****  *  - Debounced SPST (toggle) and momentary footswitch handling via libDaisy::Switch
   8:Controls.h    ****  *  - Edge detection helpers for momentary actions
   9:Controls.h    ****  *
  10:Controls.h    ****  * Usage:
  11:Controls.h    ****  *   - Compute a control update rate: ctrl_hz = hw.AudioSampleRate() / hw.AudioBlockSize();
  12:Controls.h    ****  *   - Call Controls::Init(...) once, then Controls::Update() once per audio block.
  13:Controls.h    ****  *   - Read pots with Pot(i), toggles with TogglePressed(i), footswitch edges with FootRising(i), e
  14:Controls.h    ****  *
  15:Controls.h    ****  * Wiring (typical):
  16:Controls.h    ****  *   - Pots: ends to 3V3_A and AGND; wiper to Ai (A0..A11).
  17:Controls.h    ****  *   - Switches/footswitches: one side to GND, the other to a GPIO; use internal PULLUP (default).
  18:Controls.h    ****  */
  19:Controls.h    **** 
  20:Controls.h    **** #include <array>
  21:Controls.h    **** #include <cmath>
  22:Controls.h    **** #include <cstdint>
  23:Controls.h    **** #include "daisy_seed.h"
  24:Controls.h    **** #include "hid/ctrl.h"    // AnalogControl
  25:Controls.h    **** #include "hid/switch.h"  // Switch
  26:Controls.h    **** 
  27:Controls.h    **** namespace controls {
  28:Controls.h    **** 
  29:Controls.h    **** using namespace daisy;
  30:Controls.h    **** using namespace daisy::seed;
  31:Controls.h    **** 
  32:Controls.h    **** template <size_t NPots, size_t NToggles, size_t NFoots, size_t NLeds>
  33:Controls.h    **** class Controls
 132              		.loc 7 33 7 is_stmt 1 view -0
 133              		.cfi_startproc
 134              		@ args = 0, pretend = 0, frame = 0
 135              		@ frame_needed = 0, uses_anonymous_args = 0
 136              		@ link register save eliminated.
 137              	.LBB1243:
 138              	.LBI1243:
 139              		.file 8 "/Library/DaisyToolchain/0.2.0/arm/arm-none-eabi/include/c++/10.3.1/array"
ARM GAS  /var/folders/yd/h_51qzcj4039f6rvxdz3lvym0000gn/T//ccKvYnDW.s 			page 11


   1:/Library/DaisyToolchain/0.2.0/arm/arm-none-eabi/include/c++/10.3.1/array **** // <array> -*- C++ -*-
   2:/Library/DaisyToolchain/0.2.0/arm/arm-none-eabi/include/c++/10.3.1/array **** 
   3:/Library/DaisyToolchain/0.2.0/arm/arm-none-eabi/include/c++/10.3.1/array **** // Copyright (C) 2007-2020 Free Software Foundation, Inc.
   4:/Library/DaisyToolchain/0.2.0/arm/arm-none-eabi/include/c++/10.3.1/array **** //
   5:/Library/DaisyToolchain/0.2.0/arm/arm-none-eabi/include/c++/10.3.1/array **** // This file is part of the GNU ISO C++ Library.  This library is free
   6:/Library/DaisyToolchain/0.2.0/arm/arm-none-eabi/include/c++/10.3.1/array **** // software; you can redistribute it and/or modify it under the
   7:/Library/DaisyToolchain/0.2.0/arm/arm-none-eabi/include/c++/10.3.1/array **** // terms of the GNU General Public License as published by the
   8:/Library/DaisyToolchain/0.2.0/arm/arm-none-eabi/include/c++/10.3.1/array **** // Free Software Foundation; either version 3, or (at your option)
   9:/Library/DaisyToolchain/0.2.0/arm/arm-none-eabi/include/c++/10.3.1/array **** // any later version.
  10:/Library/DaisyToolchain/0.2.0/arm/arm-none-eabi/include/c++/10.3.1/array **** 
  11:/Library/DaisyToolchain/0.2.0/arm/arm-none-eabi/include/c++/10.3.1/array **** // This library is distributed in the hope that it will be useful,
  12:/Library/DaisyToolchain/0.2.0/arm/arm-none-eabi/include/c++/10.3.1/array **** // but WITHOUT ANY WARRANTY; without even the implied warranty of
  13:/Library/DaisyToolchain/0.2.0/arm/arm-none-eabi/include/c++/10.3.1/array **** // MERCHANTABILITY or FITNESS FOR A PARTICULAR PURPOSE.  See the
  14:/Library/DaisyToolchain/0.2.0/arm/arm-none-eabi/include/c++/10.3.1/array **** // GNU General Public License for more details.
  15:/Library/DaisyToolchain/0.2.0/arm/arm-none-eabi/include/c++/10.3.1/array **** 
  16:/Library/DaisyToolchain/0.2.0/arm/arm-none-eabi/include/c++/10.3.1/array **** // Under Section 7 of GPL version 3, you are granted additional
  17:/Library/DaisyToolchain/0.2.0/arm/arm-none-eabi/include/c++/10.3.1/array **** // permissions described in the GCC Runtime Library Exception, version
  18:/Library/DaisyToolchain/0.2.0/arm/arm-none-eabi/include/c++/10.3.1/array **** // 3.1, as published by the Free Software Foundation.
  19:/Library/DaisyToolchain/0.2.0/arm/arm-none-eabi/include/c++/10.3.1/array **** 
  20:/Library/DaisyToolchain/0.2.0/arm/arm-none-eabi/include/c++/10.3.1/array **** // You should have received a copy of the GNU General Public License and
  21:/Library/DaisyToolchain/0.2.0/arm/arm-none-eabi/include/c++/10.3.1/array **** // a copy of the GCC Runtime Library Exception along with this program;
  22:/Library/DaisyToolchain/0.2.0/arm/arm-none-eabi/include/c++/10.3.1/array **** // see the files COPYING3 and COPYING.RUNTIME respectively.  If not, see
  23:/Library/DaisyToolchain/0.2.0/arm/arm-none-eabi/include/c++/10.3.1/array **** // <http://www.gnu.org/licenses/>.
  24:/Library/DaisyToolchain/0.2.0/arm/arm-none-eabi/include/c++/10.3.1/array **** 
  25:/Library/DaisyToolchain/0.2.0/arm/arm-none-eabi/include/c++/10.3.1/array **** /** @file include/array
  26:/Library/DaisyToolchain/0.2.0/arm/arm-none-eabi/include/c++/10.3.1/array ****  *  This is a Standard C++ Library header.
  27:/Library/DaisyToolchain/0.2.0/arm/arm-none-eabi/include/c++/10.3.1/array ****  */
  28:/Library/DaisyToolchain/0.2.0/arm/arm-none-eabi/include/c++/10.3.1/array **** 
  29:/Library/DaisyToolchain/0.2.0/arm/arm-none-eabi/include/c++/10.3.1/array **** #ifndef _GLIBCXX_ARRAY
  30:/Library/DaisyToolchain/0.2.0/arm/arm-none-eabi/include/c++/10.3.1/array **** #define _GLIBCXX_ARRAY 1
  31:/Library/DaisyToolchain/0.2.0/arm/arm-none-eabi/include/c++/10.3.1/array **** 
  32:/Library/DaisyToolchain/0.2.0/arm/arm-none-eabi/include/c++/10.3.1/array **** #pragma GCC system_header
  33:/Library/DaisyToolchain/0.2.0/arm/arm-none-eabi/include/c++/10.3.1/array **** 
  34:/Library/DaisyToolchain/0.2.0/arm/arm-none-eabi/include/c++/10.3.1/array **** #if __cplusplus < 201103L
  35:/Library/DaisyToolchain/0.2.0/arm/arm-none-eabi/include/c++/10.3.1/array **** # include <bits/c++0x_warning.h>
  36:/Library/DaisyToolchain/0.2.0/arm/arm-none-eabi/include/c++/10.3.1/array **** #else
  37:/Library/DaisyToolchain/0.2.0/arm/arm-none-eabi/include/c++/10.3.1/array **** 
  38:/Library/DaisyToolchain/0.2.0/arm/arm-none-eabi/include/c++/10.3.1/array **** #include <utility>
  39:/Library/DaisyToolchain/0.2.0/arm/arm-none-eabi/include/c++/10.3.1/array **** #include <bits/functexcept.h>
  40:/Library/DaisyToolchain/0.2.0/arm/arm-none-eabi/include/c++/10.3.1/array **** #include <bits/stl_algobase.h>
  41:/Library/DaisyToolchain/0.2.0/arm/arm-none-eabi/include/c++/10.3.1/array **** #include <bits/range_access.h>
  42:/Library/DaisyToolchain/0.2.0/arm/arm-none-eabi/include/c++/10.3.1/array **** 
  43:/Library/DaisyToolchain/0.2.0/arm/arm-none-eabi/include/c++/10.3.1/array **** namespace std _GLIBCXX_VISIBILITY(default)
  44:/Library/DaisyToolchain/0.2.0/arm/arm-none-eabi/include/c++/10.3.1/array **** {
  45:/Library/DaisyToolchain/0.2.0/arm/arm-none-eabi/include/c++/10.3.1/array **** _GLIBCXX_BEGIN_NAMESPACE_CONTAINER
  46:/Library/DaisyToolchain/0.2.0/arm/arm-none-eabi/include/c++/10.3.1/array **** 
  47:/Library/DaisyToolchain/0.2.0/arm/arm-none-eabi/include/c++/10.3.1/array ****   template<typename _Tp, std::size_t _Nm>
  48:/Library/DaisyToolchain/0.2.0/arm/arm-none-eabi/include/c++/10.3.1/array ****     struct __array_traits
  49:/Library/DaisyToolchain/0.2.0/arm/arm-none-eabi/include/c++/10.3.1/array ****     {
  50:/Library/DaisyToolchain/0.2.0/arm/arm-none-eabi/include/c++/10.3.1/array ****       typedef _Tp _Type[_Nm];
  51:/Library/DaisyToolchain/0.2.0/arm/arm-none-eabi/include/c++/10.3.1/array ****       typedef __is_swappable<_Tp> _Is_swappable;
  52:/Library/DaisyToolchain/0.2.0/arm/arm-none-eabi/include/c++/10.3.1/array ****       typedef __is_nothrow_swappable<_Tp> _Is_nothrow_swappable;
  53:/Library/DaisyToolchain/0.2.0/arm/arm-none-eabi/include/c++/10.3.1/array **** 
  54:/Library/DaisyToolchain/0.2.0/arm/arm-none-eabi/include/c++/10.3.1/array ****       static constexpr _Tp&
  55:/Library/DaisyToolchain/0.2.0/arm/arm-none-eabi/include/c++/10.3.1/array ****       _S_ref(const _Type& __t, std::size_t __n) noexcept
  56:/Library/DaisyToolchain/0.2.0/arm/arm-none-eabi/include/c++/10.3.1/array ****       { return const_cast<_Tp&>(__t[__n]); }
  57:/Library/DaisyToolchain/0.2.0/arm/arm-none-eabi/include/c++/10.3.1/array **** 
ARM GAS  /var/folders/yd/h_51qzcj4039f6rvxdz3lvym0000gn/T//ccKvYnDW.s 			page 12


  58:/Library/DaisyToolchain/0.2.0/arm/arm-none-eabi/include/c++/10.3.1/array ****       static constexpr _Tp*
  59:/Library/DaisyToolchain/0.2.0/arm/arm-none-eabi/include/c++/10.3.1/array ****       _S_ptr(const _Type& __t) noexcept
  60:/Library/DaisyToolchain/0.2.0/arm/arm-none-eabi/include/c++/10.3.1/array ****       { return const_cast<_Tp*>(__t); }
  61:/Library/DaisyToolchain/0.2.0/arm/arm-none-eabi/include/c++/10.3.1/array ****     };
  62:/Library/DaisyToolchain/0.2.0/arm/arm-none-eabi/include/c++/10.3.1/array **** 
  63:/Library/DaisyToolchain/0.2.0/arm/arm-none-eabi/include/c++/10.3.1/array ****  template<typename _Tp>
  64:/Library/DaisyToolchain/0.2.0/arm/arm-none-eabi/include/c++/10.3.1/array ****    struct __array_traits<_Tp, 0>
  65:/Library/DaisyToolchain/0.2.0/arm/arm-none-eabi/include/c++/10.3.1/array ****    {
  66:/Library/DaisyToolchain/0.2.0/arm/arm-none-eabi/include/c++/10.3.1/array ****      struct _Type { };
  67:/Library/DaisyToolchain/0.2.0/arm/arm-none-eabi/include/c++/10.3.1/array ****      typedef true_type _Is_swappable;
  68:/Library/DaisyToolchain/0.2.0/arm/arm-none-eabi/include/c++/10.3.1/array ****      typedef true_type _Is_nothrow_swappable;
  69:/Library/DaisyToolchain/0.2.0/arm/arm-none-eabi/include/c++/10.3.1/array **** 
  70:/Library/DaisyToolchain/0.2.0/arm/arm-none-eabi/include/c++/10.3.1/array ****      static constexpr _Tp&
  71:/Library/DaisyToolchain/0.2.0/arm/arm-none-eabi/include/c++/10.3.1/array ****      _S_ref(const _Type&, std::size_t) noexcept
  72:/Library/DaisyToolchain/0.2.0/arm/arm-none-eabi/include/c++/10.3.1/array ****      { return *static_cast<_Tp*>(nullptr); }
  73:/Library/DaisyToolchain/0.2.0/arm/arm-none-eabi/include/c++/10.3.1/array **** 
  74:/Library/DaisyToolchain/0.2.0/arm/arm-none-eabi/include/c++/10.3.1/array ****      static constexpr _Tp*
  75:/Library/DaisyToolchain/0.2.0/arm/arm-none-eabi/include/c++/10.3.1/array ****      _S_ptr(const _Type&) noexcept
  76:/Library/DaisyToolchain/0.2.0/arm/arm-none-eabi/include/c++/10.3.1/array ****      { return nullptr; }
  77:/Library/DaisyToolchain/0.2.0/arm/arm-none-eabi/include/c++/10.3.1/array ****    };
  78:/Library/DaisyToolchain/0.2.0/arm/arm-none-eabi/include/c++/10.3.1/array **** 
  79:/Library/DaisyToolchain/0.2.0/arm/arm-none-eabi/include/c++/10.3.1/array ****   /**
  80:/Library/DaisyToolchain/0.2.0/arm/arm-none-eabi/include/c++/10.3.1/array ****    *  @brief A standard container for storing a fixed size sequence of elements.
  81:/Library/DaisyToolchain/0.2.0/arm/arm-none-eabi/include/c++/10.3.1/array ****    *
  82:/Library/DaisyToolchain/0.2.0/arm/arm-none-eabi/include/c++/10.3.1/array ****    *  @ingroup sequences
  83:/Library/DaisyToolchain/0.2.0/arm/arm-none-eabi/include/c++/10.3.1/array ****    *
  84:/Library/DaisyToolchain/0.2.0/arm/arm-none-eabi/include/c++/10.3.1/array ****    *  Meets the requirements of a <a href="tables.html#65">container</a>, a
  85:/Library/DaisyToolchain/0.2.0/arm/arm-none-eabi/include/c++/10.3.1/array ****    *  <a href="tables.html#66">reversible container</a>, and a
  86:/Library/DaisyToolchain/0.2.0/arm/arm-none-eabi/include/c++/10.3.1/array ****    *  <a href="tables.html#67">sequence</a>.
  87:/Library/DaisyToolchain/0.2.0/arm/arm-none-eabi/include/c++/10.3.1/array ****    *
  88:/Library/DaisyToolchain/0.2.0/arm/arm-none-eabi/include/c++/10.3.1/array ****    *  Sets support random access iterators.
  89:/Library/DaisyToolchain/0.2.0/arm/arm-none-eabi/include/c++/10.3.1/array ****    *
  90:/Library/DaisyToolchain/0.2.0/arm/arm-none-eabi/include/c++/10.3.1/array ****    *  @tparam  Tp  Type of element. Required to be a complete type.
  91:/Library/DaisyToolchain/0.2.0/arm/arm-none-eabi/include/c++/10.3.1/array ****    *  @tparam  Nm  Number of elements.
  92:/Library/DaisyToolchain/0.2.0/arm/arm-none-eabi/include/c++/10.3.1/array ****   */
  93:/Library/DaisyToolchain/0.2.0/arm/arm-none-eabi/include/c++/10.3.1/array ****   template<typename _Tp, std::size_t _Nm>
  94:/Library/DaisyToolchain/0.2.0/arm/arm-none-eabi/include/c++/10.3.1/array ****     struct array
 140              		.loc 8 94 12 view .LVU23
 141              		.loc 8 94 12 is_stmt 0 view .LVU24
 142              	.LBE1243:
 143              	.LBB1244:
 144              	.LBI1244:
 145              		.loc 8 94 12 is_stmt 1 view .LVU25
 146              		.loc 8 94 12 is_stmt 0 view .LVU26
 147              	.LBE1244:
 148              	.LBB1245:
 149              	.LBI1245:
 150              		.loc 8 94 12 is_stmt 1 view .LVU27
 151              		.loc 8 94 12 is_stmt 0 view .LVU28
 152              	.LBE1245:
 153              		.loc 7 33 7 view .LVU29
 154 0000 7047     		bx	lr
 155              		.cfi_endproc
 156              	.LFE6178:
 158              		.weak	_ZN8controls8ControlsILj6ELj4ELj2ELj2EED1Ev
 159              		.thumb_set _ZN8controls8ControlsILj6ELj4ELj2ELj2EED1Ev,_ZN8controls8ControlsILj6ELj4ELj2ELj2EED2Ev
 160 0002 00BF     		.section	.text._ZN7chowdsp4wdft7BaseWDF24propagateImpedanceChangeEv,"axG",%progbits,_ZN7chowdsp4wd
ARM GAS  /var/folders/yd/h_51qzcj4039f6rvxdz3lvym0000gn/T//ccKvYnDW.s 			page 13


 161              		.align	1
 162              		.p2align 2,,3
 163              		.weak	_ZN7chowdsp4wdft7BaseWDF24propagateImpedanceChangeEv
 164              		.syntax unified
 165              		.thumb
 166              		.thumb_func
 168              	_ZN7chowdsp4wdft7BaseWDF24propagateImpedanceChangeEv:
 169              	.LVL6:
 170              	.LFB4685:
 171              		.file 9 "./chowdsp_wdf/wdft/wdft_base.h"
   1:./chowdsp_wdf/wdft/wdft_base.h **** #ifndef CHOWDSP_WDF_WDFT_BASE_H
   2:./chowdsp_wdf/wdft/wdft_base.h **** #define CHOWDSP_WDF_WDFT_BASE_H
   3:./chowdsp_wdf/wdft/wdft_base.h **** 
   4:./chowdsp_wdf/wdft/wdft_base.h **** #include "../math/sample_type.h"
   5:./chowdsp_wdf/wdft/wdft_base.h **** 
   6:./chowdsp_wdf/wdft/wdft_base.h **** namespace chowdsp
   7:./chowdsp_wdf/wdft/wdft_base.h **** {
   8:./chowdsp_wdf/wdft/wdft_base.h **** namespace wdft
   9:./chowdsp_wdf/wdft/wdft_base.h **** {
  10:./chowdsp_wdf/wdft/wdft_base.h ****     /** Base WDF class for propagating impedance changes between elements */
  11:./chowdsp_wdf/wdft/wdft_base.h ****     class BaseWDF
  12:./chowdsp_wdf/wdft/wdft_base.h ****     {
  13:./chowdsp_wdf/wdft/wdft_base.h ****     public:
  14:./chowdsp_wdf/wdft/wdft_base.h ****         virtual ~BaseWDF() = default;
  15:./chowdsp_wdf/wdft/wdft_base.h **** 
  16:./chowdsp_wdf/wdft/wdft_base.h ****         void connectToParent (BaseWDF* p) { parent = p; }
  17:./chowdsp_wdf/wdft/wdft_base.h **** 
  18:./chowdsp_wdf/wdft/wdft_base.h ****         virtual void calcImpedance() = 0;
  19:./chowdsp_wdf/wdft/wdft_base.h **** 
  20:./chowdsp_wdf/wdft/wdft_base.h ****         inline virtual void propagateImpedanceChange()
 172              		.loc 9 20 29 is_stmt 1 view -0
 173              		.cfi_startproc
 174              		@ args = 0, pretend = 0, frame = 0
 175              		@ frame_needed = 0, uses_anonymous_args = 0
  21:./chowdsp_wdf/wdft/wdft_base.h ****         {
  22:./chowdsp_wdf/wdft/wdft_base.h ****             if (dontPropagateImpedance)
 176              		.loc 9 22 13 view .LVU31
 177 0000 037A     		ldrb	r3, [r0, #8]	@ zero_extendqisi2
 178 0002 63B9     		cbnz	r3, .L15
 179              	.LVL7:
 180              	.LBB1248:
 181              	.LBI1248:
  20:./chowdsp_wdf/wdft/wdft_base.h ****         {
 182              		.loc 9 20 29 view .LVU32
 183              	.LBB1249:
  23:./chowdsp_wdf/wdft/wdft_base.h ****                 return; // the impedance propagation is being deferred until later...
  24:./chowdsp_wdf/wdft/wdft_base.h **** 
  25:./chowdsp_wdf/wdft/wdft_base.h ****             calcImpedance();
 184              		.loc 9 25 13 view .LVU33
 185              		.loc 9 25 27 is_stmt 0 view .LVU34
 186 0004 0368     		ldr	r3, [r0]
 187              	.LBE1249:
 188              	.LBE1248:
  20:./chowdsp_wdf/wdft/wdft_base.h ****         {
 189              		.loc 9 20 29 view .LVU35
 190 0006 10B5     		push	{r4, lr}
 191              		.cfi_def_cfa_offset 8
ARM GAS  /var/folders/yd/h_51qzcj4039f6rvxdz3lvym0000gn/T//ccKvYnDW.s 			page 14


 192              		.cfi_offset 4, -8
 193              		.cfi_offset 14, -4
 194 0008 0446     		mov	r4, r0
 195              	.LBB1252:
 196              	.LBB1250:
 197              		.loc 9 25 26 view .LVU36
 198 000a 9B68     		ldr	r3, [r3, #8]
 199 000c 9847     		blx	r3
 200              	.LVL8:
  26:./chowdsp_wdf/wdft/wdft_base.h **** 
  27:./chowdsp_wdf/wdft/wdft_base.h ****             if (parent != nullptr)
 201              		.loc 9 27 13 is_stmt 1 view .LVU37
 202              		.loc 9 27 17 is_stmt 0 view .LVU38
 203 000e 6068     		ldr	r0, [r4, #4]
 204              		.loc 9 27 13 view .LVU39
 205 0010 20B1     		cbz	r0, .L7
  28:./chowdsp_wdf/wdft/wdft_base.h ****                 parent->propagateImpedanceChange();
 206              		.loc 9 28 17 is_stmt 1 view .LVU40
 207              		.loc 9 28 50 is_stmt 0 view .LVU41
 208 0012 0368     		ldr	r3, [r0]
 209              	.LBE1250:
 210              	.LBE1252:
  29:./chowdsp_wdf/wdft/wdft_base.h ****         }
 211              		.loc 9 29 9 view .LVU42
 212 0014 BDE81040 		pop	{r4, lr}
 213              		.cfi_remember_state
 214              		.cfi_restore 14
 215              		.cfi_restore 4
 216              		.cfi_def_cfa_offset 0
 217              	.LVL9:
 218              	.LBB1253:
 219              	.LBB1251:
  28:./chowdsp_wdf/wdft/wdft_base.h ****                 parent->propagateImpedanceChange();
 220              		.loc 9 28 49 view .LVU43
 221 0018 DB68     		ldr	r3, [r3, #12]
 222 001a 1847     		bx	r3	@ indirect register sibling call
 223              	.LVL10:
 224              	.L7:
 225              		.cfi_restore_state
  28:./chowdsp_wdf/wdft/wdft_base.h ****                 parent->propagateImpedanceChange();
 226              		.loc 9 28 49 view .LVU44
 227              	.LBE1251:
 228              	.LBE1253:
 229              		.loc 9 29 9 view .LVU45
 230 001c 10BD     		pop	{r4, pc}
 231              	.LVL11:
 232              	.L15:
 233              		.cfi_def_cfa_offset 0
 234              		.cfi_restore 4
 235              		.cfi_restore 14
 236              		.loc 9 29 9 view .LVU46
 237 001e 7047     		bx	lr
 238              		.cfi_endproc
 239              	.LFE4685:
 241              		.section	.text._Z13AudioCallbackPKfPfj,"ax",%progbits
 242              		.align	1
 243              		.p2align 2,,3
ARM GAS  /var/folders/yd/h_51qzcj4039f6rvxdz3lvym0000gn/T//ccKvYnDW.s 			page 15


 244              		.global	_Z13AudioCallbackPKfPfj
 245              		.syntax unified
 246              		.thumb
 247              		.thumb_func
 249              	_Z13AudioCallbackPKfPfj:
 250              	.LVL12:
 251              	.LFB5365:
 252              		.file 10 "main.cpp"
   1:main.cpp      **** /* Included Libraries, Header files and namespaces */
   2:main.cpp      **** 
   3:main.cpp      **** #include <string.h>
   4:main.cpp      **** #include <math.h>
   5:main.cpp      **** #include "daisy_seed.h"
   6:main.cpp      **** #include "daisysp.h"
   7:main.cpp      **** #include "daisy_core.h"
   8:main.cpp      **** #include "TubeScreamer.h"
   9:main.cpp      **** #include "Controls.h"
  10:main.cpp      **** 
  11:main.cpp      **** using namespace daisy;
  12:main.cpp      **** using namespace daisysp;
  13:main.cpp      **** using namespace daisy::seed;
  14:main.cpp      **** 
  15:main.cpp      **** using controls::Controls;
  16:main.cpp      **** 
  17:main.cpp      **** DaisySeed hw;
  18:main.cpp      **** TubeScreamer ts;
  19:main.cpp      **** 
  20:main.cpp      **** // 6 pots on A(1-6); 4 SPST toggle on D(7-10); 2 momentary footswitches on D25 & D26
  21:main.cpp      **** constexpr size_t kNPots = 6, kNToggles = 4, kNFoots = 2, kNLeds = 2;
  22:main.cpp      **** Controls <kNPots, kNToggles, kNFoots, kNLeds> ui;
  23:main.cpp      **** 
  24:main.cpp      **** float sampleRate;
  25:main.cpp      **** 
  26:main.cpp      **** 
  27:main.cpp      **** void AudioCallback(AudioHandle::InterleavingInputBuffer in, 
  28:main.cpp      ****                    AudioHandle::InterleavingOutputBuffer out, 
  29:main.cpp      ****                    size_t size)
  30:main.cpp      **** {
 253              		.loc 10 30 1 is_stmt 1 view -0
 254              		.cfi_startproc
 255              		@ args = 0, pretend = 0, frame = 0
 256              		@ frame_needed = 0, uses_anonymous_args = 0
  31:main.cpp      **** 
  32:main.cpp      ****      // Update controls once per block
  33:main.cpp      ****     ui.Update();
 257              		.loc 10 33 5 view .LVU48
 258              	.LBB1323:
 259              	.LBI1323:
  34:Controls.h    **** {
  35:Controls.h    ****   public:
  36:Controls.h    ****     Controls() = default;
  37:Controls.h    **** 
  38:Controls.h    ****     /** Initialize all controls.
  39:Controls.h    ****      *
  40:Controls.h    ****      * @param hw                 DaisySeed instance (already Init()'d)
  41:Controls.h    ****      * @param pot_pins           array of ADC-capable pins for pots (A0..A11)
  42:Controls.h    ****      * @param toggle_pins        array of GPIO pins for SPST latching switches
ARM GAS  /var/folders/yd/h_51qzcj4039f6rvxdz3lvym0000gn/T//ccKvYnDW.s 			page 16


  43:Controls.h    ****      * @param foot_pins          array of GPIO pins for momentary footswitches
  44:Controls.h    ****      * @param leds_pins          array of GPIO pins for LEDs
  45:Controls.h    ****      * @param effect_on          initial state of effect (true=on), default false
  46:Controls.h    ****      * @param ctrl_update_hz     rate in Hz that Update() will be called (usually AudioSampleRate/B
  47:Controls.h    ****      * @param pot_flip           invert 0..1 reading (hardware orientation), default false
  48:Controls.h    ****      * @param pot_invert         multiply by -1 (rarely needed), default false
  49:Controls.h    ****      * @param pot_slew_seconds   smoothing time constant (default 2 ms)
  50:Controls.h    ****      */
  51:Controls.h    ****     void Init(DaisySeed& hw,
  52:Controls.h    ****               const Pin (&pot_pins)[NPots],
  53:Controls.h    ****               const Pin (&toggle_pins)[NToggles],
  54:Controls.h    ****               const Pin (&foot_pins)[NFoots],
  55:Controls.h    ****               const Pin (&leds_pins)[NLeds],
  56:Controls.h    ****               float      ctrl_update_hz,
  57:Controls.h    ****               bool       pot_flip         = false,
  58:Controls.h    ****               bool       pot_invert       = false,
  59:Controls.h    ****               bool       effect_on        = false,
  60:Controls.h    ****               float      pot_slew_seconds = 0.002f)
  61:Controls.h    ****     {
  62:Controls.h    ****         hw_            = &hw;
  63:Controls.h    ****         ctrl_update_hz_ = ctrl_update_hz;
  64:Controls.h    ****         effect_on_     = effect_on;
  65:Controls.h    **** 
  66:Controls.h    ****         // --- ADC + Pots ---
  67:Controls.h    ****         if (NPots > 0)
  68:Controls.h    ****         {
  69:Controls.h    ****             for(size_t i = 0; i < NPots; ++i)
  70:Controls.h    ****                 adc_cfg_[i].InitSingle(pot_pins[i]);
  71:Controls.h    **** 
  72:Controls.h    ****             hw_->adc.Init(adc_cfg_.data(), NPots);
  73:Controls.h    ****             hw_->adc.Start();
  74:Controls.h    **** 
  75:Controls.h    ****             for(size_t i = 0; i < NPots; ++i)
  76:Controls.h    ****             {
  77:Controls.h    ****                 pots_[i].Init(hw_->adc.GetPtr(i), ctrl_update_hz_, pot_flip, pot_invert, pot_slew_s
  78:Controls.h    ****                 pot_values_[i] = 0.f;
  79:Controls.h    ****             }
  80:Controls.h    ****         }
  81:Controls.h    **** 
  82:Controls.h    ****         // --- SPST Toggles (latching) ---
  83:Controls.h    ****         if (NToggles > 0)
  84:Controls.h    ****         {
  85:Controls.h    ****             for(size_t i = 0; i < NToggles; ++i)
  86:Controls.h    ****             {
  87:Controls.h    ****                 toggles_[i].Init(toggle_pins[i]); // defaults: momentary, inverted, pull-up
  88:Controls.h    ****             }
  89:Controls.h    ****         }
  90:Controls.h    **** 
  91:Controls.h    ****         // --- Momentary Footswitches ---
  92:Controls.h    ****         if (NFoots > 0)
  93:Controls.h    ****         {
  94:Controls.h    ****             for(size_t i = 0; i < NFoots; ++i)
  95:Controls.h    ****             {
  96:Controls.h    ****                 foots_[i].Init(foot_pins[i]);     // defaults: momentary, inverted, pull-up
  97:Controls.h    ****             }
  98:Controls.h    ****         }
  99:Controls.h    **** 
ARM GAS  /var/folders/yd/h_51qzcj4039f6rvxdz3lvym0000gn/T//ccKvYnDW.s 			page 17


 100:Controls.h    ****         // --- LEDs ---
 101:Controls.h    ****         if (NLeds > 0)
 102:Controls.h    ****         {
 103:Controls.h    ****             for(size_t i = 0; i < NLeds; ++i)
 104:Controls.h    ****             {
 105:Controls.h    ****                 leds_[i].Init(leds_pins[i],
 106:Controls.h    ****                         GPIO::Mode::OUTPUT,
 107:Controls.h    ****                         GPIO::Pull::NOPULL,
 108:Controls.h    ****                         GPIO::Speed::LOW);
 109:Controls.h    ****                 leds_[i].Write(false); // start OFF
 110:Controls.h    ****             }
 111:Controls.h    ****         }
 112:Controls.h    ****     }
 113:Controls.h    **** 
 114:Controls.h    ****     /** Call once per audio block (or at ctrl_update_hz). */
 115:Controls.h    ****     void Update()
 260              		.loc 7 115 10 view .LVU49
 261              	.LBB1324:
 116:Controls.h    ****     {
 117:Controls.h    ****         if (NPots > 0)
 118:Controls.h    ****         {
 119:Controls.h    ****             for(size_t i = 0; i < NPots; ++i)
 262              		.loc 7 119 33 view .LVU50
 263              	.LBE1324:
 264              	.LBE1323:
  30:main.cpp      **** 
 265              		.loc 10 30 1 is_stmt 0 view .LVU51
 266 0000 2DE9F843 		push	{r3, r4, r5, r6, r7, r8, r9, lr}
 267              		.cfi_def_cfa_offset 32
 268              		.cfi_offset 3, -32
 269              		.cfi_offset 4, -28
 270              		.cfi_offset 5, -24
 271              		.cfi_offset 6, -20
 272              		.cfi_offset 7, -16
 273              		.cfi_offset 8, -12
 274              		.cfi_offset 9, -8
 275              		.cfi_offset 14, -4
 276 0004 644E     		ldr	r6, .L47
 277 0006 0546     		mov	r5, r0
 278 0008 0C46     		mov	r4, r1
 279 000a 9046     		mov	r8, r2
 280 000c 06F1C007 		add	r7, r6, #192
 281 0010 06F1D809 		add	r9, r6, #216
 282 0014 2DED048B 		vpush.64	{d8, d9}
 283              		.cfi_def_cfa_offset 48
 284              		.cfi_offset 80, -48
 285              		.cfi_offset 81, -44
 286              		.cfi_offset 82, -40
 287              		.cfi_offset 83, -36
 288              	.LVL13:
 289              	.L19:
 290              	.LBB1342:
 291              	.LBB1327:
 292              	.LBB1325:
 293              	.LBI1325:
  95:/Library/DaisyToolchain/0.2.0/arm/arm-none-eabi/include/c++/10.3.1/array ****     {
  96:/Library/DaisyToolchain/0.2.0/arm/arm-none-eabi/include/c++/10.3.1/array ****       typedef _Tp 	    			      value_type;
ARM GAS  /var/folders/yd/h_51qzcj4039f6rvxdz3lvym0000gn/T//ccKvYnDW.s 			page 18


  97:/Library/DaisyToolchain/0.2.0/arm/arm-none-eabi/include/c++/10.3.1/array ****       typedef value_type*			      pointer;
  98:/Library/DaisyToolchain/0.2.0/arm/arm-none-eabi/include/c++/10.3.1/array ****       typedef const value_type*                       const_pointer;
  99:/Library/DaisyToolchain/0.2.0/arm/arm-none-eabi/include/c++/10.3.1/array ****       typedef value_type&                   	      reference;
 100:/Library/DaisyToolchain/0.2.0/arm/arm-none-eabi/include/c++/10.3.1/array ****       typedef const value_type&             	      const_reference;
 101:/Library/DaisyToolchain/0.2.0/arm/arm-none-eabi/include/c++/10.3.1/array ****       typedef value_type*          		      iterator;
 102:/Library/DaisyToolchain/0.2.0/arm/arm-none-eabi/include/c++/10.3.1/array ****       typedef const value_type*			      const_iterator;
 103:/Library/DaisyToolchain/0.2.0/arm/arm-none-eabi/include/c++/10.3.1/array ****       typedef std::size_t                    	      size_type;
 104:/Library/DaisyToolchain/0.2.0/arm/arm-none-eabi/include/c++/10.3.1/array ****       typedef std::ptrdiff_t                   	      difference_type;
 105:/Library/DaisyToolchain/0.2.0/arm/arm-none-eabi/include/c++/10.3.1/array ****       typedef std::reverse_iterator<iterator>	      reverse_iterator;
 106:/Library/DaisyToolchain/0.2.0/arm/arm-none-eabi/include/c++/10.3.1/array ****       typedef std::reverse_iterator<const_iterator>   const_reverse_iterator;
 107:/Library/DaisyToolchain/0.2.0/arm/arm-none-eabi/include/c++/10.3.1/array **** 
 108:/Library/DaisyToolchain/0.2.0/arm/arm-none-eabi/include/c++/10.3.1/array ****       // Support for zero-sized arrays mandatory.
 109:/Library/DaisyToolchain/0.2.0/arm/arm-none-eabi/include/c++/10.3.1/array ****       typedef _GLIBCXX_STD_C::__array_traits<_Tp, _Nm> _AT_Type;
 110:/Library/DaisyToolchain/0.2.0/arm/arm-none-eabi/include/c++/10.3.1/array ****       typename _AT_Type::_Type                         _M_elems;
 111:/Library/DaisyToolchain/0.2.0/arm/arm-none-eabi/include/c++/10.3.1/array **** 
 112:/Library/DaisyToolchain/0.2.0/arm/arm-none-eabi/include/c++/10.3.1/array ****       // No explicit construct/copy/destroy for aggregate type.
 113:/Library/DaisyToolchain/0.2.0/arm/arm-none-eabi/include/c++/10.3.1/array **** 
 114:/Library/DaisyToolchain/0.2.0/arm/arm-none-eabi/include/c++/10.3.1/array ****       // DR 776.
 115:/Library/DaisyToolchain/0.2.0/arm/arm-none-eabi/include/c++/10.3.1/array ****       _GLIBCXX20_CONSTEXPR void
 116:/Library/DaisyToolchain/0.2.0/arm/arm-none-eabi/include/c++/10.3.1/array ****       fill(const value_type& __u)
 117:/Library/DaisyToolchain/0.2.0/arm/arm-none-eabi/include/c++/10.3.1/array ****       { std::fill_n(begin(), size(), __u); }
 118:/Library/DaisyToolchain/0.2.0/arm/arm-none-eabi/include/c++/10.3.1/array **** 
 119:/Library/DaisyToolchain/0.2.0/arm/arm-none-eabi/include/c++/10.3.1/array ****       _GLIBCXX20_CONSTEXPR void
 120:/Library/DaisyToolchain/0.2.0/arm/arm-none-eabi/include/c++/10.3.1/array ****       swap(array& __other)
 121:/Library/DaisyToolchain/0.2.0/arm/arm-none-eabi/include/c++/10.3.1/array ****       noexcept(_AT_Type::_Is_nothrow_swappable::value)
 122:/Library/DaisyToolchain/0.2.0/arm/arm-none-eabi/include/c++/10.3.1/array ****       { std::swap_ranges(begin(), end(), __other.begin()); }
 123:/Library/DaisyToolchain/0.2.0/arm/arm-none-eabi/include/c++/10.3.1/array **** 
 124:/Library/DaisyToolchain/0.2.0/arm/arm-none-eabi/include/c++/10.3.1/array ****       // Iterators.
 125:/Library/DaisyToolchain/0.2.0/arm/arm-none-eabi/include/c++/10.3.1/array ****       _GLIBCXX17_CONSTEXPR iterator
 126:/Library/DaisyToolchain/0.2.0/arm/arm-none-eabi/include/c++/10.3.1/array ****       begin() noexcept
 127:/Library/DaisyToolchain/0.2.0/arm/arm-none-eabi/include/c++/10.3.1/array ****       { return iterator(data()); }
 128:/Library/DaisyToolchain/0.2.0/arm/arm-none-eabi/include/c++/10.3.1/array **** 
 129:/Library/DaisyToolchain/0.2.0/arm/arm-none-eabi/include/c++/10.3.1/array ****       _GLIBCXX17_CONSTEXPR const_iterator
 130:/Library/DaisyToolchain/0.2.0/arm/arm-none-eabi/include/c++/10.3.1/array ****       begin() const noexcept
 131:/Library/DaisyToolchain/0.2.0/arm/arm-none-eabi/include/c++/10.3.1/array ****       { return const_iterator(data()); }
 132:/Library/DaisyToolchain/0.2.0/arm/arm-none-eabi/include/c++/10.3.1/array **** 
 133:/Library/DaisyToolchain/0.2.0/arm/arm-none-eabi/include/c++/10.3.1/array ****       _GLIBCXX17_CONSTEXPR iterator
 134:/Library/DaisyToolchain/0.2.0/arm/arm-none-eabi/include/c++/10.3.1/array ****       end() noexcept
 135:/Library/DaisyToolchain/0.2.0/arm/arm-none-eabi/include/c++/10.3.1/array ****       { return iterator(data() + _Nm); }
 136:/Library/DaisyToolchain/0.2.0/arm/arm-none-eabi/include/c++/10.3.1/array **** 
 137:/Library/DaisyToolchain/0.2.0/arm/arm-none-eabi/include/c++/10.3.1/array ****       _GLIBCXX17_CONSTEXPR const_iterator
 138:/Library/DaisyToolchain/0.2.0/arm/arm-none-eabi/include/c++/10.3.1/array ****       end() const noexcept
 139:/Library/DaisyToolchain/0.2.0/arm/arm-none-eabi/include/c++/10.3.1/array ****       { return const_iterator(data() + _Nm); }
 140:/Library/DaisyToolchain/0.2.0/arm/arm-none-eabi/include/c++/10.3.1/array **** 
 141:/Library/DaisyToolchain/0.2.0/arm/arm-none-eabi/include/c++/10.3.1/array ****       _GLIBCXX17_CONSTEXPR reverse_iterator
 142:/Library/DaisyToolchain/0.2.0/arm/arm-none-eabi/include/c++/10.3.1/array ****       rbegin() noexcept
 143:/Library/DaisyToolchain/0.2.0/arm/arm-none-eabi/include/c++/10.3.1/array ****       { return reverse_iterator(end()); }
 144:/Library/DaisyToolchain/0.2.0/arm/arm-none-eabi/include/c++/10.3.1/array **** 
 145:/Library/DaisyToolchain/0.2.0/arm/arm-none-eabi/include/c++/10.3.1/array ****       _GLIBCXX17_CONSTEXPR const_reverse_iterator
 146:/Library/DaisyToolchain/0.2.0/arm/arm-none-eabi/include/c++/10.3.1/array ****       rbegin() const noexcept
 147:/Library/DaisyToolchain/0.2.0/arm/arm-none-eabi/include/c++/10.3.1/array ****       { return const_reverse_iterator(end()); }
 148:/Library/DaisyToolchain/0.2.0/arm/arm-none-eabi/include/c++/10.3.1/array **** 
 149:/Library/DaisyToolchain/0.2.0/arm/arm-none-eabi/include/c++/10.3.1/array ****       _GLIBCXX17_CONSTEXPR reverse_iterator
 150:/Library/DaisyToolchain/0.2.0/arm/arm-none-eabi/include/c++/10.3.1/array ****       rend() noexcept
 151:/Library/DaisyToolchain/0.2.0/arm/arm-none-eabi/include/c++/10.3.1/array ****       { return reverse_iterator(begin()); }
 152:/Library/DaisyToolchain/0.2.0/arm/arm-none-eabi/include/c++/10.3.1/array **** 
 153:/Library/DaisyToolchain/0.2.0/arm/arm-none-eabi/include/c++/10.3.1/array ****       _GLIBCXX17_CONSTEXPR const_reverse_iterator
ARM GAS  /var/folders/yd/h_51qzcj4039f6rvxdz3lvym0000gn/T//ccKvYnDW.s 			page 19


 154:/Library/DaisyToolchain/0.2.0/arm/arm-none-eabi/include/c++/10.3.1/array ****       rend() const noexcept
 155:/Library/DaisyToolchain/0.2.0/arm/arm-none-eabi/include/c++/10.3.1/array ****       { return const_reverse_iterator(begin()); }
 156:/Library/DaisyToolchain/0.2.0/arm/arm-none-eabi/include/c++/10.3.1/array **** 
 157:/Library/DaisyToolchain/0.2.0/arm/arm-none-eabi/include/c++/10.3.1/array ****       _GLIBCXX17_CONSTEXPR const_iterator
 158:/Library/DaisyToolchain/0.2.0/arm/arm-none-eabi/include/c++/10.3.1/array ****       cbegin() const noexcept
 159:/Library/DaisyToolchain/0.2.0/arm/arm-none-eabi/include/c++/10.3.1/array ****       { return const_iterator(data()); }
 160:/Library/DaisyToolchain/0.2.0/arm/arm-none-eabi/include/c++/10.3.1/array **** 
 161:/Library/DaisyToolchain/0.2.0/arm/arm-none-eabi/include/c++/10.3.1/array ****       _GLIBCXX17_CONSTEXPR const_iterator
 162:/Library/DaisyToolchain/0.2.0/arm/arm-none-eabi/include/c++/10.3.1/array ****       cend() const noexcept
 163:/Library/DaisyToolchain/0.2.0/arm/arm-none-eabi/include/c++/10.3.1/array ****       { return const_iterator(data() + _Nm); }
 164:/Library/DaisyToolchain/0.2.0/arm/arm-none-eabi/include/c++/10.3.1/array **** 
 165:/Library/DaisyToolchain/0.2.0/arm/arm-none-eabi/include/c++/10.3.1/array ****       _GLIBCXX17_CONSTEXPR const_reverse_iterator
 166:/Library/DaisyToolchain/0.2.0/arm/arm-none-eabi/include/c++/10.3.1/array ****       crbegin() const noexcept
 167:/Library/DaisyToolchain/0.2.0/arm/arm-none-eabi/include/c++/10.3.1/array ****       { return const_reverse_iterator(end()); }
 168:/Library/DaisyToolchain/0.2.0/arm/arm-none-eabi/include/c++/10.3.1/array **** 
 169:/Library/DaisyToolchain/0.2.0/arm/arm-none-eabi/include/c++/10.3.1/array ****       _GLIBCXX17_CONSTEXPR const_reverse_iterator
 170:/Library/DaisyToolchain/0.2.0/arm/arm-none-eabi/include/c++/10.3.1/array ****       crend() const noexcept
 171:/Library/DaisyToolchain/0.2.0/arm/arm-none-eabi/include/c++/10.3.1/array ****       { return const_reverse_iterator(begin()); }
 172:/Library/DaisyToolchain/0.2.0/arm/arm-none-eabi/include/c++/10.3.1/array **** 
 173:/Library/DaisyToolchain/0.2.0/arm/arm-none-eabi/include/c++/10.3.1/array ****       // Capacity.
 174:/Library/DaisyToolchain/0.2.0/arm/arm-none-eabi/include/c++/10.3.1/array ****       constexpr size_type
 175:/Library/DaisyToolchain/0.2.0/arm/arm-none-eabi/include/c++/10.3.1/array ****       size() const noexcept { return _Nm; }
 176:/Library/DaisyToolchain/0.2.0/arm/arm-none-eabi/include/c++/10.3.1/array **** 
 177:/Library/DaisyToolchain/0.2.0/arm/arm-none-eabi/include/c++/10.3.1/array ****       constexpr size_type
 178:/Library/DaisyToolchain/0.2.0/arm/arm-none-eabi/include/c++/10.3.1/array ****       max_size() const noexcept { return _Nm; }
 179:/Library/DaisyToolchain/0.2.0/arm/arm-none-eabi/include/c++/10.3.1/array **** 
 180:/Library/DaisyToolchain/0.2.0/arm/arm-none-eabi/include/c++/10.3.1/array ****       _GLIBCXX_NODISCARD constexpr bool
 181:/Library/DaisyToolchain/0.2.0/arm/arm-none-eabi/include/c++/10.3.1/array ****       empty() const noexcept { return size() == 0; }
 182:/Library/DaisyToolchain/0.2.0/arm/arm-none-eabi/include/c++/10.3.1/array **** 
 183:/Library/DaisyToolchain/0.2.0/arm/arm-none-eabi/include/c++/10.3.1/array ****       // Element access.
 184:/Library/DaisyToolchain/0.2.0/arm/arm-none-eabi/include/c++/10.3.1/array ****       _GLIBCXX17_CONSTEXPR reference
 185:/Library/DaisyToolchain/0.2.0/arm/arm-none-eabi/include/c++/10.3.1/array ****       operator[](size_type __n) noexcept
 294              		.loc 8 185 7 is_stmt 1 view .LVU52
 295              	.LBB1326:
 296              	.LBI1326:
  55:/Library/DaisyToolchain/0.2.0/arm/arm-none-eabi/include/c++/10.3.1/array ****       { return const_cast<_Tp&>(__t[__n]); }
 297              		.loc 8 55 7 view .LVU53
  55:/Library/DaisyToolchain/0.2.0/arm/arm-none-eabi/include/c++/10.3.1/array ****       { return const_cast<_Tp&>(__t[__n]); }
 298              		.loc 8 55 7 is_stmt 0 view .LVU54
 299              	.LBE1326:
 300              	.LBE1325:
 120:Controls.h    ****                 pot_values_[i] = pots_[i].Process(); // smoothed, normalized 0..1
 301              		.loc 7 120 50 view .LVU55
 302 0018 3046     		mov	r0, r6
 119:Controls.h    ****                 pot_values_[i] = pots_[i].Process(); // smoothed, normalized 0..1
 303              		.loc 7 119 33 view .LVU56
 304 001a 2036     		adds	r6, r6, #32
 305              		.loc 7 120 50 view .LVU57
 306 001c FFF7FEFF 		bl	_ZN5daisy13AnalogControl7ProcessEv
 307              	.LVL14:
 308              		.loc 7 120 32 view .LVU58
 309 0020 A7EC010A 		vstmia.32	r7!, {s0}
 119:Controls.h    ****                 pot_values_[i] = pots_[i].Process(); // smoothed, normalized 0..1
 310              		.loc 7 119 13 is_stmt 1 view .LVU59
 119:Controls.h    ****                 pot_values_[i] = pots_[i].Process(); // smoothed, normalized 0..1
 311              		.loc 7 119 33 view .LVU60
 312 0024 B945     		cmp	r9, r7
ARM GAS  /var/folders/yd/h_51qzcj4039f6rvxdz3lvym0000gn/T//ccKvYnDW.s 			page 20


 313 0026 F7D1     		bne	.L19
 314              	.LVL15:
 119:Controls.h    ****                 pot_values_[i] = pots_[i].Process(); // smoothed, normalized 0..1
 315              		.loc 7 119 33 is_stmt 0 view .LVU61
 316              	.LBE1327:
 317              	.LBB1328:
 121:Controls.h    ****         }
 122:Controls.h    **** 
 123:Controls.h    ****         if (NToggles > 0)
 124:Controls.h    ****         {
 125:Controls.h    ****             for(size_t i = 0; i < NToggles; ++i)
 318              		.loc 7 125 33 is_stmt 1 view .LVU62
 319              	.LBB1329:
 320              	.LBI1329:
 321              		.loc 8 185 7 view .LVU63
 322              	.LBB1330:
 323              	.LBI1330:
  55:/Library/DaisyToolchain/0.2.0/arm/arm-none-eabi/include/c++/10.3.1/array ****       { return const_cast<_Tp&>(__t[__n]); }
 324              		.loc 8 55 7 view .LVU64
  55:/Library/DaisyToolchain/0.2.0/arm/arm-none-eabi/include/c++/10.3.1/array ****       { return const_cast<_Tp&>(__t[__n]); }
 325              		.loc 8 55 7 is_stmt 0 view .LVU65
 326              	.LBE1330:
 327              	.LBE1329:
 126:Controls.h    ****                 toggles_[i].Debounce();
 328              		.loc 7 126 37 view .LVU66
 329 0028 5C4E     		ldr	r6, .L47+4
 330 002a 06F5A870 		add	r0, r6, #336
 331 002e FFF7FEFF 		bl	_ZN5daisy6Switch8DebounceEv
 332              	.LVL16:
 125:Controls.h    ****                 toggles_[i].Debounce();
 333              		.loc 7 125 13 is_stmt 1 view .LVU67
 125:Controls.h    ****                 toggles_[i].Debounce();
 334              		.loc 7 125 33 view .LVU68
 335              	.LBB1334:
 336              		.loc 8 185 7 view .LVU69
 337              	.LBB1331:
  55:/Library/DaisyToolchain/0.2.0/arm/arm-none-eabi/include/c++/10.3.1/array ****       { return const_cast<_Tp&>(__t[__n]); }
 338              		.loc 8 55 7 view .LVU70
  55:/Library/DaisyToolchain/0.2.0/arm/arm-none-eabi/include/c++/10.3.1/array ****       { return const_cast<_Tp&>(__t[__n]); }
 339              		.loc 8 55 7 is_stmt 0 view .LVU71
 340              	.LBE1331:
 341              	.LBE1334:
 342              		.loc 7 126 37 view .LVU72
 343 0032 06F5B070 		add	r0, r6, #352
 344 0036 FFF7FEFF 		bl	_ZN5daisy6Switch8DebounceEv
 345              	.LVL17:
 125:Controls.h    ****                 toggles_[i].Debounce();
 346              		.loc 7 125 13 is_stmt 1 view .LVU73
 125:Controls.h    ****                 toggles_[i].Debounce();
 347              		.loc 7 125 33 view .LVU74
 348              	.LBB1335:
 349              		.loc 8 185 7 view .LVU75
 350              	.LBB1332:
  55:/Library/DaisyToolchain/0.2.0/arm/arm-none-eabi/include/c++/10.3.1/array ****       { return const_cast<_Tp&>(__t[__n]); }
 351              		.loc 8 55 7 view .LVU76
  55:/Library/DaisyToolchain/0.2.0/arm/arm-none-eabi/include/c++/10.3.1/array ****       { return const_cast<_Tp&>(__t[__n]); }
 352              		.loc 8 55 7 is_stmt 0 view .LVU77
ARM GAS  /var/folders/yd/h_51qzcj4039f6rvxdz3lvym0000gn/T//ccKvYnDW.s 			page 21


 353              	.LBE1332:
 354              	.LBE1335:
 355              		.loc 7 126 37 view .LVU78
 356 003a 06F5B870 		add	r0, r6, #368
 357 003e FFF7FEFF 		bl	_ZN5daisy6Switch8DebounceEv
 358              	.LVL18:
 125:Controls.h    ****                 toggles_[i].Debounce();
 359              		.loc 7 125 13 is_stmt 1 view .LVU79
 125:Controls.h    ****                 toggles_[i].Debounce();
 360              		.loc 7 125 33 view .LVU80
 361              	.LBB1336:
 362              		.loc 8 185 7 view .LVU81
 363              	.LBB1333:
  55:/Library/DaisyToolchain/0.2.0/arm/arm-none-eabi/include/c++/10.3.1/array ****       { return const_cast<_Tp&>(__t[__n]); }
 364              		.loc 8 55 7 view .LVU82
  55:/Library/DaisyToolchain/0.2.0/arm/arm-none-eabi/include/c++/10.3.1/array ****       { return const_cast<_Tp&>(__t[__n]); }
 365              		.loc 8 55 7 is_stmt 0 view .LVU83
 366              	.LBE1333:
 367              	.LBE1336:
 368              		.loc 7 126 37 view .LVU84
 369 0042 06F5C070 		add	r0, r6, #384
 370 0046 FFF7FEFF 		bl	_ZN5daisy6Switch8DebounceEv
 371              	.LVL19:
 125:Controls.h    ****                 toggles_[i].Debounce();
 372              		.loc 7 125 13 is_stmt 1 view .LVU85
 125:Controls.h    ****                 toggles_[i].Debounce();
 373              		.loc 7 125 33 view .LVU86
 125:Controls.h    ****                 toggles_[i].Debounce();
 374              		.loc 7 125 33 is_stmt 0 view .LVU87
 375              	.LBE1328:
 376              	.LBB1337:
 127:Controls.h    ****         }
 128:Controls.h    **** 
 129:Controls.h    ****         if (NFoots > 0)
 130:Controls.h    ****         {
 131:Controls.h    ****             for(size_t i = 0; i < NFoots; ++i)
 377              		.loc 7 131 33 is_stmt 1 view .LVU88
 378              	.LBB1338:
 379              	.LBI1338:
 380              		.loc 8 185 7 view .LVU89
 381              	.LBB1339:
 382              	.LBI1339:
  55:/Library/DaisyToolchain/0.2.0/arm/arm-none-eabi/include/c++/10.3.1/array ****       { return const_cast<_Tp&>(__t[__n]); }
 383              		.loc 8 55 7 view .LVU90
  55:/Library/DaisyToolchain/0.2.0/arm/arm-none-eabi/include/c++/10.3.1/array ****       { return const_cast<_Tp&>(__t[__n]); }
 384              		.loc 8 55 7 is_stmt 0 view .LVU91
 385              	.LBE1339:
 386              	.LBE1338:
 132:Controls.h    ****                 foots_[i].Debounce();
 387              		.loc 7 132 35 view .LVU92
 388 004a 06F5C870 		add	r0, r6, #400
 389 004e FFF7FEFF 		bl	_ZN5daisy6Switch8DebounceEv
 390              	.LVL20:
 131:Controls.h    ****                 foots_[i].Debounce();
 391              		.loc 7 131 13 is_stmt 1 view .LVU93
 131:Controls.h    ****                 foots_[i].Debounce();
 392              		.loc 7 131 33 view .LVU94
ARM GAS  /var/folders/yd/h_51qzcj4039f6rvxdz3lvym0000gn/T//ccKvYnDW.s 			page 22


 393              	.LBB1341:
 394              		.loc 8 185 7 view .LVU95
 395              	.LBB1340:
  55:/Library/DaisyToolchain/0.2.0/arm/arm-none-eabi/include/c++/10.3.1/array ****       { return const_cast<_Tp&>(__t[__n]); }
 396              		.loc 8 55 7 view .LVU96
  55:/Library/DaisyToolchain/0.2.0/arm/arm-none-eabi/include/c++/10.3.1/array ****       { return const_cast<_Tp&>(__t[__n]); }
 397              		.loc 8 55 7 is_stmt 0 view .LVU97
 398              	.LBE1340:
 399              	.LBE1341:
 400              		.loc 7 132 35 view .LVU98
 401 0052 06F5D070 		add	r0, r6, #416
 402 0056 FFF7FEFF 		bl	_ZN5daisy6Switch8DebounceEv
 403              	.LVL21:
 131:Controls.h    ****                 foots_[i].Debounce();
 404              		.loc 7 131 13 is_stmt 1 view .LVU99
 131:Controls.h    ****                 foots_[i].Debounce();
 405              		.loc 7 131 33 view .LVU100
 131:Controls.h    ****                 foots_[i].Debounce();
 406              		.loc 7 131 33 is_stmt 0 view .LVU101
 407              	.LBE1337:
 408              	.LBE1342:
  34:main.cpp      **** 
  35:main.cpp      ****     // Toggle bypass via SPST
  36:main.cpp      ****     bool on = ui.EffectOn();
 409              		.loc 10 36 5 is_stmt 1 view .LVU102
 410              	.LBB1343:
 411              	.LBI1343:
 133:Controls.h    ****         }
 134:Controls.h    ****     }
 135:Controls.h    **** 
 136:Controls.h    ****     // ---------- Pots ----------
 137:Controls.h    ****     float Pot(size_t i) const
 138:Controls.h    ****     {
 139:Controls.h    ****         return (i < NPots) ? pot_values_[i] : 0.f;
 140:Controls.h    ****     }
 141:Controls.h    **** 
 142:Controls.h    ****     /** Map pot i to [min_v, max_v] with a logarithmic (exponential) response.
 143:Controls.h    ****     Requires min_v > 0 and max_v > 0. Falls back to linear if not valid. */
 144:Controls.h    ****     float PotMapped(size_t i, float min_v, float max_v) const
 145:Controls.h    ****     {
 146:Controls.h    ****         float x = Pot(i);
 147:Controls.h    ****         if(x < 0.f) x = 0.f; else if(x > 1.f) x = 1.f;
 148:Controls.h    **** 
 149:Controls.h    ****         if(min_v > 0.f && max_v > 0.f)
 150:Controls.h    ****         {
 151:Controls.h    ****             // exponential interpolation: y = lo * (hi/lo)^x
 152:Controls.h    ****             const float lo = (min_v < max_v) ? min_v : max_v;
 153:Controls.h    ****             const float hi = (min_v < max_v) ? max_v : min_v;
 154:Controls.h    ****             const float y  = lo * std::pow(hi / lo, x);
 155:Controls.h    **** 
 156:Controls.h    ****             // keep original direction (handles min_v > max_v)
 157:Controls.h    ****             return (min_v <= max_v) ? y : (min_v + max_v - y);
 158:Controls.h    ****         }
 159:Controls.h    **** 
 160:Controls.h    ****         // Fallback to linear if bounds arent both positive
 161:Controls.h    ****         return min_v + (max_v - min_v) * x;
 162:Controls.h    ****     }
ARM GAS  /var/folders/yd/h_51qzcj4039f6rvxdz3lvym0000gn/T//ccKvYnDW.s 			page 23


 163:Controls.h    **** 
 164:Controls.h    ****     /** Access raw 16-bit ADC (0..65535). */
 165:Controls.h    ****     uint16_t PotRaw(size_t i) const
 166:Controls.h    ****     {
 167:Controls.h    ****         return (i < NPots) ? pots_[i].GetRawValue() : 0;
 168:Controls.h    ****     }
 169:Controls.h    **** 
 170:Controls.h    ****     // ---------- SPST Toggles (latching) ----------
 171:Controls.h    ****     bool TogglePressed(size_t i) const
 172:Controls.h    ****     {
 173:Controls.h    ****         return (i < NToggles) ? toggles_[i].Pressed() : false;
 174:Controls.h    ****     }
 175:Controls.h    ****     bool ToggleRising(size_t i) const
 176:Controls.h    ****     {
 177:Controls.h    ****         return (i < NToggles) ? toggles_[i].RisingEdge() : false;
 178:Controls.h    ****     }
 179:Controls.h    ****     bool ToggleFalling(size_t i) const
 180:Controls.h    ****     {
 181:Controls.h    ****         return (i < NToggles) ? toggles_[i].FallingEdge() : false;
 182:Controls.h    ****     }
 183:Controls.h    ****     float ToggleHeldMs(size_t i) const
 184:Controls.h    ****     {
 185:Controls.h    ****         return (i < NToggles) ? toggles_[i].TimeHeldMs() : 0.f;
 186:Controls.h    ****     }
 187:Controls.h    **** 
 188:Controls.h    ****     // ---------- Momentary Footswitches ----------
 189:Controls.h    ****     bool FootPressed(size_t i) const
 190:Controls.h    ****     {
 191:Controls.h    ****         return (i < NFoots) ? foots_[i].Pressed() : false;
 192:Controls.h    ****     }
 193:Controls.h    ****     bool FootRising(size_t i) const
 194:Controls.h    ****     {
 195:Controls.h    ****         return (i < NFoots) ? foots_[i].RisingEdge() : false;
 196:Controls.h    ****     }
 197:Controls.h    ****     bool FootFalling(size_t i) const
 198:Controls.h    ****     {
 199:Controls.h    ****         return (i < NFoots) ? foots_[i].FallingEdge() : false;
 200:Controls.h    ****     }
 201:Controls.h    ****     float FootHeldMs(size_t i) const
 202:Controls.h    ****     {
 203:Controls.h    ****         return (i < NFoots) ? foots_[i].TimeHeldMs() : 0.f;
 204:Controls.h    ****     }
 205:Controls.h    **** 
 206:Controls.h    ****     // ------------------- LEDs --------------------
 207:Controls.h    **** 
 208:Controls.h    ****     /** Set LED i ON/OFF. */
 209:Controls.h    ****     void LedWrite(size_t i, bool on)
 210:Controls.h    ****     {
 211:Controls.h    ****         if(i < NLeds)
 212:Controls.h    ****             leds_[i].Write(on);
 213:Controls.h    ****     }
 214:Controls.h    **** 
 215:Controls.h    ****     /** Toggle LED i and return the new state. */
 216:Controls.h    ****     bool LedToggle(size_t i)
 217:Controls.h    ****     {
 218:Controls.h    ****         if(i < NLeds)
 219:Controls.h    ****         {
ARM GAS  /var/folders/yd/h_51qzcj4039f6rvxdz3lvym0000gn/T//ccKvYnDW.s 			page 24


 220:Controls.h    ****             bool new_state = !leds_[i].Read();
 221:Controls.h    ****             leds_[i].Write(new_state);
 222:Controls.h    ****             return new_state;
 223:Controls.h    ****         }
 224:Controls.h    ****         return false;
 225:Controls.h    ****     }
 226:Controls.h    **** 
 227:Controls.h    ****     /** Read current LED state. */
 228:Controls.h    ****     bool LedState(size_t i) const
 229:Controls.h    ****     {
 230:Controls.h    ****         return (i < NLeds) ? leds_[i].Read() : false;
 231:Controls.h    ****     }
 232:Controls.h    **** 
 233:Controls.h    ****     // --------------- Effect Toggle ----------------
 234:Controls.h    **** 
 235:Controls.h    ****     void EffectToggle()
 236:Controls.h    ****     {
 237:Controls.h    ****         effect_on_ = !effect_on_;
 238:Controls.h    ****     }
 239:Controls.h    ****     
 240:Controls.h    ****     bool EffectOn() const
 412              		.loc 7 240 10 view .LVU103
 413              	.LBE1343:
 414              	.LBB1345:
 415              	.LBB1346:
 416              	.LBB1347:
 417              	.LBB1348:
 418              	.LBB1349:
 419              		.file 11 "../../libDaisy/src/hid/switch.h"
   1:../../libDaisy/src/hid/switch.h **** #pragma once
   2:../../libDaisy/src/hid/switch.h **** #ifndef DSY_SWITCH_H
   3:../../libDaisy/src/hid/switch.h **** #define DSY_SWITCH_H
   4:../../libDaisy/src/hid/switch.h **** #include "daisy_core.h"
   5:../../libDaisy/src/hid/switch.h **** #include "per/gpio.h"
   6:../../libDaisy/src/hid/switch.h **** #include "sys/system.h"
   7:../../libDaisy/src/hid/switch.h **** 
   8:../../libDaisy/src/hid/switch.h **** namespace daisy
   9:../../libDaisy/src/hid/switch.h **** {
  10:../../libDaisy/src/hid/switch.h **** /** 
  11:../../libDaisy/src/hid/switch.h ****     Generic Class for handling momentary/latching switches \n 
  12:../../libDaisy/src/hid/switch.h ****     Inspired/influenced by Mutable Instruments (pichenettes) Switch classes
  13:../../libDaisy/src/hid/switch.h ****     @author Stephen Hensley
  14:../../libDaisy/src/hid/switch.h ****     @date December 2019
  15:../../libDaisy/src/hid/switch.h ****     @ingroup controls
  16:../../libDaisy/src/hid/switch.h **** */
  17:../../libDaisy/src/hid/switch.h **** class Switch
  18:../../libDaisy/src/hid/switch.h **** {
  19:../../libDaisy/src/hid/switch.h ****   public:
  20:../../libDaisy/src/hid/switch.h ****     /** Specifies the expected behavior of the switch */
  21:../../libDaisy/src/hid/switch.h ****     enum Type
  22:../../libDaisy/src/hid/switch.h ****     {
  23:../../libDaisy/src/hid/switch.h ****         TYPE_TOGGLE,    /**< & */
  24:../../libDaisy/src/hid/switch.h ****         TYPE_MOMENTARY, /**< & */
  25:../../libDaisy/src/hid/switch.h ****     };
  26:../../libDaisy/src/hid/switch.h ****     /** Specifies whether the pressed is HIGH or LOW. */
  27:../../libDaisy/src/hid/switch.h ****     enum Polarity
  28:../../libDaisy/src/hid/switch.h ****     {
ARM GAS  /var/folders/yd/h_51qzcj4039f6rvxdz3lvym0000gn/T//ccKvYnDW.s 			page 25


  29:../../libDaisy/src/hid/switch.h ****         POLARITY_NORMAL,   /**< & */
  30:../../libDaisy/src/hid/switch.h ****         POLARITY_INVERTED, /**< & */
  31:../../libDaisy/src/hid/switch.h ****     };
  32:../../libDaisy/src/hid/switch.h **** 
  33:../../libDaisy/src/hid/switch.h ****     /** Specifies whether to use built-in Pull Up/Down resistors to hold button at a given state wh
  34:../../libDaisy/src/hid/switch.h ****     enum Pull
  35:../../libDaisy/src/hid/switch.h ****     {
  36:../../libDaisy/src/hid/switch.h ****         PULL_UP,   /**< & */
  37:../../libDaisy/src/hid/switch.h ****         PULL_DOWN, /**< & */
  38:../../libDaisy/src/hid/switch.h ****         PULL_NONE, /**< & */
  39:../../libDaisy/src/hid/switch.h ****     };
  40:../../libDaisy/src/hid/switch.h **** 
  41:../../libDaisy/src/hid/switch.h ****     Switch() {}
  42:../../libDaisy/src/hid/switch.h ****     ~Switch() {}
  43:../../libDaisy/src/hid/switch.h **** 
  44:../../libDaisy/src/hid/switch.h ****     /** 
  45:../../libDaisy/src/hid/switch.h ****     Initializes the switch object with a given port/pin combo.
  46:../../libDaisy/src/hid/switch.h ****     \param pin port/pin object to tell the switch which hardware pin to use.
  47:../../libDaisy/src/hid/switch.h ****     \param update_rate Does nothing. Backwards compatibility until next breaking update.
  48:../../libDaisy/src/hid/switch.h ****     \param t switch type -- Default: TYPE_MOMENTARY
  49:../../libDaisy/src/hid/switch.h ****     \param pol switch polarity -- Default: POLARITY_INVERTED
  50:../../libDaisy/src/hid/switch.h ****     \param pu switch pull up/down -- Default: PULL_UP
  51:../../libDaisy/src/hid/switch.h ****     */
  52:../../libDaisy/src/hid/switch.h ****     void
  53:../../libDaisy/src/hid/switch.h ****     Init(dsy_gpio_pin pin, float update_rate, Type t, Polarity pol, Pull pu);
  54:../../libDaisy/src/hid/switch.h **** 
  55:../../libDaisy/src/hid/switch.h ****     /**
  56:../../libDaisy/src/hid/switch.h ****        Simplified Init.
  57:../../libDaisy/src/hid/switch.h ****        \param pin port/pin object to tell the switch which hardware pin to use.
  58:../../libDaisy/src/hid/switch.h ****        \param update_rate Left for backwards compatibility until next breaking change.
  59:../../libDaisy/src/hid/switch.h ****     */
  60:../../libDaisy/src/hid/switch.h ****     void Init(dsy_gpio_pin pin, float update_rate = 0.f);
  61:../../libDaisy/src/hid/switch.h **** 
  62:../../libDaisy/src/hid/switch.h ****     /** 
  63:../../libDaisy/src/hid/switch.h ****     Called at update_rate to debounce and handle timing for the switch.
  64:../../libDaisy/src/hid/switch.h ****     In order for events not to be missed, its important that the Edge/Pressed checks
  65:../../libDaisy/src/hid/switch.h ****     be made at the same rate as the debounce function is being called.
  66:../../libDaisy/src/hid/switch.h ****     */
  67:../../libDaisy/src/hid/switch.h ****     void Debounce();
  68:../../libDaisy/src/hid/switch.h **** 
  69:../../libDaisy/src/hid/switch.h ****     /** \return true if a button was just pressed. */
  70:../../libDaisy/src/hid/switch.h ****     inline bool RisingEdge() const { return updated_ ? state_ == 0x7f : false; }
 420              		.loc 11 70 54 is_stmt 0 view .LVU104
 421 005a 96F89431 		ldrb	r3, [r6, #404]	@ zero_extendqisi2
 422              	.LBE1349:
 423              	.LBE1348:
 424              	.LBE1347:
 425              	.LBE1346:
 426              	.LBE1345:
 427              	.LBB1356:
 428              	.LBB1344:
 241:Controls.h    ****     {
 242:Controls.h    ****         return effect_on_;
 429              		.loc 7 242 16 view .LVU105
 430 005e 377A     		ldrb	r7, [r6, #8]	@ zero_extendqisi2
 431              	.LVL22:
 432              		.loc 7 242 16 view .LVU106
ARM GAS  /var/folders/yd/h_51qzcj4039f6rvxdz3lvym0000gn/T//ccKvYnDW.s 			page 26


 433              	.LBE1344:
 434              	.LBE1356:
  37:main.cpp      **** 
  38:main.cpp      ****     // Toggle bypass via momentary footswitch
  39:main.cpp      ****     if(ui.FootRising(0))
 435              		.loc 10 39 5 is_stmt 1 view .LVU107
 436              	.LBB1357:
 437              	.LBI1345:
 193:Controls.h    ****     {
 438              		.loc 7 193 10 view .LVU108
 439              	.LBB1355:
 440              	.LBI1346:
 193:Controls.h    ****     {
 441              		.loc 7 193 10 view .LVU109
 442              	.LBB1354:
 443              	.LBB1351:
 444              	.LBI1351:
 186:/Library/DaisyToolchain/0.2.0/arm/arm-none-eabi/include/c++/10.3.1/array ****       { return _AT_Type::_S_ref(_M_elems, __n); }
 187:/Library/DaisyToolchain/0.2.0/arm/arm-none-eabi/include/c++/10.3.1/array **** 
 188:/Library/DaisyToolchain/0.2.0/arm/arm-none-eabi/include/c++/10.3.1/array ****       constexpr const_reference
 189:/Library/DaisyToolchain/0.2.0/arm/arm-none-eabi/include/c++/10.3.1/array ****       operator[](size_type __n) const noexcept
 445              		.loc 8 189 7 view .LVU110
 446              	.LBB1352:
 447              	.LBI1352:
  55:/Library/DaisyToolchain/0.2.0/arm/arm-none-eabi/include/c++/10.3.1/array ****       { return const_cast<_Tp&>(__t[__n]); }
 448              		.loc 8 55 7 view .LVU111
  55:/Library/DaisyToolchain/0.2.0/arm/arm-none-eabi/include/c++/10.3.1/array ****       { return const_cast<_Tp&>(__t[__n]); }
 449              		.loc 8 55 7 is_stmt 0 view .LVU112
 450              	.LBE1352:
 451              	.LBE1351:
 452              	.LBB1353:
 453              	.LBI1348:
 454              		.loc 11 70 17 is_stmt 1 view .LVU113
 455              	.LBB1350:
 456              		.loc 11 70 38 view .LVU114
 457              		.loc 11 70 54 is_stmt 0 view .LVU115
 458 0060 1BB1     		cbz	r3, .L21
 459              	.LVL23:
 460              		.loc 11 70 54 view .LVU116
 461              	.LBE1350:
 462              	.LBE1353:
 195:Controls.h    ****     }
 463              		.loc 7 195 29 view .LVU117
 464 0062 96F89A31 		ldrb	r3, [r6, #410]	@ zero_extendqisi2
 465 0066 7F2B     		cmp	r3, #127
 466 0068 7FD0     		beq	.L42
 467              	.LVL24:
 468              	.L21:
 195:Controls.h    ****     }
 469              		.loc 7 195 29 view .LVU118
 470              	.LBE1354:
 471              	.LBE1355:
 472              	.LBE1357:
  40:main.cpp      ****     {
  41:main.cpp      ****         ui.EffectToggle();
  42:main.cpp      ****         on = ui.EffectOn();
  43:main.cpp      ****     }    
ARM GAS  /var/folders/yd/h_51qzcj4039f6rvxdz3lvym0000gn/T//ccKvYnDW.s 			page 27


  44:main.cpp      ****     // Read pots for gain and tone
  45:main.cpp      ****     float gain = ui.PotMapped(0, 0.0f, 500000.0f); // Map pot 0 to gain range
 473              		.loc 10 45 5 is_stmt 1 view .LVU119
 474              	.LBB1358:
 475              	.LBI1358:
 144:Controls.h    ****     {
 476              		.loc 7 144 11 view .LVU120
 477              	.LBB1359:
 478              	.LBB1360:
 479              	.LBI1360:
 137:Controls.h    ****     {
 480              		.loc 7 137 11 view .LVU121
 481              	.LBB1361:
 482              	.LBB1362:
 483              	.LBI1362:
 484              		.loc 8 189 7 view .LVU122
 485              	.LBB1363:
 486              	.LBI1363:
  55:/Library/DaisyToolchain/0.2.0/arm/arm-none-eabi/include/c++/10.3.1/array ****       { return const_cast<_Tp&>(__t[__n]); }
 487              		.loc 8 55 7 view .LVU123
  55:/Library/DaisyToolchain/0.2.0/arm/arm-none-eabi/include/c++/10.3.1/array ****       { return const_cast<_Tp&>(__t[__n]); }
 488              		.loc 8 55 7 is_stmt 0 view .LVU124
 489              	.LBE1363:
 490              	.LBE1362:
 139:Controls.h    ****     }
 491              		.loc 7 139 28 view .LVU125
 492 006a D6ED4E7A 		vldr.32	s15, [r6, #312]
 493              	.LVL25:
 139:Controls.h    ****     }
 494              		.loc 7 139 28 view .LVU126
 495              	.LBE1361:
 496              	.LBE1360:
 147:Controls.h    **** 
 497              		.loc 7 147 9 view .LVU127
 498 006e 9FED4C8A 		vldr.32	s16, .L47+8
 499 0072 F4EEC87A 		vcmpe.f32	s15, s16
 500 0076 F1EE10FA 		vmrs	APSR_nzcv, FPSCR
 501 007a 08D4     		bmi	.L23
 147:Controls.h    **** 
 502              		.loc 7 147 35 view .LVU128
 503 007c B7EE007A 		vmov.f32	s14, #1.0e+0
 504 0080 F4EEC77A 		vcmpe.f32	s15, s14
 505 0084 F1EE10FA 		vmrs	APSR_nzcv, FPSCR
 506 0088 78DD     		ble	.L43
 507 008a 9FED468A 		vldr.32	s16, .L47+12
 508              	.L23:
 509              	.LVL26:
 147:Controls.h    **** 
 510              		.loc 7 147 35 view .LVU129
 511              	.LBE1359:
 512              	.LBE1358:
  46:main.cpp      ****     float rTone = ui.PotMapped(2, 1000.0f, 20000.0f); // Map pot 2 to tone resistor range
 513              		.loc 10 46 5 is_stmt 1 view .LVU130
 514              	.LBB1366:
 515              	.LBI1366:
 144:Controls.h    ****     {
 516              		.loc 7 144 11 view .LVU131
ARM GAS  /var/folders/yd/h_51qzcj4039f6rvxdz3lvym0000gn/T//ccKvYnDW.s 			page 28


 517              	.LBB1367:
 518              	.LBB1368:
 519              	.LBI1368:
 137:Controls.h    ****     {
 520              		.loc 7 137 11 view .LVU132
 521              	.LBB1369:
 522              	.LBB1370:
 523              	.LBI1370:
 524              		.loc 8 189 7 view .LVU133
 525              	.LBB1371:
 526              	.LBI1371:
  55:/Library/DaisyToolchain/0.2.0/arm/arm-none-eabi/include/c++/10.3.1/array ****       { return const_cast<_Tp&>(__t[__n]); }
 527              		.loc 8 55 7 view .LVU134
  55:/Library/DaisyToolchain/0.2.0/arm/arm-none-eabi/include/c++/10.3.1/array ****       { return const_cast<_Tp&>(__t[__n]); }
 528              		.loc 8 55 7 is_stmt 0 view .LVU135
 529              	.LBE1371:
 530              	.LBE1370:
 139:Controls.h    ****     }
 531              		.loc 7 139 28 view .LVU136
 532 008e D6ED500A 		vldr.32	s1, [r6, #320]
 533              	.LVL27:
 139:Controls.h    ****     }
 534              		.loc 7 139 28 view .LVU137
 535              	.LBE1369:
 536              	.LBE1368:
 147:Controls.h    **** 
 537              		.loc 7 147 9 view .LVU138
 538 0092 F5EEC00A 		vcmpe.f32	s1, #0
 539 0096 F1EE10FA 		vmrs	APSR_nzcv, FPSCR
 540 009a 7AD4     		bmi	.L35
 541              	.L46:
 147:Controls.h    **** 
 542              		.loc 7 147 35 view .LVU139
 543 009c F7EE007A 		vmov.f32	s15, #1.0e+0
 147:Controls.h    **** 
 544              		.loc 7 147 49 view .LVU140
 545 00a0 F4EE670A 		vcmp.f32	s1, s15
 546 00a4 F1EE10FA 		vmrs	APSR_nzcv, FPSCR
 547 00a8 77FEA00A 		vselgt.f32	s1, s15, s1
 548              	.LVL28:
 549              	.L24:
 550              	.LBB1376:
 551              	.LBB1377:
 552              	.LBI1377:
 553              		.file 12 "/Library/DaisyToolchain/0.2.0/arm/arm-none-eabi/include/c++/10.3.1/cmath"
   1:/Library/DaisyToolchain/0.2.0/arm/arm-none-eabi/include/c++/10.3.1/cmath **** // -*- C++ -*- C forwarding header.
   2:/Library/DaisyToolchain/0.2.0/arm/arm-none-eabi/include/c++/10.3.1/cmath **** 
   3:/Library/DaisyToolchain/0.2.0/arm/arm-none-eabi/include/c++/10.3.1/cmath **** // Copyright (C) 1997-2020 Free Software Foundation, Inc.
   4:/Library/DaisyToolchain/0.2.0/arm/arm-none-eabi/include/c++/10.3.1/cmath **** //
   5:/Library/DaisyToolchain/0.2.0/arm/arm-none-eabi/include/c++/10.3.1/cmath **** // This file is part of the GNU ISO C++ Library.  This library is free
   6:/Library/DaisyToolchain/0.2.0/arm/arm-none-eabi/include/c++/10.3.1/cmath **** // software; you can redistribute it and/or modify it under the
   7:/Library/DaisyToolchain/0.2.0/arm/arm-none-eabi/include/c++/10.3.1/cmath **** // terms of the GNU General Public License as published by the
   8:/Library/DaisyToolchain/0.2.0/arm/arm-none-eabi/include/c++/10.3.1/cmath **** // Free Software Foundation; either version 3, or (at your option)
   9:/Library/DaisyToolchain/0.2.0/arm/arm-none-eabi/include/c++/10.3.1/cmath **** // any later version.
  10:/Library/DaisyToolchain/0.2.0/arm/arm-none-eabi/include/c++/10.3.1/cmath **** 
  11:/Library/DaisyToolchain/0.2.0/arm/arm-none-eabi/include/c++/10.3.1/cmath **** // This library is distributed in the hope that it will be useful,
  12:/Library/DaisyToolchain/0.2.0/arm/arm-none-eabi/include/c++/10.3.1/cmath **** // but WITHOUT ANY WARRANTY; without even the implied warranty of
ARM GAS  /var/folders/yd/h_51qzcj4039f6rvxdz3lvym0000gn/T//ccKvYnDW.s 			page 29


  13:/Library/DaisyToolchain/0.2.0/arm/arm-none-eabi/include/c++/10.3.1/cmath **** // MERCHANTABILITY or FITNESS FOR A PARTICULAR PURPOSE.  See the
  14:/Library/DaisyToolchain/0.2.0/arm/arm-none-eabi/include/c++/10.3.1/cmath **** // GNU General Public License for more details.
  15:/Library/DaisyToolchain/0.2.0/arm/arm-none-eabi/include/c++/10.3.1/cmath **** 
  16:/Library/DaisyToolchain/0.2.0/arm/arm-none-eabi/include/c++/10.3.1/cmath **** // Under Section 7 of GPL version 3, you are granted additional
  17:/Library/DaisyToolchain/0.2.0/arm/arm-none-eabi/include/c++/10.3.1/cmath **** // permissions described in the GCC Runtime Library Exception, version
  18:/Library/DaisyToolchain/0.2.0/arm/arm-none-eabi/include/c++/10.3.1/cmath **** // 3.1, as published by the Free Software Foundation.
  19:/Library/DaisyToolchain/0.2.0/arm/arm-none-eabi/include/c++/10.3.1/cmath **** 
  20:/Library/DaisyToolchain/0.2.0/arm/arm-none-eabi/include/c++/10.3.1/cmath **** // You should have received a copy of the GNU General Public License and
  21:/Library/DaisyToolchain/0.2.0/arm/arm-none-eabi/include/c++/10.3.1/cmath **** // a copy of the GCC Runtime Library Exception along with this program;
  22:/Library/DaisyToolchain/0.2.0/arm/arm-none-eabi/include/c++/10.3.1/cmath **** // see the files COPYING3 and COPYING.RUNTIME respectively.  If not, see
  23:/Library/DaisyToolchain/0.2.0/arm/arm-none-eabi/include/c++/10.3.1/cmath **** // <http://www.gnu.org/licenses/>.
  24:/Library/DaisyToolchain/0.2.0/arm/arm-none-eabi/include/c++/10.3.1/cmath **** 
  25:/Library/DaisyToolchain/0.2.0/arm/arm-none-eabi/include/c++/10.3.1/cmath **** /** @file include/cmath
  26:/Library/DaisyToolchain/0.2.0/arm/arm-none-eabi/include/c++/10.3.1/cmath ****  *  This is a Standard C++ Library file.  You should @c \#include this file
  27:/Library/DaisyToolchain/0.2.0/arm/arm-none-eabi/include/c++/10.3.1/cmath ****  *  in your programs, rather than any of the @a *.h implementation files.
  28:/Library/DaisyToolchain/0.2.0/arm/arm-none-eabi/include/c++/10.3.1/cmath ****  *
  29:/Library/DaisyToolchain/0.2.0/arm/arm-none-eabi/include/c++/10.3.1/cmath ****  *  This is the C++ version of the Standard C Library header @c math.h,
  30:/Library/DaisyToolchain/0.2.0/arm/arm-none-eabi/include/c++/10.3.1/cmath ****  *  and its contents are (mostly) the same as that header, but are all
  31:/Library/DaisyToolchain/0.2.0/arm/arm-none-eabi/include/c++/10.3.1/cmath ****  *  contained in the namespace @c std (except for names which are defined
  32:/Library/DaisyToolchain/0.2.0/arm/arm-none-eabi/include/c++/10.3.1/cmath ****  *  as macros in C).
  33:/Library/DaisyToolchain/0.2.0/arm/arm-none-eabi/include/c++/10.3.1/cmath ****  */
  34:/Library/DaisyToolchain/0.2.0/arm/arm-none-eabi/include/c++/10.3.1/cmath **** 
  35:/Library/DaisyToolchain/0.2.0/arm/arm-none-eabi/include/c++/10.3.1/cmath **** //
  36:/Library/DaisyToolchain/0.2.0/arm/arm-none-eabi/include/c++/10.3.1/cmath **** // ISO C++ 14882: 26.5  C library
  37:/Library/DaisyToolchain/0.2.0/arm/arm-none-eabi/include/c++/10.3.1/cmath **** //
  38:/Library/DaisyToolchain/0.2.0/arm/arm-none-eabi/include/c++/10.3.1/cmath **** 
  39:/Library/DaisyToolchain/0.2.0/arm/arm-none-eabi/include/c++/10.3.1/cmath **** #pragma GCC system_header
  40:/Library/DaisyToolchain/0.2.0/arm/arm-none-eabi/include/c++/10.3.1/cmath **** 
  41:/Library/DaisyToolchain/0.2.0/arm/arm-none-eabi/include/c++/10.3.1/cmath **** #include <bits/c++config.h>
  42:/Library/DaisyToolchain/0.2.0/arm/arm-none-eabi/include/c++/10.3.1/cmath **** #include <bits/cpp_type_traits.h>
  43:/Library/DaisyToolchain/0.2.0/arm/arm-none-eabi/include/c++/10.3.1/cmath **** #include <ext/type_traits.h>
  44:/Library/DaisyToolchain/0.2.0/arm/arm-none-eabi/include/c++/10.3.1/cmath **** #define _GLIBCXX_INCLUDE_NEXT_C_HEADERS
  45:/Library/DaisyToolchain/0.2.0/arm/arm-none-eabi/include/c++/10.3.1/cmath **** #include_next <math.h>
  46:/Library/DaisyToolchain/0.2.0/arm/arm-none-eabi/include/c++/10.3.1/cmath **** #undef _GLIBCXX_INCLUDE_NEXT_C_HEADERS
  47:/Library/DaisyToolchain/0.2.0/arm/arm-none-eabi/include/c++/10.3.1/cmath **** #include <bits/std_abs.h>
  48:/Library/DaisyToolchain/0.2.0/arm/arm-none-eabi/include/c++/10.3.1/cmath **** 
  49:/Library/DaisyToolchain/0.2.0/arm/arm-none-eabi/include/c++/10.3.1/cmath **** #ifndef _GLIBCXX_CMATH
  50:/Library/DaisyToolchain/0.2.0/arm/arm-none-eabi/include/c++/10.3.1/cmath **** #define _GLIBCXX_CMATH 1
  51:/Library/DaisyToolchain/0.2.0/arm/arm-none-eabi/include/c++/10.3.1/cmath **** 
  52:/Library/DaisyToolchain/0.2.0/arm/arm-none-eabi/include/c++/10.3.1/cmath **** // Get rid of those macros defined in <math.h> in lieu of real functions.
  53:/Library/DaisyToolchain/0.2.0/arm/arm-none-eabi/include/c++/10.3.1/cmath **** #undef div
  54:/Library/DaisyToolchain/0.2.0/arm/arm-none-eabi/include/c++/10.3.1/cmath **** #undef acos
  55:/Library/DaisyToolchain/0.2.0/arm/arm-none-eabi/include/c++/10.3.1/cmath **** #undef asin
  56:/Library/DaisyToolchain/0.2.0/arm/arm-none-eabi/include/c++/10.3.1/cmath **** #undef atan
  57:/Library/DaisyToolchain/0.2.0/arm/arm-none-eabi/include/c++/10.3.1/cmath **** #undef atan2
  58:/Library/DaisyToolchain/0.2.0/arm/arm-none-eabi/include/c++/10.3.1/cmath **** #undef ceil
  59:/Library/DaisyToolchain/0.2.0/arm/arm-none-eabi/include/c++/10.3.1/cmath **** #undef cos
  60:/Library/DaisyToolchain/0.2.0/arm/arm-none-eabi/include/c++/10.3.1/cmath **** #undef cosh
  61:/Library/DaisyToolchain/0.2.0/arm/arm-none-eabi/include/c++/10.3.1/cmath **** #undef exp
  62:/Library/DaisyToolchain/0.2.0/arm/arm-none-eabi/include/c++/10.3.1/cmath **** #undef fabs
  63:/Library/DaisyToolchain/0.2.0/arm/arm-none-eabi/include/c++/10.3.1/cmath **** #undef floor
  64:/Library/DaisyToolchain/0.2.0/arm/arm-none-eabi/include/c++/10.3.1/cmath **** #undef fmod
  65:/Library/DaisyToolchain/0.2.0/arm/arm-none-eabi/include/c++/10.3.1/cmath **** #undef frexp
  66:/Library/DaisyToolchain/0.2.0/arm/arm-none-eabi/include/c++/10.3.1/cmath **** #undef ldexp
  67:/Library/DaisyToolchain/0.2.0/arm/arm-none-eabi/include/c++/10.3.1/cmath **** #undef log
  68:/Library/DaisyToolchain/0.2.0/arm/arm-none-eabi/include/c++/10.3.1/cmath **** #undef log10
  69:/Library/DaisyToolchain/0.2.0/arm/arm-none-eabi/include/c++/10.3.1/cmath **** #undef modf
ARM GAS  /var/folders/yd/h_51qzcj4039f6rvxdz3lvym0000gn/T//ccKvYnDW.s 			page 30


  70:/Library/DaisyToolchain/0.2.0/arm/arm-none-eabi/include/c++/10.3.1/cmath **** #undef pow
  71:/Library/DaisyToolchain/0.2.0/arm/arm-none-eabi/include/c++/10.3.1/cmath **** #undef sin
  72:/Library/DaisyToolchain/0.2.0/arm/arm-none-eabi/include/c++/10.3.1/cmath **** #undef sinh
  73:/Library/DaisyToolchain/0.2.0/arm/arm-none-eabi/include/c++/10.3.1/cmath **** #undef sqrt
  74:/Library/DaisyToolchain/0.2.0/arm/arm-none-eabi/include/c++/10.3.1/cmath **** #undef tan
  75:/Library/DaisyToolchain/0.2.0/arm/arm-none-eabi/include/c++/10.3.1/cmath **** #undef tanh
  76:/Library/DaisyToolchain/0.2.0/arm/arm-none-eabi/include/c++/10.3.1/cmath **** 
  77:/Library/DaisyToolchain/0.2.0/arm/arm-none-eabi/include/c++/10.3.1/cmath **** extern "C++"
  78:/Library/DaisyToolchain/0.2.0/arm/arm-none-eabi/include/c++/10.3.1/cmath **** {
  79:/Library/DaisyToolchain/0.2.0/arm/arm-none-eabi/include/c++/10.3.1/cmath **** namespace std _GLIBCXX_VISIBILITY(default)
  80:/Library/DaisyToolchain/0.2.0/arm/arm-none-eabi/include/c++/10.3.1/cmath **** {
  81:/Library/DaisyToolchain/0.2.0/arm/arm-none-eabi/include/c++/10.3.1/cmath **** _GLIBCXX_BEGIN_NAMESPACE_VERSION
  82:/Library/DaisyToolchain/0.2.0/arm/arm-none-eabi/include/c++/10.3.1/cmath **** 
  83:/Library/DaisyToolchain/0.2.0/arm/arm-none-eabi/include/c++/10.3.1/cmath ****   using ::acos;
  84:/Library/DaisyToolchain/0.2.0/arm/arm-none-eabi/include/c++/10.3.1/cmath **** 
  85:/Library/DaisyToolchain/0.2.0/arm/arm-none-eabi/include/c++/10.3.1/cmath **** #ifndef __CORRECT_ISO_CPP_MATH_H_PROTO
  86:/Library/DaisyToolchain/0.2.0/arm/arm-none-eabi/include/c++/10.3.1/cmath ****   inline _GLIBCXX_CONSTEXPR float
  87:/Library/DaisyToolchain/0.2.0/arm/arm-none-eabi/include/c++/10.3.1/cmath ****   acos(float __x)
  88:/Library/DaisyToolchain/0.2.0/arm/arm-none-eabi/include/c++/10.3.1/cmath ****   { return __builtin_acosf(__x); }
  89:/Library/DaisyToolchain/0.2.0/arm/arm-none-eabi/include/c++/10.3.1/cmath **** 
  90:/Library/DaisyToolchain/0.2.0/arm/arm-none-eabi/include/c++/10.3.1/cmath ****   inline _GLIBCXX_CONSTEXPR long double
  91:/Library/DaisyToolchain/0.2.0/arm/arm-none-eabi/include/c++/10.3.1/cmath ****   acos(long double __x)
  92:/Library/DaisyToolchain/0.2.0/arm/arm-none-eabi/include/c++/10.3.1/cmath ****   { return __builtin_acosl(__x); }
  93:/Library/DaisyToolchain/0.2.0/arm/arm-none-eabi/include/c++/10.3.1/cmath **** #endif
  94:/Library/DaisyToolchain/0.2.0/arm/arm-none-eabi/include/c++/10.3.1/cmath **** 
  95:/Library/DaisyToolchain/0.2.0/arm/arm-none-eabi/include/c++/10.3.1/cmath ****   template<typename _Tp>
  96:/Library/DaisyToolchain/0.2.0/arm/arm-none-eabi/include/c++/10.3.1/cmath ****     inline _GLIBCXX_CONSTEXPR
  97:/Library/DaisyToolchain/0.2.0/arm/arm-none-eabi/include/c++/10.3.1/cmath ****     typename __gnu_cxx::__enable_if<__is_integer<_Tp>::__value, 
  98:/Library/DaisyToolchain/0.2.0/arm/arm-none-eabi/include/c++/10.3.1/cmath ****                                     double>::__type
  99:/Library/DaisyToolchain/0.2.0/arm/arm-none-eabi/include/c++/10.3.1/cmath ****     acos(_Tp __x)
 100:/Library/DaisyToolchain/0.2.0/arm/arm-none-eabi/include/c++/10.3.1/cmath ****     { return __builtin_acos(__x); }
 101:/Library/DaisyToolchain/0.2.0/arm/arm-none-eabi/include/c++/10.3.1/cmath **** 
 102:/Library/DaisyToolchain/0.2.0/arm/arm-none-eabi/include/c++/10.3.1/cmath ****   using ::asin;
 103:/Library/DaisyToolchain/0.2.0/arm/arm-none-eabi/include/c++/10.3.1/cmath **** 
 104:/Library/DaisyToolchain/0.2.0/arm/arm-none-eabi/include/c++/10.3.1/cmath **** #ifndef __CORRECT_ISO_CPP_MATH_H_PROTO
 105:/Library/DaisyToolchain/0.2.0/arm/arm-none-eabi/include/c++/10.3.1/cmath ****   inline _GLIBCXX_CONSTEXPR float
 106:/Library/DaisyToolchain/0.2.0/arm/arm-none-eabi/include/c++/10.3.1/cmath ****   asin(float __x)
 107:/Library/DaisyToolchain/0.2.0/arm/arm-none-eabi/include/c++/10.3.1/cmath ****   { return __builtin_asinf(__x); }
 108:/Library/DaisyToolchain/0.2.0/arm/arm-none-eabi/include/c++/10.3.1/cmath **** 
 109:/Library/DaisyToolchain/0.2.0/arm/arm-none-eabi/include/c++/10.3.1/cmath ****   inline _GLIBCXX_CONSTEXPR long double
 110:/Library/DaisyToolchain/0.2.0/arm/arm-none-eabi/include/c++/10.3.1/cmath ****   asin(long double __x)
 111:/Library/DaisyToolchain/0.2.0/arm/arm-none-eabi/include/c++/10.3.1/cmath ****   { return __builtin_asinl(__x); }
 112:/Library/DaisyToolchain/0.2.0/arm/arm-none-eabi/include/c++/10.3.1/cmath **** #endif
 113:/Library/DaisyToolchain/0.2.0/arm/arm-none-eabi/include/c++/10.3.1/cmath **** 
 114:/Library/DaisyToolchain/0.2.0/arm/arm-none-eabi/include/c++/10.3.1/cmath ****   template<typename _Tp>
 115:/Library/DaisyToolchain/0.2.0/arm/arm-none-eabi/include/c++/10.3.1/cmath ****     inline _GLIBCXX_CONSTEXPR
 116:/Library/DaisyToolchain/0.2.0/arm/arm-none-eabi/include/c++/10.3.1/cmath ****     typename __gnu_cxx::__enable_if<__is_integer<_Tp>::__value,
 117:/Library/DaisyToolchain/0.2.0/arm/arm-none-eabi/include/c++/10.3.1/cmath ****                                     double>::__type
 118:/Library/DaisyToolchain/0.2.0/arm/arm-none-eabi/include/c++/10.3.1/cmath ****     asin(_Tp __x)
 119:/Library/DaisyToolchain/0.2.0/arm/arm-none-eabi/include/c++/10.3.1/cmath ****     { return __builtin_asin(__x); }
 120:/Library/DaisyToolchain/0.2.0/arm/arm-none-eabi/include/c++/10.3.1/cmath **** 
 121:/Library/DaisyToolchain/0.2.0/arm/arm-none-eabi/include/c++/10.3.1/cmath ****   using ::atan;
 122:/Library/DaisyToolchain/0.2.0/arm/arm-none-eabi/include/c++/10.3.1/cmath **** 
 123:/Library/DaisyToolchain/0.2.0/arm/arm-none-eabi/include/c++/10.3.1/cmath **** #ifndef __CORRECT_ISO_CPP_MATH_H_PROTO
 124:/Library/DaisyToolchain/0.2.0/arm/arm-none-eabi/include/c++/10.3.1/cmath ****   inline _GLIBCXX_CONSTEXPR float
 125:/Library/DaisyToolchain/0.2.0/arm/arm-none-eabi/include/c++/10.3.1/cmath ****   atan(float __x)
 126:/Library/DaisyToolchain/0.2.0/arm/arm-none-eabi/include/c++/10.3.1/cmath ****   { return __builtin_atanf(__x); }
ARM GAS  /var/folders/yd/h_51qzcj4039f6rvxdz3lvym0000gn/T//ccKvYnDW.s 			page 31


 127:/Library/DaisyToolchain/0.2.0/arm/arm-none-eabi/include/c++/10.3.1/cmath **** 
 128:/Library/DaisyToolchain/0.2.0/arm/arm-none-eabi/include/c++/10.3.1/cmath ****   inline _GLIBCXX_CONSTEXPR long double
 129:/Library/DaisyToolchain/0.2.0/arm/arm-none-eabi/include/c++/10.3.1/cmath ****   atan(long double __x)
 130:/Library/DaisyToolchain/0.2.0/arm/arm-none-eabi/include/c++/10.3.1/cmath ****   { return __builtin_atanl(__x); }
 131:/Library/DaisyToolchain/0.2.0/arm/arm-none-eabi/include/c++/10.3.1/cmath **** #endif
 132:/Library/DaisyToolchain/0.2.0/arm/arm-none-eabi/include/c++/10.3.1/cmath **** 
 133:/Library/DaisyToolchain/0.2.0/arm/arm-none-eabi/include/c++/10.3.1/cmath ****   template<typename _Tp>
 134:/Library/DaisyToolchain/0.2.0/arm/arm-none-eabi/include/c++/10.3.1/cmath ****     inline _GLIBCXX_CONSTEXPR
 135:/Library/DaisyToolchain/0.2.0/arm/arm-none-eabi/include/c++/10.3.1/cmath ****     typename __gnu_cxx::__enable_if<__is_integer<_Tp>::__value,
 136:/Library/DaisyToolchain/0.2.0/arm/arm-none-eabi/include/c++/10.3.1/cmath ****                                     double>::__type
 137:/Library/DaisyToolchain/0.2.0/arm/arm-none-eabi/include/c++/10.3.1/cmath ****     atan(_Tp __x)
 138:/Library/DaisyToolchain/0.2.0/arm/arm-none-eabi/include/c++/10.3.1/cmath ****     { return __builtin_atan(__x); }
 139:/Library/DaisyToolchain/0.2.0/arm/arm-none-eabi/include/c++/10.3.1/cmath **** 
 140:/Library/DaisyToolchain/0.2.0/arm/arm-none-eabi/include/c++/10.3.1/cmath ****   using ::atan2;
 141:/Library/DaisyToolchain/0.2.0/arm/arm-none-eabi/include/c++/10.3.1/cmath **** 
 142:/Library/DaisyToolchain/0.2.0/arm/arm-none-eabi/include/c++/10.3.1/cmath **** #ifndef __CORRECT_ISO_CPP_MATH_H_PROTO
 143:/Library/DaisyToolchain/0.2.0/arm/arm-none-eabi/include/c++/10.3.1/cmath ****   inline _GLIBCXX_CONSTEXPR float
 144:/Library/DaisyToolchain/0.2.0/arm/arm-none-eabi/include/c++/10.3.1/cmath ****   atan2(float __y, float __x)
 145:/Library/DaisyToolchain/0.2.0/arm/arm-none-eabi/include/c++/10.3.1/cmath ****   { return __builtin_atan2f(__y, __x); }
 146:/Library/DaisyToolchain/0.2.0/arm/arm-none-eabi/include/c++/10.3.1/cmath **** 
 147:/Library/DaisyToolchain/0.2.0/arm/arm-none-eabi/include/c++/10.3.1/cmath ****   inline _GLIBCXX_CONSTEXPR long double
 148:/Library/DaisyToolchain/0.2.0/arm/arm-none-eabi/include/c++/10.3.1/cmath ****   atan2(long double __y, long double __x)
 149:/Library/DaisyToolchain/0.2.0/arm/arm-none-eabi/include/c++/10.3.1/cmath ****   { return __builtin_atan2l(__y, __x); }
 150:/Library/DaisyToolchain/0.2.0/arm/arm-none-eabi/include/c++/10.3.1/cmath **** #endif
 151:/Library/DaisyToolchain/0.2.0/arm/arm-none-eabi/include/c++/10.3.1/cmath **** 
 152:/Library/DaisyToolchain/0.2.0/arm/arm-none-eabi/include/c++/10.3.1/cmath ****   template<typename _Tp, typename _Up>
 153:/Library/DaisyToolchain/0.2.0/arm/arm-none-eabi/include/c++/10.3.1/cmath ****     inline _GLIBCXX_CONSTEXPR
 154:/Library/DaisyToolchain/0.2.0/arm/arm-none-eabi/include/c++/10.3.1/cmath ****     typename __gnu_cxx::__promote_2<_Tp, _Up>::__type
 155:/Library/DaisyToolchain/0.2.0/arm/arm-none-eabi/include/c++/10.3.1/cmath ****     atan2(_Tp __y, _Up __x)
 156:/Library/DaisyToolchain/0.2.0/arm/arm-none-eabi/include/c++/10.3.1/cmath ****     {
 157:/Library/DaisyToolchain/0.2.0/arm/arm-none-eabi/include/c++/10.3.1/cmath ****       typedef typename __gnu_cxx::__promote_2<_Tp, _Up>::__type __type;
 158:/Library/DaisyToolchain/0.2.0/arm/arm-none-eabi/include/c++/10.3.1/cmath ****       return atan2(__type(__y), __type(__x));
 159:/Library/DaisyToolchain/0.2.0/arm/arm-none-eabi/include/c++/10.3.1/cmath ****     }
 160:/Library/DaisyToolchain/0.2.0/arm/arm-none-eabi/include/c++/10.3.1/cmath **** 
 161:/Library/DaisyToolchain/0.2.0/arm/arm-none-eabi/include/c++/10.3.1/cmath ****   using ::ceil;
 162:/Library/DaisyToolchain/0.2.0/arm/arm-none-eabi/include/c++/10.3.1/cmath **** 
 163:/Library/DaisyToolchain/0.2.0/arm/arm-none-eabi/include/c++/10.3.1/cmath **** #ifndef __CORRECT_ISO_CPP_MATH_H_PROTO
 164:/Library/DaisyToolchain/0.2.0/arm/arm-none-eabi/include/c++/10.3.1/cmath ****   inline _GLIBCXX_CONSTEXPR float
 165:/Library/DaisyToolchain/0.2.0/arm/arm-none-eabi/include/c++/10.3.1/cmath ****   ceil(float __x)
 166:/Library/DaisyToolchain/0.2.0/arm/arm-none-eabi/include/c++/10.3.1/cmath ****   { return __builtin_ceilf(__x); }
 167:/Library/DaisyToolchain/0.2.0/arm/arm-none-eabi/include/c++/10.3.1/cmath **** 
 168:/Library/DaisyToolchain/0.2.0/arm/arm-none-eabi/include/c++/10.3.1/cmath ****   inline _GLIBCXX_CONSTEXPR long double
 169:/Library/DaisyToolchain/0.2.0/arm/arm-none-eabi/include/c++/10.3.1/cmath ****   ceil(long double __x)
 170:/Library/DaisyToolchain/0.2.0/arm/arm-none-eabi/include/c++/10.3.1/cmath ****   { return __builtin_ceill(__x); }
 171:/Library/DaisyToolchain/0.2.0/arm/arm-none-eabi/include/c++/10.3.1/cmath **** #endif
 172:/Library/DaisyToolchain/0.2.0/arm/arm-none-eabi/include/c++/10.3.1/cmath **** 
 173:/Library/DaisyToolchain/0.2.0/arm/arm-none-eabi/include/c++/10.3.1/cmath ****   template<typename _Tp>
 174:/Library/DaisyToolchain/0.2.0/arm/arm-none-eabi/include/c++/10.3.1/cmath ****     inline _GLIBCXX_CONSTEXPR
 175:/Library/DaisyToolchain/0.2.0/arm/arm-none-eabi/include/c++/10.3.1/cmath ****     typename __gnu_cxx::__enable_if<__is_integer<_Tp>::__value, 
 176:/Library/DaisyToolchain/0.2.0/arm/arm-none-eabi/include/c++/10.3.1/cmath ****                                     double>::__type
 177:/Library/DaisyToolchain/0.2.0/arm/arm-none-eabi/include/c++/10.3.1/cmath ****     ceil(_Tp __x)
 178:/Library/DaisyToolchain/0.2.0/arm/arm-none-eabi/include/c++/10.3.1/cmath ****     { return __builtin_ceil(__x); }
 179:/Library/DaisyToolchain/0.2.0/arm/arm-none-eabi/include/c++/10.3.1/cmath **** 
 180:/Library/DaisyToolchain/0.2.0/arm/arm-none-eabi/include/c++/10.3.1/cmath ****   using ::cos;
 181:/Library/DaisyToolchain/0.2.0/arm/arm-none-eabi/include/c++/10.3.1/cmath **** 
 182:/Library/DaisyToolchain/0.2.0/arm/arm-none-eabi/include/c++/10.3.1/cmath **** #ifndef __CORRECT_ISO_CPP_MATH_H_PROTO
 183:/Library/DaisyToolchain/0.2.0/arm/arm-none-eabi/include/c++/10.3.1/cmath ****   inline _GLIBCXX_CONSTEXPR float
ARM GAS  /var/folders/yd/h_51qzcj4039f6rvxdz3lvym0000gn/T//ccKvYnDW.s 			page 32


 184:/Library/DaisyToolchain/0.2.0/arm/arm-none-eabi/include/c++/10.3.1/cmath ****   cos(float __x)
 185:/Library/DaisyToolchain/0.2.0/arm/arm-none-eabi/include/c++/10.3.1/cmath ****   { return __builtin_cosf(__x); }
 186:/Library/DaisyToolchain/0.2.0/arm/arm-none-eabi/include/c++/10.3.1/cmath **** 
 187:/Library/DaisyToolchain/0.2.0/arm/arm-none-eabi/include/c++/10.3.1/cmath ****   inline _GLIBCXX_CONSTEXPR long double
 188:/Library/DaisyToolchain/0.2.0/arm/arm-none-eabi/include/c++/10.3.1/cmath ****   cos(long double __x)
 189:/Library/DaisyToolchain/0.2.0/arm/arm-none-eabi/include/c++/10.3.1/cmath ****   { return __builtin_cosl(__x); }
 190:/Library/DaisyToolchain/0.2.0/arm/arm-none-eabi/include/c++/10.3.1/cmath **** #endif
 191:/Library/DaisyToolchain/0.2.0/arm/arm-none-eabi/include/c++/10.3.1/cmath **** 
 192:/Library/DaisyToolchain/0.2.0/arm/arm-none-eabi/include/c++/10.3.1/cmath ****   template<typename _Tp>
 193:/Library/DaisyToolchain/0.2.0/arm/arm-none-eabi/include/c++/10.3.1/cmath ****     inline _GLIBCXX_CONSTEXPR
 194:/Library/DaisyToolchain/0.2.0/arm/arm-none-eabi/include/c++/10.3.1/cmath ****     typename __gnu_cxx::__enable_if<__is_integer<_Tp>::__value,
 195:/Library/DaisyToolchain/0.2.0/arm/arm-none-eabi/include/c++/10.3.1/cmath ****                                     double>::__type
 196:/Library/DaisyToolchain/0.2.0/arm/arm-none-eabi/include/c++/10.3.1/cmath ****     cos(_Tp __x)
 197:/Library/DaisyToolchain/0.2.0/arm/arm-none-eabi/include/c++/10.3.1/cmath ****     { return __builtin_cos(__x); }
 198:/Library/DaisyToolchain/0.2.0/arm/arm-none-eabi/include/c++/10.3.1/cmath **** 
 199:/Library/DaisyToolchain/0.2.0/arm/arm-none-eabi/include/c++/10.3.1/cmath ****   using ::cosh;
 200:/Library/DaisyToolchain/0.2.0/arm/arm-none-eabi/include/c++/10.3.1/cmath **** 
 201:/Library/DaisyToolchain/0.2.0/arm/arm-none-eabi/include/c++/10.3.1/cmath **** #ifndef __CORRECT_ISO_CPP_MATH_H_PROTO
 202:/Library/DaisyToolchain/0.2.0/arm/arm-none-eabi/include/c++/10.3.1/cmath ****   inline _GLIBCXX_CONSTEXPR float
 203:/Library/DaisyToolchain/0.2.0/arm/arm-none-eabi/include/c++/10.3.1/cmath ****   cosh(float __x)
 204:/Library/DaisyToolchain/0.2.0/arm/arm-none-eabi/include/c++/10.3.1/cmath ****   { return __builtin_coshf(__x); }
 205:/Library/DaisyToolchain/0.2.0/arm/arm-none-eabi/include/c++/10.3.1/cmath **** 
 206:/Library/DaisyToolchain/0.2.0/arm/arm-none-eabi/include/c++/10.3.1/cmath ****   inline _GLIBCXX_CONSTEXPR long double
 207:/Library/DaisyToolchain/0.2.0/arm/arm-none-eabi/include/c++/10.3.1/cmath ****   cosh(long double __x)
 208:/Library/DaisyToolchain/0.2.0/arm/arm-none-eabi/include/c++/10.3.1/cmath ****   { return __builtin_coshl(__x); }
 209:/Library/DaisyToolchain/0.2.0/arm/arm-none-eabi/include/c++/10.3.1/cmath **** #endif
 210:/Library/DaisyToolchain/0.2.0/arm/arm-none-eabi/include/c++/10.3.1/cmath **** 
 211:/Library/DaisyToolchain/0.2.0/arm/arm-none-eabi/include/c++/10.3.1/cmath ****   template<typename _Tp>
 212:/Library/DaisyToolchain/0.2.0/arm/arm-none-eabi/include/c++/10.3.1/cmath ****     inline _GLIBCXX_CONSTEXPR
 213:/Library/DaisyToolchain/0.2.0/arm/arm-none-eabi/include/c++/10.3.1/cmath ****     typename __gnu_cxx::__enable_if<__is_integer<_Tp>::__value,
 214:/Library/DaisyToolchain/0.2.0/arm/arm-none-eabi/include/c++/10.3.1/cmath ****                                     double>::__type
 215:/Library/DaisyToolchain/0.2.0/arm/arm-none-eabi/include/c++/10.3.1/cmath ****     cosh(_Tp __x)
 216:/Library/DaisyToolchain/0.2.0/arm/arm-none-eabi/include/c++/10.3.1/cmath ****     { return __builtin_cosh(__x); }
 217:/Library/DaisyToolchain/0.2.0/arm/arm-none-eabi/include/c++/10.3.1/cmath **** 
 218:/Library/DaisyToolchain/0.2.0/arm/arm-none-eabi/include/c++/10.3.1/cmath ****   using ::exp;
 219:/Library/DaisyToolchain/0.2.0/arm/arm-none-eabi/include/c++/10.3.1/cmath **** 
 220:/Library/DaisyToolchain/0.2.0/arm/arm-none-eabi/include/c++/10.3.1/cmath **** #ifndef __CORRECT_ISO_CPP_MATH_H_PROTO
 221:/Library/DaisyToolchain/0.2.0/arm/arm-none-eabi/include/c++/10.3.1/cmath ****   inline _GLIBCXX_CONSTEXPR float
 222:/Library/DaisyToolchain/0.2.0/arm/arm-none-eabi/include/c++/10.3.1/cmath ****   exp(float __x)
 223:/Library/DaisyToolchain/0.2.0/arm/arm-none-eabi/include/c++/10.3.1/cmath ****   { return __builtin_expf(__x); }
 224:/Library/DaisyToolchain/0.2.0/arm/arm-none-eabi/include/c++/10.3.1/cmath **** 
 225:/Library/DaisyToolchain/0.2.0/arm/arm-none-eabi/include/c++/10.3.1/cmath ****   inline _GLIBCXX_CONSTEXPR long double
 226:/Library/DaisyToolchain/0.2.0/arm/arm-none-eabi/include/c++/10.3.1/cmath ****   exp(long double __x)
 227:/Library/DaisyToolchain/0.2.0/arm/arm-none-eabi/include/c++/10.3.1/cmath ****   { return __builtin_expl(__x); }
 228:/Library/DaisyToolchain/0.2.0/arm/arm-none-eabi/include/c++/10.3.1/cmath **** #endif
 229:/Library/DaisyToolchain/0.2.0/arm/arm-none-eabi/include/c++/10.3.1/cmath **** 
 230:/Library/DaisyToolchain/0.2.0/arm/arm-none-eabi/include/c++/10.3.1/cmath ****   template<typename _Tp>
 231:/Library/DaisyToolchain/0.2.0/arm/arm-none-eabi/include/c++/10.3.1/cmath ****     inline _GLIBCXX_CONSTEXPR
 232:/Library/DaisyToolchain/0.2.0/arm/arm-none-eabi/include/c++/10.3.1/cmath ****     typename __gnu_cxx::__enable_if<__is_integer<_Tp>::__value,
 233:/Library/DaisyToolchain/0.2.0/arm/arm-none-eabi/include/c++/10.3.1/cmath ****                                     double>::__type
 234:/Library/DaisyToolchain/0.2.0/arm/arm-none-eabi/include/c++/10.3.1/cmath ****     exp(_Tp __x)
 235:/Library/DaisyToolchain/0.2.0/arm/arm-none-eabi/include/c++/10.3.1/cmath ****     { return __builtin_exp(__x); }
 236:/Library/DaisyToolchain/0.2.0/arm/arm-none-eabi/include/c++/10.3.1/cmath **** 
 237:/Library/DaisyToolchain/0.2.0/arm/arm-none-eabi/include/c++/10.3.1/cmath ****   using ::fabs;
 238:/Library/DaisyToolchain/0.2.0/arm/arm-none-eabi/include/c++/10.3.1/cmath **** 
 239:/Library/DaisyToolchain/0.2.0/arm/arm-none-eabi/include/c++/10.3.1/cmath **** #ifndef __CORRECT_ISO_CPP_MATH_H_PROTO
 240:/Library/DaisyToolchain/0.2.0/arm/arm-none-eabi/include/c++/10.3.1/cmath ****   inline _GLIBCXX_CONSTEXPR float
ARM GAS  /var/folders/yd/h_51qzcj4039f6rvxdz3lvym0000gn/T//ccKvYnDW.s 			page 33


 241:/Library/DaisyToolchain/0.2.0/arm/arm-none-eabi/include/c++/10.3.1/cmath ****   fabs(float __x)
 242:/Library/DaisyToolchain/0.2.0/arm/arm-none-eabi/include/c++/10.3.1/cmath ****   { return __builtin_fabsf(__x); }
 243:/Library/DaisyToolchain/0.2.0/arm/arm-none-eabi/include/c++/10.3.1/cmath **** 
 244:/Library/DaisyToolchain/0.2.0/arm/arm-none-eabi/include/c++/10.3.1/cmath ****   inline _GLIBCXX_CONSTEXPR long double
 245:/Library/DaisyToolchain/0.2.0/arm/arm-none-eabi/include/c++/10.3.1/cmath ****   fabs(long double __x)
 246:/Library/DaisyToolchain/0.2.0/arm/arm-none-eabi/include/c++/10.3.1/cmath ****   { return __builtin_fabsl(__x); }
 247:/Library/DaisyToolchain/0.2.0/arm/arm-none-eabi/include/c++/10.3.1/cmath **** #endif
 248:/Library/DaisyToolchain/0.2.0/arm/arm-none-eabi/include/c++/10.3.1/cmath **** 
 249:/Library/DaisyToolchain/0.2.0/arm/arm-none-eabi/include/c++/10.3.1/cmath ****   template<typename _Tp>
 250:/Library/DaisyToolchain/0.2.0/arm/arm-none-eabi/include/c++/10.3.1/cmath ****     inline _GLIBCXX_CONSTEXPR
 251:/Library/DaisyToolchain/0.2.0/arm/arm-none-eabi/include/c++/10.3.1/cmath ****     typename __gnu_cxx::__enable_if<__is_integer<_Tp>::__value,
 252:/Library/DaisyToolchain/0.2.0/arm/arm-none-eabi/include/c++/10.3.1/cmath ****                                     double>::__type
 253:/Library/DaisyToolchain/0.2.0/arm/arm-none-eabi/include/c++/10.3.1/cmath ****     fabs(_Tp __x)
 254:/Library/DaisyToolchain/0.2.0/arm/arm-none-eabi/include/c++/10.3.1/cmath ****     { return __builtin_fabs(__x); }
 255:/Library/DaisyToolchain/0.2.0/arm/arm-none-eabi/include/c++/10.3.1/cmath **** 
 256:/Library/DaisyToolchain/0.2.0/arm/arm-none-eabi/include/c++/10.3.1/cmath ****   using ::floor;
 257:/Library/DaisyToolchain/0.2.0/arm/arm-none-eabi/include/c++/10.3.1/cmath **** 
 258:/Library/DaisyToolchain/0.2.0/arm/arm-none-eabi/include/c++/10.3.1/cmath **** #ifndef __CORRECT_ISO_CPP_MATH_H_PROTO
 259:/Library/DaisyToolchain/0.2.0/arm/arm-none-eabi/include/c++/10.3.1/cmath ****   inline _GLIBCXX_CONSTEXPR float
 260:/Library/DaisyToolchain/0.2.0/arm/arm-none-eabi/include/c++/10.3.1/cmath ****   floor(float __x)
 261:/Library/DaisyToolchain/0.2.0/arm/arm-none-eabi/include/c++/10.3.1/cmath ****   { return __builtin_floorf(__x); }
 262:/Library/DaisyToolchain/0.2.0/arm/arm-none-eabi/include/c++/10.3.1/cmath **** 
 263:/Library/DaisyToolchain/0.2.0/arm/arm-none-eabi/include/c++/10.3.1/cmath ****   inline _GLIBCXX_CONSTEXPR long double
 264:/Library/DaisyToolchain/0.2.0/arm/arm-none-eabi/include/c++/10.3.1/cmath ****   floor(long double __x)
 265:/Library/DaisyToolchain/0.2.0/arm/arm-none-eabi/include/c++/10.3.1/cmath ****   { return __builtin_floorl(__x); }
 266:/Library/DaisyToolchain/0.2.0/arm/arm-none-eabi/include/c++/10.3.1/cmath **** #endif
 267:/Library/DaisyToolchain/0.2.0/arm/arm-none-eabi/include/c++/10.3.1/cmath **** 
 268:/Library/DaisyToolchain/0.2.0/arm/arm-none-eabi/include/c++/10.3.1/cmath ****   template<typename _Tp>
 269:/Library/DaisyToolchain/0.2.0/arm/arm-none-eabi/include/c++/10.3.1/cmath ****     inline _GLIBCXX_CONSTEXPR
 270:/Library/DaisyToolchain/0.2.0/arm/arm-none-eabi/include/c++/10.3.1/cmath ****     typename __gnu_cxx::__enable_if<__is_integer<_Tp>::__value,
 271:/Library/DaisyToolchain/0.2.0/arm/arm-none-eabi/include/c++/10.3.1/cmath ****                                     double>::__type
 272:/Library/DaisyToolchain/0.2.0/arm/arm-none-eabi/include/c++/10.3.1/cmath ****     floor(_Tp __x)
 273:/Library/DaisyToolchain/0.2.0/arm/arm-none-eabi/include/c++/10.3.1/cmath ****     { return __builtin_floor(__x); }
 274:/Library/DaisyToolchain/0.2.0/arm/arm-none-eabi/include/c++/10.3.1/cmath **** 
 275:/Library/DaisyToolchain/0.2.0/arm/arm-none-eabi/include/c++/10.3.1/cmath ****   using ::fmod;
 276:/Library/DaisyToolchain/0.2.0/arm/arm-none-eabi/include/c++/10.3.1/cmath **** 
 277:/Library/DaisyToolchain/0.2.0/arm/arm-none-eabi/include/c++/10.3.1/cmath **** #ifndef __CORRECT_ISO_CPP_MATH_H_PROTO
 278:/Library/DaisyToolchain/0.2.0/arm/arm-none-eabi/include/c++/10.3.1/cmath ****   inline _GLIBCXX_CONSTEXPR float
 279:/Library/DaisyToolchain/0.2.0/arm/arm-none-eabi/include/c++/10.3.1/cmath ****   fmod(float __x, float __y)
 280:/Library/DaisyToolchain/0.2.0/arm/arm-none-eabi/include/c++/10.3.1/cmath ****   { return __builtin_fmodf(__x, __y); }
 281:/Library/DaisyToolchain/0.2.0/arm/arm-none-eabi/include/c++/10.3.1/cmath **** 
 282:/Library/DaisyToolchain/0.2.0/arm/arm-none-eabi/include/c++/10.3.1/cmath ****   inline _GLIBCXX_CONSTEXPR long double
 283:/Library/DaisyToolchain/0.2.0/arm/arm-none-eabi/include/c++/10.3.1/cmath ****   fmod(long double __x, long double __y)
 284:/Library/DaisyToolchain/0.2.0/arm/arm-none-eabi/include/c++/10.3.1/cmath ****   { return __builtin_fmodl(__x, __y); }
 285:/Library/DaisyToolchain/0.2.0/arm/arm-none-eabi/include/c++/10.3.1/cmath **** #endif
 286:/Library/DaisyToolchain/0.2.0/arm/arm-none-eabi/include/c++/10.3.1/cmath **** 
 287:/Library/DaisyToolchain/0.2.0/arm/arm-none-eabi/include/c++/10.3.1/cmath ****   template<typename _Tp, typename _Up>
 288:/Library/DaisyToolchain/0.2.0/arm/arm-none-eabi/include/c++/10.3.1/cmath ****     inline _GLIBCXX_CONSTEXPR
 289:/Library/DaisyToolchain/0.2.0/arm/arm-none-eabi/include/c++/10.3.1/cmath ****     typename __gnu_cxx::__promote_2<_Tp, _Up>::__type
 290:/Library/DaisyToolchain/0.2.0/arm/arm-none-eabi/include/c++/10.3.1/cmath ****     fmod(_Tp __x, _Up __y)
 291:/Library/DaisyToolchain/0.2.0/arm/arm-none-eabi/include/c++/10.3.1/cmath ****     {
 292:/Library/DaisyToolchain/0.2.0/arm/arm-none-eabi/include/c++/10.3.1/cmath ****       typedef typename __gnu_cxx::__promote_2<_Tp, _Up>::__type __type;
 293:/Library/DaisyToolchain/0.2.0/arm/arm-none-eabi/include/c++/10.3.1/cmath ****       return fmod(__type(__x), __type(__y));
 294:/Library/DaisyToolchain/0.2.0/arm/arm-none-eabi/include/c++/10.3.1/cmath ****     }
 295:/Library/DaisyToolchain/0.2.0/arm/arm-none-eabi/include/c++/10.3.1/cmath **** 
 296:/Library/DaisyToolchain/0.2.0/arm/arm-none-eabi/include/c++/10.3.1/cmath ****   using ::frexp;
 297:/Library/DaisyToolchain/0.2.0/arm/arm-none-eabi/include/c++/10.3.1/cmath **** 
ARM GAS  /var/folders/yd/h_51qzcj4039f6rvxdz3lvym0000gn/T//ccKvYnDW.s 			page 34


 298:/Library/DaisyToolchain/0.2.0/arm/arm-none-eabi/include/c++/10.3.1/cmath **** #ifndef __CORRECT_ISO_CPP_MATH_H_PROTO
 299:/Library/DaisyToolchain/0.2.0/arm/arm-none-eabi/include/c++/10.3.1/cmath ****   inline float
 300:/Library/DaisyToolchain/0.2.0/arm/arm-none-eabi/include/c++/10.3.1/cmath ****   frexp(float __x, int* __exp)
 301:/Library/DaisyToolchain/0.2.0/arm/arm-none-eabi/include/c++/10.3.1/cmath ****   { return __builtin_frexpf(__x, __exp); }
 302:/Library/DaisyToolchain/0.2.0/arm/arm-none-eabi/include/c++/10.3.1/cmath **** 
 303:/Library/DaisyToolchain/0.2.0/arm/arm-none-eabi/include/c++/10.3.1/cmath ****   inline long double
 304:/Library/DaisyToolchain/0.2.0/arm/arm-none-eabi/include/c++/10.3.1/cmath ****   frexp(long double __x, int* __exp)
 305:/Library/DaisyToolchain/0.2.0/arm/arm-none-eabi/include/c++/10.3.1/cmath ****   { return __builtin_frexpl(__x, __exp); }
 306:/Library/DaisyToolchain/0.2.0/arm/arm-none-eabi/include/c++/10.3.1/cmath **** #endif
 307:/Library/DaisyToolchain/0.2.0/arm/arm-none-eabi/include/c++/10.3.1/cmath **** 
 308:/Library/DaisyToolchain/0.2.0/arm/arm-none-eabi/include/c++/10.3.1/cmath ****   template<typename _Tp>
 309:/Library/DaisyToolchain/0.2.0/arm/arm-none-eabi/include/c++/10.3.1/cmath ****     inline _GLIBCXX_CONSTEXPR
 310:/Library/DaisyToolchain/0.2.0/arm/arm-none-eabi/include/c++/10.3.1/cmath ****     typename __gnu_cxx::__enable_if<__is_integer<_Tp>::__value, 
 311:/Library/DaisyToolchain/0.2.0/arm/arm-none-eabi/include/c++/10.3.1/cmath ****                                     double>::__type
 312:/Library/DaisyToolchain/0.2.0/arm/arm-none-eabi/include/c++/10.3.1/cmath ****     frexp(_Tp __x, int* __exp)
 313:/Library/DaisyToolchain/0.2.0/arm/arm-none-eabi/include/c++/10.3.1/cmath ****     { return __builtin_frexp(__x, __exp); }
 314:/Library/DaisyToolchain/0.2.0/arm/arm-none-eabi/include/c++/10.3.1/cmath **** 
 315:/Library/DaisyToolchain/0.2.0/arm/arm-none-eabi/include/c++/10.3.1/cmath ****   using ::ldexp;
 316:/Library/DaisyToolchain/0.2.0/arm/arm-none-eabi/include/c++/10.3.1/cmath **** 
 317:/Library/DaisyToolchain/0.2.0/arm/arm-none-eabi/include/c++/10.3.1/cmath **** #ifndef __CORRECT_ISO_CPP_MATH_H_PROTO
 318:/Library/DaisyToolchain/0.2.0/arm/arm-none-eabi/include/c++/10.3.1/cmath ****   inline _GLIBCXX_CONSTEXPR float
 319:/Library/DaisyToolchain/0.2.0/arm/arm-none-eabi/include/c++/10.3.1/cmath ****   ldexp(float __x, int __exp)
 320:/Library/DaisyToolchain/0.2.0/arm/arm-none-eabi/include/c++/10.3.1/cmath ****   { return __builtin_ldexpf(__x, __exp); }
 321:/Library/DaisyToolchain/0.2.0/arm/arm-none-eabi/include/c++/10.3.1/cmath **** 
 322:/Library/DaisyToolchain/0.2.0/arm/arm-none-eabi/include/c++/10.3.1/cmath ****   inline _GLIBCXX_CONSTEXPR long double
 323:/Library/DaisyToolchain/0.2.0/arm/arm-none-eabi/include/c++/10.3.1/cmath ****   ldexp(long double __x, int __exp)
 324:/Library/DaisyToolchain/0.2.0/arm/arm-none-eabi/include/c++/10.3.1/cmath ****   { return __builtin_ldexpl(__x, __exp); }
 325:/Library/DaisyToolchain/0.2.0/arm/arm-none-eabi/include/c++/10.3.1/cmath **** #endif
 326:/Library/DaisyToolchain/0.2.0/arm/arm-none-eabi/include/c++/10.3.1/cmath **** 
 327:/Library/DaisyToolchain/0.2.0/arm/arm-none-eabi/include/c++/10.3.1/cmath ****   template<typename _Tp>
 328:/Library/DaisyToolchain/0.2.0/arm/arm-none-eabi/include/c++/10.3.1/cmath ****     inline _GLIBCXX_CONSTEXPR
 329:/Library/DaisyToolchain/0.2.0/arm/arm-none-eabi/include/c++/10.3.1/cmath ****     typename __gnu_cxx::__enable_if<__is_integer<_Tp>::__value, 
 330:/Library/DaisyToolchain/0.2.0/arm/arm-none-eabi/include/c++/10.3.1/cmath ****                                     double>::__type
 331:/Library/DaisyToolchain/0.2.0/arm/arm-none-eabi/include/c++/10.3.1/cmath ****     ldexp(_Tp __x, int __exp)
 332:/Library/DaisyToolchain/0.2.0/arm/arm-none-eabi/include/c++/10.3.1/cmath ****     { return __builtin_ldexp(__x, __exp); }
 333:/Library/DaisyToolchain/0.2.0/arm/arm-none-eabi/include/c++/10.3.1/cmath **** 
 334:/Library/DaisyToolchain/0.2.0/arm/arm-none-eabi/include/c++/10.3.1/cmath ****   using ::log;
 335:/Library/DaisyToolchain/0.2.0/arm/arm-none-eabi/include/c++/10.3.1/cmath **** 
 336:/Library/DaisyToolchain/0.2.0/arm/arm-none-eabi/include/c++/10.3.1/cmath **** #ifndef __CORRECT_ISO_CPP_MATH_H_PROTO
 337:/Library/DaisyToolchain/0.2.0/arm/arm-none-eabi/include/c++/10.3.1/cmath ****   inline _GLIBCXX_CONSTEXPR float
 338:/Library/DaisyToolchain/0.2.0/arm/arm-none-eabi/include/c++/10.3.1/cmath ****   log(float __x)
 339:/Library/DaisyToolchain/0.2.0/arm/arm-none-eabi/include/c++/10.3.1/cmath ****   { return __builtin_logf(__x); }
 340:/Library/DaisyToolchain/0.2.0/arm/arm-none-eabi/include/c++/10.3.1/cmath **** 
 341:/Library/DaisyToolchain/0.2.0/arm/arm-none-eabi/include/c++/10.3.1/cmath ****   inline _GLIBCXX_CONSTEXPR long double
 342:/Library/DaisyToolchain/0.2.0/arm/arm-none-eabi/include/c++/10.3.1/cmath ****   log(long double __x)
 343:/Library/DaisyToolchain/0.2.0/arm/arm-none-eabi/include/c++/10.3.1/cmath ****   { return __builtin_logl(__x); }
 344:/Library/DaisyToolchain/0.2.0/arm/arm-none-eabi/include/c++/10.3.1/cmath **** #endif
 345:/Library/DaisyToolchain/0.2.0/arm/arm-none-eabi/include/c++/10.3.1/cmath **** 
 346:/Library/DaisyToolchain/0.2.0/arm/arm-none-eabi/include/c++/10.3.1/cmath ****   template<typename _Tp>
 347:/Library/DaisyToolchain/0.2.0/arm/arm-none-eabi/include/c++/10.3.1/cmath ****     inline _GLIBCXX_CONSTEXPR
 348:/Library/DaisyToolchain/0.2.0/arm/arm-none-eabi/include/c++/10.3.1/cmath ****     typename __gnu_cxx::__enable_if<__is_integer<_Tp>::__value, 
 349:/Library/DaisyToolchain/0.2.0/arm/arm-none-eabi/include/c++/10.3.1/cmath ****                                     double>::__type
 350:/Library/DaisyToolchain/0.2.0/arm/arm-none-eabi/include/c++/10.3.1/cmath ****     log(_Tp __x)
 351:/Library/DaisyToolchain/0.2.0/arm/arm-none-eabi/include/c++/10.3.1/cmath ****     { return __builtin_log(__x); }
 352:/Library/DaisyToolchain/0.2.0/arm/arm-none-eabi/include/c++/10.3.1/cmath **** 
 353:/Library/DaisyToolchain/0.2.0/arm/arm-none-eabi/include/c++/10.3.1/cmath ****   using ::log10;
 354:/Library/DaisyToolchain/0.2.0/arm/arm-none-eabi/include/c++/10.3.1/cmath **** 
ARM GAS  /var/folders/yd/h_51qzcj4039f6rvxdz3lvym0000gn/T//ccKvYnDW.s 			page 35


 355:/Library/DaisyToolchain/0.2.0/arm/arm-none-eabi/include/c++/10.3.1/cmath **** #ifndef __CORRECT_ISO_CPP_MATH_H_PROTO
 356:/Library/DaisyToolchain/0.2.0/arm/arm-none-eabi/include/c++/10.3.1/cmath ****   inline _GLIBCXX_CONSTEXPR float
 357:/Library/DaisyToolchain/0.2.0/arm/arm-none-eabi/include/c++/10.3.1/cmath ****   log10(float __x)
 358:/Library/DaisyToolchain/0.2.0/arm/arm-none-eabi/include/c++/10.3.1/cmath ****   { return __builtin_log10f(__x); }
 359:/Library/DaisyToolchain/0.2.0/arm/arm-none-eabi/include/c++/10.3.1/cmath **** 
 360:/Library/DaisyToolchain/0.2.0/arm/arm-none-eabi/include/c++/10.3.1/cmath ****   inline _GLIBCXX_CONSTEXPR long double
 361:/Library/DaisyToolchain/0.2.0/arm/arm-none-eabi/include/c++/10.3.1/cmath ****   log10(long double __x)
 362:/Library/DaisyToolchain/0.2.0/arm/arm-none-eabi/include/c++/10.3.1/cmath ****   { return __builtin_log10l(__x); }
 363:/Library/DaisyToolchain/0.2.0/arm/arm-none-eabi/include/c++/10.3.1/cmath **** #endif
 364:/Library/DaisyToolchain/0.2.0/arm/arm-none-eabi/include/c++/10.3.1/cmath **** 
 365:/Library/DaisyToolchain/0.2.0/arm/arm-none-eabi/include/c++/10.3.1/cmath ****   template<typename _Tp>
 366:/Library/DaisyToolchain/0.2.0/arm/arm-none-eabi/include/c++/10.3.1/cmath ****     inline _GLIBCXX_CONSTEXPR
 367:/Library/DaisyToolchain/0.2.0/arm/arm-none-eabi/include/c++/10.3.1/cmath ****     typename __gnu_cxx::__enable_if<__is_integer<_Tp>::__value,
 368:/Library/DaisyToolchain/0.2.0/arm/arm-none-eabi/include/c++/10.3.1/cmath ****                                     double>::__type
 369:/Library/DaisyToolchain/0.2.0/arm/arm-none-eabi/include/c++/10.3.1/cmath ****     log10(_Tp __x)
 370:/Library/DaisyToolchain/0.2.0/arm/arm-none-eabi/include/c++/10.3.1/cmath ****     { return __builtin_log10(__x); }
 371:/Library/DaisyToolchain/0.2.0/arm/arm-none-eabi/include/c++/10.3.1/cmath **** 
 372:/Library/DaisyToolchain/0.2.0/arm/arm-none-eabi/include/c++/10.3.1/cmath ****   using ::modf;
 373:/Library/DaisyToolchain/0.2.0/arm/arm-none-eabi/include/c++/10.3.1/cmath **** 
 374:/Library/DaisyToolchain/0.2.0/arm/arm-none-eabi/include/c++/10.3.1/cmath **** #ifndef __CORRECT_ISO_CPP_MATH_H_PROTO
 375:/Library/DaisyToolchain/0.2.0/arm/arm-none-eabi/include/c++/10.3.1/cmath ****   inline float
 376:/Library/DaisyToolchain/0.2.0/arm/arm-none-eabi/include/c++/10.3.1/cmath ****   modf(float __x, float* __iptr)
 377:/Library/DaisyToolchain/0.2.0/arm/arm-none-eabi/include/c++/10.3.1/cmath ****   { return __builtin_modff(__x, __iptr); }
 378:/Library/DaisyToolchain/0.2.0/arm/arm-none-eabi/include/c++/10.3.1/cmath **** 
 379:/Library/DaisyToolchain/0.2.0/arm/arm-none-eabi/include/c++/10.3.1/cmath ****   inline long double
 380:/Library/DaisyToolchain/0.2.0/arm/arm-none-eabi/include/c++/10.3.1/cmath ****   modf(long double __x, long double* __iptr)
 381:/Library/DaisyToolchain/0.2.0/arm/arm-none-eabi/include/c++/10.3.1/cmath ****   { return __builtin_modfl(__x, __iptr); }
 382:/Library/DaisyToolchain/0.2.0/arm/arm-none-eabi/include/c++/10.3.1/cmath **** #endif
 383:/Library/DaisyToolchain/0.2.0/arm/arm-none-eabi/include/c++/10.3.1/cmath **** 
 384:/Library/DaisyToolchain/0.2.0/arm/arm-none-eabi/include/c++/10.3.1/cmath ****   using ::pow;
 385:/Library/DaisyToolchain/0.2.0/arm/arm-none-eabi/include/c++/10.3.1/cmath **** 
 386:/Library/DaisyToolchain/0.2.0/arm/arm-none-eabi/include/c++/10.3.1/cmath **** #ifndef __CORRECT_ISO_CPP_MATH_H_PROTO
 387:/Library/DaisyToolchain/0.2.0/arm/arm-none-eabi/include/c++/10.3.1/cmath ****   inline _GLIBCXX_CONSTEXPR float
 388:/Library/DaisyToolchain/0.2.0/arm/arm-none-eabi/include/c++/10.3.1/cmath ****   pow(float __x, float __y)
 554              		.loc 12 388 3 is_stmt 1 view .LVU141
 555              	.LBB1378:
 389:/Library/DaisyToolchain/0.2.0/arm/arm-none-eabi/include/c++/10.3.1/cmath ****   { return __builtin_powf(__x, __y); }
 556              		.loc 12 389 5 view .LVU142
 557              		.loc 12 389 26 is_stmt 0 view .LVU143
 558 00ac B3EE040A 		vmov.f32	s0, #2.0e+1
 559              	.LBE1378:
 560              	.LBE1377:
 561              	.LBE1376:
 562              	.LBE1367:
 563              	.LBE1366:
 564              	.LBB1390:
 565              	.LBB1391:
 147:Controls.h    **** 
 566              		.loc 7 147 9 view .LVU144
 567 00b0 9FED3B9A 		vldr.32	s18, .L47+8
 568              	.LBE1391:
 569              	.LBE1390:
 570              	.LBB1397:
 571              	.LBB1385:
 572              	.LBB1381:
 573              	.LBB1380:
 574              	.LBB1379:
ARM GAS  /var/folders/yd/h_51qzcj4039f6rvxdz3lvym0000gn/T//ccKvYnDW.s 			page 36


 575              		.loc 12 389 26 view .LVU145
 576 00b4 FFF7FEFF 		bl	powf
 577              	.LVL29:
 578              		.loc 12 389 26 view .LVU146
 579              	.LBE1379:
 580              	.LBE1380:
 581              	.LBE1381:
 582              	.LBE1385:
 583              	.LBE1397:
  47:main.cpp      ****     ts.setTone(rTone, 47e-9f);
 584              		.loc 10 47 5 is_stmt 1 view .LVU147
 585              	.LBB1398:
 586              	.LBB1386:
 587              	.LBB1382:
 154:Controls.h    **** 
 588              		.loc 7 154 25 is_stmt 0 view .LVU148
 589 00b8 DFED3B7A 		vldr.32	s15, .L47+16
 590              	.LBE1382:
 591              	.LBE1386:
 592              	.LBE1398:
 593              		.loc 10 47 15 view .LVU149
 594 00bc DFED3B0A 		vldr.32	s1, .L47+20
 595 00c0 20EE270A 		vmul.f32	s0, s0, s15
 596              	.LVL30:
 597              		.loc 10 47 15 view .LVU150
 598 00c4 3A48     		ldr	r0, .L47+24
 599 00c6 FFF7FEFF 		bl	_ZN12TubeScreamer7setToneEff
 600              	.LVL31:
  48:main.cpp      **** 
  49:main.cpp      ****     float preGain = ui.PotMapped(3, 0.0f, 1.0f); // Map pot 3 to pre-gain range
 601              		.loc 10 49 5 is_stmt 1 view .LVU151
 602              	.LBB1399:
 603              	.LBI1390:
 144:Controls.h    ****     {
 604              		.loc 7 144 11 view .LVU152
 605              	.LBB1396:
 606              	.LBB1392:
 607              	.LBI1392:
 137:Controls.h    ****     {
 608              		.loc 7 137 11 view .LVU153
 609              	.LBB1393:
 610              	.LBB1394:
 611              	.LBI1394:
 612              		.loc 8 189 7 view .LVU154
 613              	.LBB1395:
 614              	.LBI1395:
  55:/Library/DaisyToolchain/0.2.0/arm/arm-none-eabi/include/c++/10.3.1/array ****       { return const_cast<_Tp&>(__t[__n]); }
 615              		.loc 8 55 7 view .LVU155
  55:/Library/DaisyToolchain/0.2.0/arm/arm-none-eabi/include/c++/10.3.1/array ****       { return const_cast<_Tp&>(__t[__n]); }
 616              		.loc 8 55 7 is_stmt 0 view .LVU156
 617              	.LBE1395:
 618              	.LBE1394:
 139:Controls.h    ****     }
 619              		.loc 7 139 28 view .LVU157
 620 00ca D6ED517A 		vldr.32	s15, [r6, #324]
 621              	.LVL32:
 139:Controls.h    ****     }
ARM GAS  /var/folders/yd/h_51qzcj4039f6rvxdz3lvym0000gn/T//ccKvYnDW.s 			page 37


 622              		.loc 7 139 28 view .LVU158
 623              	.LBE1393:
 624              	.LBE1392:
 147:Controls.h    **** 
 625              		.loc 7 147 9 view .LVU159
 626 00ce F4EEC97A 		vcmpe.f32	s15, s18
 627 00d2 F1EE10FA 		vmrs	APSR_nzcv, FPSCR
 628 00d6 0AD4     		bmi	.L26
 147:Controls.h    **** 
 629              		.loc 7 147 35 view .LVU160
 630 00d8 B7EE007A 		vmov.f32	s14, #1.0e+0
 631 00dc F4EEC77A 		vcmpe.f32	s15, s14
 632 00e0 F1EE10FA 		vmrs	APSR_nzcv, FPSCR
 161:Controls.h    ****     }
 633              		.loc 7 161 42 view .LVU161
 634 00e4 D4BF     		ite	le
 635 00e6 37EE899A 		vaddle.f32	s18, s15, s18
 636 00ea B0EE479A 		vmovgt.f32	s18, s14
 637              	.L26:
 638              	.LVL33:
 161:Controls.h    ****     }
 639              		.loc 7 161 42 view .LVU162
 640              	.LBE1396:
 641              	.LBE1399:
  50:main.cpp      ****     float postGain = ui.PotMapped(5, 0.0f, 2.0f); // Map pot 5 to post-gain range
 642              		.loc 10 50 5 is_stmt 1 view .LVU163
 643              	.LBB1400:
 644              	.LBI1400:
 144:Controls.h    ****     {
 645              		.loc 7 144 11 view .LVU164
 646              	.LBB1401:
 647              	.LBB1402:
 648              	.LBI1402:
 137:Controls.h    ****     {
 649              		.loc 7 137 11 view .LVU165
 650              	.LBB1403:
 651              	.LBB1404:
 652              	.LBI1404:
 653              		.loc 8 189 7 view .LVU166
 654              	.LBB1405:
 655              	.LBI1405:
  55:/Library/DaisyToolchain/0.2.0/arm/arm-none-eabi/include/c++/10.3.1/array ****       { return const_cast<_Tp&>(__t[__n]); }
 656              		.loc 8 55 7 view .LVU167
  55:/Library/DaisyToolchain/0.2.0/arm/arm-none-eabi/include/c++/10.3.1/array ****       { return const_cast<_Tp&>(__t[__n]); }
 657              		.loc 8 55 7 is_stmt 0 view .LVU168
 658              	.LBE1405:
 659              	.LBE1404:
 139:Controls.h    ****     }
 660              		.loc 7 139 28 view .LVU169
 661 00ee D6ED537A 		vldr.32	s15, [r6, #332]
 662              	.LVL34:
 139:Controls.h    ****     }
 663              		.loc 7 139 28 view .LVU170
 664              	.LBE1403:
 665              	.LBE1402:
 147:Controls.h    **** 
 666              		.loc 7 147 9 view .LVU171
ARM GAS  /var/folders/yd/h_51qzcj4039f6rvxdz3lvym0000gn/T//ccKvYnDW.s 			page 38


 667 00f2 DFED2B8A 		vldr.32	s17, .L47+8
 668 00f6 F4EEE87A 		vcmpe.f32	s15, s17
 669 00fa F1EE10FA 		vmrs	APSR_nzcv, FPSCR
 670 00fe 08D4     		bmi	.L27
 147:Controls.h    **** 
 671              		.loc 7 147 35 view .LVU172
 672 0100 B7EE007A 		vmov.f32	s14, #1.0e+0
 673 0104 F4EEC77A 		vcmpe.f32	s15, s14
 674 0108 F1EE10FA 		vmrs	APSR_nzcv, FPSCR
 675 010c 31DD     		ble	.L44
 676 010e F0EE008A 		vmov.f32	s17, #2.0e+0
 677              	.L27:
 678              	.LVL35:
 147:Controls.h    **** 
 679              		.loc 7 147 35 view .LVU173
 680              	.LBE1401:
 681              	.LBE1400:
  51:main.cpp      **** 
  52:main.cpp      ****     for (size_t i = 0; i < size; i += 2)
 682              		.loc 10 52 5 is_stmt 1 view .LVU174
 683              	.LBB1407:
 684              		.loc 10 52 26 view .LVU175
 685 0112 B8F1000F 		cmp	r8, #0
 686 0116 24D0     		beq	.L18
 687              		.loc 10 52 17 is_stmt 0 view .LVU176
 688 0118 0026     		movs	r6, #0
 689 011a 12E0     		b	.L32
 690              	.LVL36:
 691              	.L45:
 692              	.LBB1408:
 693              	.LBB1409:
  53:main.cpp      ****     {
  54:main.cpp      ****         if(on)
  55:main.cpp      ****         {
  56:main.cpp      ****             float x = in[i+1] * preGain;    // Apply pre-gain to the input signal
 694              		.loc 10 56 19 view .LVU177
 695 011c 95ED010A 		vldr.32	s0, [r5, #4]
 696              	.LVL37:
  57:main.cpp      ****             x = ts.processSample(x, gain);  // Process the audio signal through the Tube Screamer
 697              		.loc 10 57 13 is_stmt 1 view .LVU178
 698              	.LBE1409:
 699              	.LBE1408:
  52:main.cpp      ****     {
 700              		.loc 10 52 36 is_stmt 0 view .LVU179
 701 0120 0236     		adds	r6, r6, #2
 702              	.LVL38:
  52:main.cpp      ****     {
 703              		.loc 10 52 26 view .LVU180
 704 0122 0835     		adds	r5, r5, #8
 705 0124 0834     		adds	r4, r4, #8
 706              	.LBB1435:
 707              	.LBB1416:
 708              		.loc 10 57 33 view .LVU181
 709 0126 29EE000A 		vmul.f32	s0, s18, s0
 710              	.LVL39:
 711              		.loc 10 57 33 view .LVU182
 712 012a FFF7FEFF 		bl	_ZN12TubeScreamer13processSampleEff
ARM GAS  /var/folders/yd/h_51qzcj4039f6rvxdz3lvym0000gn/T//ccKvYnDW.s 			page 39


 713              	.LVL40:
  58:main.cpp      ****             out[i + 1] = x * postGain;      // Apply post-gain to the output signal
 714              		.loc 10 58 13 is_stmt 1 view .LVU183
 715              		.loc 10 58 28 is_stmt 0 view .LVU184
 716 012e 20EE280A 		vmul.f32	s0, s0, s17
 717              	.LVL41:
 718              	.LBB1410:
 719              	.LBB1411:
 212:Controls.h    ****     }
 720              		.loc 7 212 27 view .LVU185
 721 0132 0121     		movs	r1, #1
 722 0134 1F48     		ldr	r0, .L47+28
 723              	.LBE1411:
 724              	.LBE1410:
 725              		.loc 10 58 24 view .LVU186
 726 0136 04ED010A 		vstr.32	s0, [r4, #-4]
  59:main.cpp      ****             ui.LedWrite(0, on);             // Light LED when not bypassed
 727              		.loc 10 59 13 is_stmt 1 view .LVU187
 728              	.LVL42:
 729              	.LBB1415:
 730              	.LBI1410:
 209:Controls.h    ****     {
 731              		.loc 7 209 10 view .LVU188
 732              	.LBB1414:
 733              	.LBB1412:
 734              	.LBI1412:
 185:/Library/DaisyToolchain/0.2.0/arm/arm-none-eabi/include/c++/10.3.1/array ****       { return _AT_Type::_S_ref(_M_elems, __n); }
 735              		.loc 8 185 7 view .LVU189
 736              	.LBB1413:
 737              	.LBI1413:
  55:/Library/DaisyToolchain/0.2.0/arm/arm-none-eabi/include/c++/10.3.1/array ****       { return const_cast<_Tp&>(__t[__n]); }
 738              		.loc 8 55 7 view .LVU190
  55:/Library/DaisyToolchain/0.2.0/arm/arm-none-eabi/include/c++/10.3.1/array ****       { return const_cast<_Tp&>(__t[__n]); }
 739              		.loc 8 55 7 is_stmt 0 view .LVU191
 740              	.LBE1413:
 741              	.LBE1412:
 212:Controls.h    ****     }
 742              		.loc 7 212 27 view .LVU192
 743 013a FFF7FEFF 		bl	_ZN5daisy4GPIO5WriteEb
 744              	.LVL43:
 212:Controls.h    ****     }
 745              		.loc 7 212 27 view .LVU193
 746              	.LBE1414:
 747              	.LBE1415:
 748              	.LBE1416:
 749              	.LBE1435:
  52:main.cpp      ****     {
 750              		.loc 10 52 5 is_stmt 1 view .LVU194
  52:main.cpp      ****     {
 751              		.loc 10 52 26 view .LVU195
 752 013e B045     		cmp	r8, r6
 753 0140 0FD9     		bls	.L18
 754              	.LVL44:
 755              	.L32:
  52:main.cpp      ****     {
 756              		.loc 10 52 26 is_stmt 0 view .LVU196
 757              	.LBE1407:
ARM GAS  /var/folders/yd/h_51qzcj4039f6rvxdz3lvym0000gn/T//ccKvYnDW.s 			page 40


  54:main.cpp      ****         {
 758              		.loc 10 54 9 is_stmt 1 view .LVU197
 759              	.LBB1440:
 760              	.LBB1436:
 761              	.LBB1417:
  56:main.cpp      ****             x = ts.processSample(x, gain);  // Process the audio signal through the Tube Screamer
 762              		.loc 10 56 13 view .LVU198
 763              	.LBE1417:
 764              	.LBB1418:
  60:main.cpp      ****         }
  61:main.cpp      ****         else
  62:main.cpp      ****         {
  63:main.cpp      ****             float x = in[i+1];              // Bypass - just pass input to output
 765              		.loc 10 63 13 view .LVU199
 766              	.LBE1418:
 767              	.LBB1429:
  57:main.cpp      ****             out[i + 1] = x * postGain;      // Apply post-gain to the output signal
 768              		.loc 10 57 33 is_stmt 0 view .LVU200
 769 0142 F0EE480A 		vmov.f32	s1, s16
 770 0146 1A48     		ldr	r0, .L47+24
 771              	.LBE1429:
 772              	.LBB1430:
 773              	.LBB1419:
 774              	.LBB1420:
 212:Controls.h    ****     }
 775              		.loc 7 212 27 view .LVU201
 776 0148 3946     		mov	r1, r7
 777              	.LBE1420:
 778              	.LBE1419:
 779              	.LBE1430:
  54:main.cpp      ****         {
 780              		.loc 10 54 9 view .LVU202
 781 014a 002F     		cmp	r7, #0
 782 014c E6D1     		bne	.L45
 783              	.LBB1431:
 784              		.loc 10 63 19 view .LVU203
 785 014e 6B68     		ldr	r3, [r5, #4]	@ float
 786              	.LVL45:
  64:main.cpp      ****             out[i + 1] = x;
 787              		.loc 10 64 13 is_stmt 1 view .LVU204
 788              	.LBE1431:
 789              	.LBE1436:
  52:main.cpp      ****     {
 790              		.loc 10 52 36 is_stmt 0 view .LVU205
 791 0150 0236     		adds	r6, r6, #2
 792              	.LVL46:
 793              	.LBB1437:
 794              	.LBB1432:
 795              	.LBB1426:
 796              	.LBB1423:
 212:Controls.h    ****     }
 797              		.loc 7 212 27 view .LVU206
 798 0152 1848     		ldr	r0, .L47+28
 799              	.LBE1423:
 800              	.LBE1426:
 801              	.LBE1432:
 802              	.LBE1437:
ARM GAS  /var/folders/yd/h_51qzcj4039f6rvxdz3lvym0000gn/T//ccKvYnDW.s 			page 41


  52:main.cpp      ****     {
 803              		.loc 10 52 26 view .LVU207
 804 0154 0835     		adds	r5, r5, #8
 805              	.LBB1438:
 806              	.LBB1433:
 807              		.loc 10 64 24 view .LVU208
 808 0156 6360     		str	r3, [r4, #4]	@ float
  65:main.cpp      ****             ui.LedWrite(0, on);             // Don't light LED when bypassed
 809              		.loc 10 65 13 is_stmt 1 view .LVU209
 810              	.LVL47:
 811              	.LBB1427:
 812              	.LBI1419:
 209:Controls.h    ****     {
 813              		.loc 7 209 10 view .LVU210
 814              	.LBB1424:
 815              	.LBB1421:
 816              	.LBI1421:
 185:/Library/DaisyToolchain/0.2.0/arm/arm-none-eabi/include/c++/10.3.1/array ****       { return _AT_Type::_S_ref(_M_elems, __n); }
 817              		.loc 8 185 7 view .LVU211
 818              	.LBB1422:
 819              	.LBI1422:
  55:/Library/DaisyToolchain/0.2.0/arm/arm-none-eabi/include/c++/10.3.1/array ****       { return const_cast<_Tp&>(__t[__n]); }
 820              		.loc 8 55 7 view .LVU212
  55:/Library/DaisyToolchain/0.2.0/arm/arm-none-eabi/include/c++/10.3.1/array ****       { return const_cast<_Tp&>(__t[__n]); }
 821              		.loc 8 55 7 is_stmt 0 view .LVU213
 822              	.LBE1422:
 823              	.LBE1421:
 824              	.LBE1424:
 825              	.LBE1427:
 826              	.LBE1433:
 827              	.LBE1438:
  52:main.cpp      ****     {
 828              		.loc 10 52 26 view .LVU214
 829 0158 0834     		adds	r4, r4, #8
 830              	.LBB1439:
 831              	.LBB1434:
 832              	.LBB1428:
 833              	.LBB1425:
 212:Controls.h    ****     }
 834              		.loc 7 212 27 view .LVU215
 835 015a FFF7FEFF 		bl	_ZN5daisy4GPIO5WriteEb
 836              	.LVL48:
 212:Controls.h    ****     }
 837              		.loc 7 212 27 view .LVU216
 838              	.LBE1425:
 839              	.LBE1428:
 840              	.LBE1434:
 841              	.LBE1439:
  52:main.cpp      ****     {
 842              		.loc 10 52 5 is_stmt 1 view .LVU217
  52:main.cpp      ****     {
 843              		.loc 10 52 26 view .LVU218
 844 015e B045     		cmp	r8, r6
 845 0160 EFD8     		bhi	.L32
 846              	.LVL49:
 847              	.L18:
  52:main.cpp      ****     {
ARM GAS  /var/folders/yd/h_51qzcj4039f6rvxdz3lvym0000gn/T//ccKvYnDW.s 			page 42


 848              		.loc 10 52 26 is_stmt 0 view .LVU219
 849              	.LBE1440:
  66:main.cpp      ****         }
  67:main.cpp      ****         /* Pre and Post-Gain is only applied when the effect is on as Post-Gain is effectively the 
  68:main.cpp      ****     }
  69:main.cpp      **** }
 850              		.loc 10 69 1 view .LVU220
 851 0162 BDEC048B 		vldm	sp!, {d8-d9}
 852              		.cfi_remember_state
 853              		.cfi_restore 82
 854              		.cfi_restore 83
 855              		.cfi_restore 80
 856              		.cfi_restore 81
 857              		.cfi_def_cfa_offset 32
 858 0166 BDE8F883 		pop	{r3, r4, r5, r6, r7, r8, r9, pc}
 859              	.LVL50:
 860              	.L42:
 861              		.cfi_restore_state
  41:main.cpp      ****         on = ui.EffectOn();
 862              		.loc 10 41 9 is_stmt 1 view .LVU221
 863              	.LBB1441:
 864              	.LBI1441:
 235:Controls.h    ****     {
 865              		.loc 7 235 10 view .LVU222
 866              	.LBB1442:
 237:Controls.h    ****     }
 867              		.loc 7 237 23 is_stmt 0 view .LVU223
 868 016a 87F00107 		eor	r7, r7, #1
 869              	.LVL51:
 237:Controls.h    ****     }
 870              		.loc 7 237 20 view .LVU224
 871 016e 3772     		strb	r7, [r6, #8]
 872              	.LVL52:
 237:Controls.h    ****     }
 873              		.loc 7 237 20 view .LVU225
 874              	.LBE1442:
 875              	.LBE1441:
  42:main.cpp      ****     }    
 876              		.loc 10 42 9 is_stmt 1 view .LVU226
  42:main.cpp      ****     }    
 877              		.loc 10 42 9 is_stmt 0 view .LVU227
 878 0170 7BE7     		b	.L21
 879              	.LVL53:
 880              	.L44:
 881              	.LBB1443:
 882              	.LBB1406:
 161:Controls.h    ****     }
 883              		.loc 7 161 42 view .LVU228
 884 0172 B0EE007A 		vmov.f32	s14, #2.0e+0
 885 0176 E7EE878A 		vfma.f32	s17, s15, s14
 886 017a CAE7     		b	.L27
 887              	.LVL54:
 888              	.L43:
 161:Controls.h    ****     }
 889              		.loc 7 161 42 view .LVU229
 890              	.LBE1406:
 891              	.LBE1443:
ARM GAS  /var/folders/yd/h_51qzcj4039f6rvxdz3lvym0000gn/T//ccKvYnDW.s 			page 43


 892              	.LBB1444:
 893              	.LBB1387:
 894              	.LBB1383:
 895              	.LBB1374:
 139:Controls.h    ****     }
 896              		.loc 7 139 28 view .LVU230
 897 017c D6ED500A 		vldr.32	s1, [r6, #320]
 898              	.LBE1374:
 899              	.LBE1383:
 900              	.LBE1387:
 901              	.LBE1444:
 902              	.LBB1445:
 903              	.LBB1364:
 161:Controls.h    ****     }
 904              		.loc 7 161 42 view .LVU231
 905 0180 9FED087A 		vldr.32	s14, .L47+12
 906              	.LBE1364:
 907              	.LBE1445:
 908              	.LBB1446:
 909              	.LBB1388:
 147:Controls.h    **** 
 910              		.loc 7 147 9 view .LVU232
 911 0184 F5EEC00A 		vcmpe.f32	s1, #0
 912              	.LBE1388:
 913              	.LBE1446:
 914              	.LBB1447:
 915              	.LBB1365:
 161:Controls.h    ****     }
 916              		.loc 7 161 42 view .LVU233
 917 0188 A7EE878A 		vfma.f32	s16, s15, s14
 918              	.LVL55:
 161:Controls.h    ****     }
 919              		.loc 7 161 42 view .LVU234
 920              	.LBE1365:
 921              	.LBE1447:
  46:main.cpp      ****     ts.setTone(rTone, 47e-9f);
 922              		.loc 10 46 5 is_stmt 1 view .LVU235
 923              	.LBB1448:
 144:Controls.h    ****     {
 924              		.loc 7 144 11 view .LVU236
 925              	.LBB1389:
 926              	.LBB1384:
 137:Controls.h    ****     {
 927              		.loc 7 137 11 view .LVU237
 928              	.LBB1375:
 929              	.LBB1373:
 930              		.loc 8 189 7 view .LVU238
 931              	.LBB1372:
  55:/Library/DaisyToolchain/0.2.0/arm/arm-none-eabi/include/c++/10.3.1/array ****       { return const_cast<_Tp&>(__t[__n]); }
 932              		.loc 8 55 7 view .LVU239
  55:/Library/DaisyToolchain/0.2.0/arm/arm-none-eabi/include/c++/10.3.1/array ****       { return const_cast<_Tp&>(__t[__n]); }
 933              		.loc 8 55 7 is_stmt 0 view .LVU240
 934              	.LBE1372:
 935              	.LBE1373:
 936              	.LBE1375:
 937              	.LBE1384:
 147:Controls.h    **** 
ARM GAS  /var/folders/yd/h_51qzcj4039f6rvxdz3lvym0000gn/T//ccKvYnDW.s 			page 44


 938              		.loc 7 147 9 view .LVU241
 939 018c F1EE10FA 		vmrs	APSR_nzcv, FPSCR
 940 0190 84D5     		bpl	.L46
 941              	.L35:
 147:Controls.h    **** 
 942              		.loc 7 147 23 view .LVU242
 943 0192 DFED030A 		vldr.32	s1, .L47+8
 944              	.LVL56:
 147:Controls.h    **** 
 945              		.loc 7 147 23 view .LVU243
 946 0196 89E7     		b	.L24
 947              	.L48:
 948              		.align	2
 949              	.L47:
 950 0198 78000000 		.word	.LANCHOR0+120
 951 019c 00000000 		.word	.LANCHOR0
 952 01a0 00000000 		.word	0
 953 01a4 0024F448 		.word	1223959552
 954 01a8 00007A44 		.word	1148846080
 955 01ac 0CDD4933 		.word	860478732
 956 01b0 00000000 		.word	.LANCHOR1
 957 01b4 B0010000 		.word	.LANCHOR0+432
 958              	.LBE1389:
 959              	.LBE1448:
 960              		.cfi_endproc
 961              	.LFE5365:
 963              		.section	.text._ZN12TubeScreamerD2Ev,"axG",%progbits,_ZN12TubeScreamerD5Ev,comdat
 964              		.align	1
 965              		.p2align 2,,3
 966              		.weak	_ZN12TubeScreamerD2Ev
 967              		.syntax unified
 968              		.thumb
 969              		.thumb_func
 971              	_ZN12TubeScreamerD2Ev:
 972              	.LVL57:
 973              	.LFB6175:
 974              		.file 13 "TubeScreamer.h"
   1:TubeScreamer.h **** #pragma once
   2:TubeScreamer.h **** 
   3:TubeScreamer.h **** #include "RCFilter.h"
   4:TubeScreamer.h **** #include "Oversampler2x.h"
   5:TubeScreamer.h **** #include "TSClipping.h"
   6:TubeScreamer.h **** 
   7:TubeScreamer.h **** class TubeScreamer
 975              		.loc 13 7 7 is_stmt 1 view -0
 976              		.cfi_startproc
 977              		@ args = 0, pretend = 0, frame = 0
 978              		@ frame_needed = 0, uses_anonymous_args = 0
 979              		.loc 13 7 7 is_stmt 0 view .LVU245
 980 0000 38B5     		push	{r3, r4, r5, lr}
 981              		.cfi_def_cfa_offset 16
 982              		.cfi_offset 3, -16
 983              		.cfi_offset 4, -12
 984              		.cfi_offset 5, -8
 985              		.cfi_offset 14, -4
 986              		.loc 13 7 7 view .LVU246
 987 0002 0446     		mov	r4, r0
ARM GAS  /var/folders/yd/h_51qzcj4039f6rvxdz3lvym0000gn/T//ccKvYnDW.s 			page 45


 988              	.LVL58:
 989              	.LBB1959:
 990              	.LBI1959:
 991              		.file 14 "TSClipping.h"
   1:TSClipping.h  **** #pragma once
   2:TSClipping.h  **** 
   3:TSClipping.h  **** #include "ClipWDFa.h"
   4:TSClipping.h  **** #include "ClipWDFb.h"
   5:TSClipping.h  **** #include "ClipWDFc.h"
   6:TSClipping.h  **** 
   7:TSClipping.h  **** class ClippingStage
 992              		.loc 14 7 7 is_stmt 1 view .LVU247
 993              	.LBB1960:
 994              	.LBI1960:
 995              		.file 15 "ClipWDFc.h"
   1:ClipWDFc.h    **** /*
   2:ClipWDFc.h    ****  * ClipWDFc is the third and final part of the WDF implementation of a Tube Screamer clipping secti
   3:ClipWDFc.h    ****  * "An Improved and Generalized Diode Clipper Model for Wave Digital Filters" by Werner et al.
   4:ClipWDFc.h    ****  * It models the final stage of the clipping circuit, the voltage across the diode pair which clip 
   5:ClipWDFc.h    **** */
   6:ClipWDFc.h    **** 
   7:ClipWDFc.h    **** #pragma once
   8:ClipWDFc.h    **** 
   9:ClipWDFc.h    **** #include <chowdsp_wdf/chowdsp_wdf.h>
  10:ClipWDFc.h    **** 
  11:ClipWDFc.h    **** class ClipWDFc
 996              		.loc 15 11 7 view .LVU248
 997              	.LBB1961:
 998              	.LBI1961:
 999              		.file 16 "./chowdsp_wdf/wdf/wdf_nonlinearities.h"
   1:./chowdsp_wdf/wdf/wdf_nonlinearities.h **** #ifndef CHOWDSP_WDF_WDF_NONLINEARITIES_H
   2:./chowdsp_wdf/wdf/wdf_nonlinearities.h **** #define CHOWDSP_WDF_WDF_NONLINEARITIES_H
   3:./chowdsp_wdf/wdf/wdf_nonlinearities.h **** 
   4:./chowdsp_wdf/wdf/wdf_nonlinearities.h **** #include "wdf_base.h"
   5:./chowdsp_wdf/wdf/wdf_nonlinearities.h **** 
   6:./chowdsp_wdf/wdf/wdf_nonlinearities.h **** namespace chowdsp
   7:./chowdsp_wdf/wdf/wdf_nonlinearities.h **** {
   8:./chowdsp_wdf/wdf/wdf_nonlinearities.h **** namespace wdf
   9:./chowdsp_wdf/wdf/wdf_nonlinearities.h **** {
  10:./chowdsp_wdf/wdf/wdf_nonlinearities.h ****     /** WDF Switch (non-adaptable) */
  11:./chowdsp_wdf/wdf/wdf_nonlinearities.h ****     template <typename T>
  12:./chowdsp_wdf/wdf/wdf_nonlinearities.h ****     class Switch final : public WDFWrapper<T, wdft::SwitchT<T, WDF<T>>>
  13:./chowdsp_wdf/wdf/wdf_nonlinearities.h ****     {
  14:./chowdsp_wdf/wdf/wdf_nonlinearities.h ****     public:
  15:./chowdsp_wdf/wdf/wdf_nonlinearities.h ****         explicit Switch (WDF<T>* next) : WDFWrapper<T, wdft::SwitchT<T, WDF<T>>> ("Switch", *next)
  16:./chowdsp_wdf/wdf/wdf_nonlinearities.h ****         {
  17:./chowdsp_wdf/wdf/wdf_nonlinearities.h ****             next->connectToNode (this);
  18:./chowdsp_wdf/wdf/wdf_nonlinearities.h ****         }
  19:./chowdsp_wdf/wdf/wdf_nonlinearities.h **** 
  20:./chowdsp_wdf/wdf/wdf_nonlinearities.h ****         /** Sets the state of the switch. */
  21:./chowdsp_wdf/wdf/wdf_nonlinearities.h ****         void setClosed (bool shouldClose)
  22:./chowdsp_wdf/wdf/wdf_nonlinearities.h ****         {
  23:./chowdsp_wdf/wdf/wdf_nonlinearities.h ****             this->internalWDF.setClosed (shouldClose);
  24:./chowdsp_wdf/wdf/wdf_nonlinearities.h ****         }
  25:./chowdsp_wdf/wdf/wdf_nonlinearities.h ****     };
  26:./chowdsp_wdf/wdf/wdf_nonlinearities.h **** 
  27:./chowdsp_wdf/wdf/wdf_nonlinearities.h ****     /** WDF Open circuit (non-adaptable) */
ARM GAS  /var/folders/yd/h_51qzcj4039f6rvxdz3lvym0000gn/T//ccKvYnDW.s 			page 46


  28:./chowdsp_wdf/wdf/wdf_nonlinearities.h ****     template <typename T>
  29:./chowdsp_wdf/wdf/wdf_nonlinearities.h ****     class Open final : public WDF<T>
  30:./chowdsp_wdf/wdf/wdf_nonlinearities.h ****     {
  31:./chowdsp_wdf/wdf/wdf_nonlinearities.h ****     public:
  32:./chowdsp_wdf/wdf/wdf_nonlinearities.h ****         Open() : WDF<T> ("Open")
  33:./chowdsp_wdf/wdf/wdf_nonlinearities.h ****         {
  34:./chowdsp_wdf/wdf/wdf_nonlinearities.h ****             this->R = (T) 1.0e15;
  35:./chowdsp_wdf/wdf/wdf_nonlinearities.h ****             this->G = (T) 1.0 / this->R;
  36:./chowdsp_wdf/wdf/wdf_nonlinearities.h ****         }
  37:./chowdsp_wdf/wdf/wdf_nonlinearities.h **** 
  38:./chowdsp_wdf/wdf/wdf_nonlinearities.h ****         inline void calcImpedance() override {}
  39:./chowdsp_wdf/wdf/wdf_nonlinearities.h **** 
  40:./chowdsp_wdf/wdf/wdf_nonlinearities.h ****         /** Accepts an incident wave into a WDF open. */
  41:./chowdsp_wdf/wdf/wdf_nonlinearities.h ****         inline void incident (T x) noexcept override
  42:./chowdsp_wdf/wdf/wdf_nonlinearities.h ****         {
  43:./chowdsp_wdf/wdf/wdf_nonlinearities.h ****             this->a = x;
  44:./chowdsp_wdf/wdf/wdf_nonlinearities.h ****         }
  45:./chowdsp_wdf/wdf/wdf_nonlinearities.h **** 
  46:./chowdsp_wdf/wdf/wdf_nonlinearities.h ****         /** Propogates a reflected wave from a WDF open. */
  47:./chowdsp_wdf/wdf/wdf_nonlinearities.h ****         inline T reflected() noexcept override
  48:./chowdsp_wdf/wdf/wdf_nonlinearities.h ****         {
  49:./chowdsp_wdf/wdf/wdf_nonlinearities.h ****             this->b = this->a;
  50:./chowdsp_wdf/wdf/wdf_nonlinearities.h ****             return this->b;
  51:./chowdsp_wdf/wdf/wdf_nonlinearities.h ****         }
  52:./chowdsp_wdf/wdf/wdf_nonlinearities.h ****     };
  53:./chowdsp_wdf/wdf/wdf_nonlinearities.h **** 
  54:./chowdsp_wdf/wdf/wdf_nonlinearities.h ****     /** WDF Short circuit (non-adaptable) */
  55:./chowdsp_wdf/wdf/wdf_nonlinearities.h ****     template <typename T>
  56:./chowdsp_wdf/wdf/wdf_nonlinearities.h ****     class Short final : public WDF<T>
  57:./chowdsp_wdf/wdf/wdf_nonlinearities.h ****     {
  58:./chowdsp_wdf/wdf/wdf_nonlinearities.h ****     public:
  59:./chowdsp_wdf/wdf/wdf_nonlinearities.h ****         Short() : WDF<T> ("Short")
  60:./chowdsp_wdf/wdf/wdf_nonlinearities.h ****         {
  61:./chowdsp_wdf/wdf/wdf_nonlinearities.h ****             this->R = (T) 1.0e-15;
  62:./chowdsp_wdf/wdf/wdf_nonlinearities.h ****             this->G = (T) 1.0 / this->R;
  63:./chowdsp_wdf/wdf/wdf_nonlinearities.h ****         }
  64:./chowdsp_wdf/wdf/wdf_nonlinearities.h **** 
  65:./chowdsp_wdf/wdf/wdf_nonlinearities.h ****         inline void calcImpedance() override {}
  66:./chowdsp_wdf/wdf/wdf_nonlinearities.h **** 
  67:./chowdsp_wdf/wdf/wdf_nonlinearities.h ****         /** Accepts an incident wave into a WDF short. */
  68:./chowdsp_wdf/wdf/wdf_nonlinearities.h ****         inline void incident (T x) noexcept override
  69:./chowdsp_wdf/wdf/wdf_nonlinearities.h ****         {
  70:./chowdsp_wdf/wdf/wdf_nonlinearities.h ****             this->a = x;
  71:./chowdsp_wdf/wdf/wdf_nonlinearities.h ****         }
  72:./chowdsp_wdf/wdf/wdf_nonlinearities.h **** 
  73:./chowdsp_wdf/wdf/wdf_nonlinearities.h ****         /** Propogates a reflected wave from a WDF short. */
  74:./chowdsp_wdf/wdf/wdf_nonlinearities.h ****         inline T reflected() noexcept override
  75:./chowdsp_wdf/wdf/wdf_nonlinearities.h ****         {
  76:./chowdsp_wdf/wdf/wdf_nonlinearities.h ****             this->b = -this->a;
  77:./chowdsp_wdf/wdf/wdf_nonlinearities.h ****             return this->b;
  78:./chowdsp_wdf/wdf/wdf_nonlinearities.h ****         }
  79:./chowdsp_wdf/wdf/wdf_nonlinearities.h ****     };
  80:./chowdsp_wdf/wdf/wdf_nonlinearities.h **** 
  81:./chowdsp_wdf/wdf/wdf_nonlinearities.h ****     /**
  82:./chowdsp_wdf/wdf/wdf_nonlinearities.h ****      * WDF diode pair (non-adaptable)
  83:./chowdsp_wdf/wdf/wdf_nonlinearities.h ****      * See Werner et al., "An Improved and Generalized Diode Clipper Model for Wave Digital Filters
  84:./chowdsp_wdf/wdf/wdf_nonlinearities.h ****      * https://www.researchgate.net/publication/299514713_An_Improved_and_Generalized_Diode_Clipper
ARM GAS  /var/folders/yd/h_51qzcj4039f6rvxdz3lvym0000gn/T//ccKvYnDW.s 			page 47


  85:./chowdsp_wdf/wdf/wdf_nonlinearities.h ****      */
  86:./chowdsp_wdf/wdf/wdf_nonlinearities.h ****     template <typename T, wdft::DiodeQuality Q = wdft::DiodeQuality::Best>
  87:./chowdsp_wdf/wdf/wdf_nonlinearities.h ****     class DiodePair final : public WDFRootWrapper<T, wdft::DiodePairT<T, WDF<T>, Q>>
 1000              		.loc 16 87 11 view .LVU249
 1001              	.LBB1962:
 1002              	.LBI1962:
  34:./chowdsp_wdf/wdf/wdf_base.h **** 
  35:./chowdsp_wdf/wdf/wdf_base.h ****         /** Sub-classes override this function to accept an incident wave. */
  36:./chowdsp_wdf/wdf/wdf_base.h ****         virtual void incident (T x) noexcept = 0;
  37:./chowdsp_wdf/wdf/wdf_base.h **** 
  38:./chowdsp_wdf/wdf/wdf_base.h ****         /** Sub-classes override this function to propogate a reflected wave. */
  39:./chowdsp_wdf/wdf/wdf_base.h ****         virtual T reflected() noexcept = 0;
  40:./chowdsp_wdf/wdf/wdf_base.h **** 
  41:./chowdsp_wdf/wdf/wdf_base.h ****         /** Probe the voltage across this circuit element. */
  42:./chowdsp_wdf/wdf/wdf_base.h ****         inline T voltage() const noexcept
  43:./chowdsp_wdf/wdf/wdf_base.h ****         {
  44:./chowdsp_wdf/wdf/wdf_base.h ****             return (wdf.a + wdf.b) / (T) 2.0;
  45:./chowdsp_wdf/wdf/wdf_base.h ****         }
  46:./chowdsp_wdf/wdf/wdf_base.h **** 
  47:./chowdsp_wdf/wdf/wdf_base.h ****         /**Probe the current through this circuit element. */
  48:./chowdsp_wdf/wdf/wdf_base.h ****         inline T current() const noexcept
  49:./chowdsp_wdf/wdf/wdf_base.h ****         {
  50:./chowdsp_wdf/wdf/wdf_base.h ****             return (wdf.a - wdf.b) / ((T) 2.0 * wdf.R);
  51:./chowdsp_wdf/wdf/wdf_base.h ****         }
  52:./chowdsp_wdf/wdf/wdf_base.h **** 
  53:./chowdsp_wdf/wdf/wdf_base.h ****         // These classes need access to a,b
  54:./chowdsp_wdf/wdf/wdf_base.h ****         template <typename>
  55:./chowdsp_wdf/wdf/wdf_base.h ****         friend class YParameter;
  56:./chowdsp_wdf/wdf/wdf_base.h **** 
  57:./chowdsp_wdf/wdf/wdf_base.h ****         template <typename>
  58:./chowdsp_wdf/wdf/wdf_base.h ****         friend class WDFParallel;
  59:./chowdsp_wdf/wdf/wdf_base.h **** 
  60:./chowdsp_wdf/wdf/wdf_base.h ****         template <typename>
  61:./chowdsp_wdf/wdf/wdf_base.h ****         friend class WDFSeries;
  62:./chowdsp_wdf/wdf/wdf_base.h **** 
  63:./chowdsp_wdf/wdf/wdf_base.h ****         wdft::WDFMembers<T> wdf;
  64:./chowdsp_wdf/wdf/wdf_base.h **** 
  65:./chowdsp_wdf/wdf/wdf_base.h ****     private:
  66:./chowdsp_wdf/wdf/wdf_base.h ****         const std::string type;
  67:./chowdsp_wdf/wdf/wdf_base.h **** 
  68:./chowdsp_wdf/wdf/wdf_base.h ****         WDF<T>* wdfParent = nullptr;
  69:./chowdsp_wdf/wdf/wdf_base.h ****     };
  70:./chowdsp_wdf/wdf/wdf_base.h **** 
  71:./chowdsp_wdf/wdf/wdf_base.h ****     template <typename T, typename WDFType>
  72:./chowdsp_wdf/wdf/wdf_base.h ****     class WDFWrapper : public WDF<T>
  73:./chowdsp_wdf/wdf/wdf_base.h ****     {
  74:./chowdsp_wdf/wdf/wdf_base.h ****     public:
  75:./chowdsp_wdf/wdf/wdf_base.h ****         template <typename... Args>
  76:./chowdsp_wdf/wdf/wdf_base.h ****         explicit WDFWrapper (const std::string& name, Args&&... args) : WDF<T> (name),
  77:./chowdsp_wdf/wdf/wdf_base.h ****                                                                         internalWDF (std::forward<A
  78:./chowdsp_wdf/wdf/wdf_base.h ****         {
  79:./chowdsp_wdf/wdf/wdf_base.h ****             calcImpedance();
  80:./chowdsp_wdf/wdf/wdf_base.h ****         }
  81:./chowdsp_wdf/wdf/wdf_base.h **** 
  82:./chowdsp_wdf/wdf/wdf_base.h ****         /** Computes the impedance of the WDF resistor, Z_R = R. */
  83:./chowdsp_wdf/wdf/wdf_base.h ****         inline void calcImpedance() override
  84:./chowdsp_wdf/wdf/wdf_base.h ****         {
ARM GAS  /var/folders/yd/h_51qzcj4039f6rvxdz3lvym0000gn/T//ccKvYnDW.s 			page 48


  85:./chowdsp_wdf/wdf/wdf_base.h ****             internalWDF.calcImpedance();
  86:./chowdsp_wdf/wdf/wdf_base.h ****             this->wdf.R = internalWDF.wdf.R;
  87:./chowdsp_wdf/wdf/wdf_base.h ****             this->wdf.G = internalWDF.wdf.G;
  88:./chowdsp_wdf/wdf/wdf_base.h ****         }
  89:./chowdsp_wdf/wdf/wdf_base.h **** 
  90:./chowdsp_wdf/wdf/wdf_base.h ****         /** Accepts an incident wave into a WDF resistor. */
  91:./chowdsp_wdf/wdf/wdf_base.h ****         inline void incident (T x) noexcept override
  92:./chowdsp_wdf/wdf/wdf_base.h ****         {
  93:./chowdsp_wdf/wdf/wdf_base.h ****             this->wdf.a = x;
  94:./chowdsp_wdf/wdf/wdf_base.h ****             internalWDF.incident (x);
  95:./chowdsp_wdf/wdf/wdf_base.h ****         }
  96:./chowdsp_wdf/wdf/wdf_base.h **** 
  97:./chowdsp_wdf/wdf/wdf_base.h ****         /** Propogates a reflected wave from a WDF resistor. */
  98:./chowdsp_wdf/wdf/wdf_base.h ****         inline T reflected() noexcept override
  99:./chowdsp_wdf/wdf/wdf_base.h ****         {
 100:./chowdsp_wdf/wdf/wdf_base.h ****             this->wdf.b = internalWDF.reflected();
 101:./chowdsp_wdf/wdf/wdf_base.h ****             return this->wdf.b;
 102:./chowdsp_wdf/wdf/wdf_base.h ****         }
 103:./chowdsp_wdf/wdf/wdf_base.h **** 
 104:./chowdsp_wdf/wdf/wdf_base.h ****     protected:
 105:./chowdsp_wdf/wdf/wdf_base.h ****         WDFType internalWDF;
 106:./chowdsp_wdf/wdf/wdf_base.h ****     };
 107:./chowdsp_wdf/wdf/wdf_base.h **** 
 108:./chowdsp_wdf/wdf/wdf_base.h ****     template <typename T, typename WDFType>
 109:./chowdsp_wdf/wdf/wdf_base.h ****     class WDFRootWrapper : public WDFWrapper<T, WDFType>
 1003              		.loc 6 109 11 view .LVU250
 1004              	.LBB1963:
 1005              	.LBI1963:
  72:./chowdsp_wdf/wdf/wdf_base.h ****     {
 1006              		.loc 6 72 11 view .LVU251
 1007              	.LBB1964:
 1008              	.LBI1964:
 1009              		.file 17 "./chowdsp_wdf/wdft/wdft_nonlinearities.h"
   1:./chowdsp_wdf/wdft/wdft_nonlinearities.h **** #ifndef CHOWDSP_WDF_WDFT_NONLINEARITIES_H
   2:./chowdsp_wdf/wdft/wdft_nonlinearities.h **** #define CHOWDSP_WDF_WDFT_NONLINEARITIES_H
   3:./chowdsp_wdf/wdft/wdft_nonlinearities.h **** 
   4:./chowdsp_wdf/wdft/wdft_nonlinearities.h **** #include <cmath>
   5:./chowdsp_wdf/wdft/wdft_nonlinearities.h **** 
   6:./chowdsp_wdf/wdft/wdft_nonlinearities.h **** #include "wdft_base.h"
   7:./chowdsp_wdf/wdft/wdft_nonlinearities.h **** 
   8:./chowdsp_wdf/wdft/wdft_nonlinearities.h **** #include "../math/signum.h"
   9:./chowdsp_wdf/wdft/wdft_nonlinearities.h **** #include "../math/omega.h"
  10:./chowdsp_wdf/wdft/wdft_nonlinearities.h **** 
  11:./chowdsp_wdf/wdft/wdft_nonlinearities.h **** namespace chowdsp
  12:./chowdsp_wdf/wdft/wdft_nonlinearities.h **** {
  13:./chowdsp_wdf/wdft/wdft_nonlinearities.h **** namespace wdft
  14:./chowdsp_wdf/wdft/wdft_nonlinearities.h **** {
  15:./chowdsp_wdf/wdft/wdft_nonlinearities.h ****     /** Enum to determine which diode approximation eqn. to use */
  16:./chowdsp_wdf/wdft/wdft_nonlinearities.h ****     enum DiodeQuality
  17:./chowdsp_wdf/wdft/wdft_nonlinearities.h ****     {
  18:./chowdsp_wdf/wdft/wdft_nonlinearities.h ****         Good, // see reference eqn (18)
  19:./chowdsp_wdf/wdft/wdft_nonlinearities.h ****         Best, // see reference eqn (39)
  20:./chowdsp_wdf/wdft/wdft_nonlinearities.h ****     };
  21:./chowdsp_wdf/wdft/wdft_nonlinearities.h **** 
  22:./chowdsp_wdf/wdft/wdft_nonlinearities.h ****     /**
  23:./chowdsp_wdf/wdft/wdft_nonlinearities.h ****      * WDF diode pair (non-adaptable)
  24:./chowdsp_wdf/wdft/wdft_nonlinearities.h ****      * See Werner et al., "An Improved and Generalized Diode Clipper Model for Wave Digital Filters
ARM GAS  /var/folders/yd/h_51qzcj4039f6rvxdz3lvym0000gn/T//ccKvYnDW.s 			page 49


  25:./chowdsp_wdf/wdft/wdft_nonlinearities.h ****      * https://www.researchgate.net/publication/299514713_An_Improved_and_Generalized_Diode_Clipper
  26:./chowdsp_wdf/wdft/wdft_nonlinearities.h ****      */
  27:./chowdsp_wdf/wdft/wdft_nonlinearities.h ****     template <typename T, typename Next, DiodeQuality Quality = DiodeQuality::Best, typename OmegaP
  28:./chowdsp_wdf/wdft/wdft_nonlinearities.h ****     class DiodePairT final : public RootWDF
 1010              		.loc 17 28 11 view .LVU252
 1011              	.LBB1965:
 1012              	.LBI1965:
  30:./chowdsp_wdf/wdft/wdft_base.h **** 
  31:./chowdsp_wdf/wdft/wdft_base.h ****     protected:
  32:./chowdsp_wdf/wdft/wdft_base.h ****         BaseWDF* parent = nullptr;
  33:./chowdsp_wdf/wdft/wdft_base.h **** 
  34:./chowdsp_wdf/wdft/wdft_base.h ****     private:
  35:./chowdsp_wdf/wdft/wdft_base.h ****         bool dontPropagateImpedance = false;
  36:./chowdsp_wdf/wdft/wdft_base.h **** 
  37:./chowdsp_wdf/wdft/wdft_base.h ****         template <typename... Elements>
  38:./chowdsp_wdf/wdft/wdft_base.h ****         friend class ScopedDeferImpedancePropagation;
  39:./chowdsp_wdf/wdft/wdft_base.h ****     };
  40:./chowdsp_wdf/wdft/wdft_base.h **** 
  41:./chowdsp_wdf/wdft/wdft_base.h ****     /** Base class for propagating impedance changes into root WDF elements */
  42:./chowdsp_wdf/wdft/wdft_base.h ****     class RootWDF : public BaseWDF
 1013              		.loc 9 42 11 view .LVU253
 1014              	.LBB1966:
 1015              	.LBI1966:
  14:./chowdsp_wdf/wdft/wdft_base.h **** 
 1016              		.loc 9 14 17 view .LVU254
  14:./chowdsp_wdf/wdft/wdft_base.h **** 
 1017              		.loc 9 14 17 is_stmt 0 view .LVU255
 1018              	.LBE1966:
 1019              	.LBE1965:
 1020              	.LBE1964:
 1021              	.LBB1967:
 1022              	.LBI1967:
  19:./chowdsp_wdf/wdf/wdf_base.h **** 
 1023              		.loc 6 19 9 is_stmt 1 view .LVU256
 1024              	.LBB1968:
 1025              	.LBB1969:
 1026              	.LBB1970:
 1027              	.LBB1971:
 1028              	.LBB1972:
 1029              	.LBB1973:
 1030              	.LBB1974:
 1031              		.file 18 "/Library/DaisyToolchain/0.2.0/arm/arm-none-eabi/include/c++/10.3.1/bits/basic_string.h"
   1:/Library/DaisyToolchain/0.2.0/arm/arm-none-eabi/include/c++/10.3.1/bits/basic_string.h **** // Components for manipulating sequences of characters -*- C++ -*-
   2:/Library/DaisyToolchain/0.2.0/arm/arm-none-eabi/include/c++/10.3.1/bits/basic_string.h **** 
   3:/Library/DaisyToolchain/0.2.0/arm/arm-none-eabi/include/c++/10.3.1/bits/basic_string.h **** // Copyright (C) 1997-2020 Free Software Foundation, Inc.
   4:/Library/DaisyToolchain/0.2.0/arm/arm-none-eabi/include/c++/10.3.1/bits/basic_string.h **** //
   5:/Library/DaisyToolchain/0.2.0/arm/arm-none-eabi/include/c++/10.3.1/bits/basic_string.h **** // This file is part of the GNU ISO C++ Library.  This library is free
   6:/Library/DaisyToolchain/0.2.0/arm/arm-none-eabi/include/c++/10.3.1/bits/basic_string.h **** // software; you can redistribute it and/or modify it under the
   7:/Library/DaisyToolchain/0.2.0/arm/arm-none-eabi/include/c++/10.3.1/bits/basic_string.h **** // terms of the GNU General Public License as published by the
   8:/Library/DaisyToolchain/0.2.0/arm/arm-none-eabi/include/c++/10.3.1/bits/basic_string.h **** // Free Software Foundation; either version 3, or (at your option)
   9:/Library/DaisyToolchain/0.2.0/arm/arm-none-eabi/include/c++/10.3.1/bits/basic_string.h **** // any later version.
  10:/Library/DaisyToolchain/0.2.0/arm/arm-none-eabi/include/c++/10.3.1/bits/basic_string.h **** 
  11:/Library/DaisyToolchain/0.2.0/arm/arm-none-eabi/include/c++/10.3.1/bits/basic_string.h **** // This library is distributed in the hope that it will be useful,
  12:/Library/DaisyToolchain/0.2.0/arm/arm-none-eabi/include/c++/10.3.1/bits/basic_string.h **** // but WITHOUT ANY WARRANTY; without even the implied warranty of
  13:/Library/DaisyToolchain/0.2.0/arm/arm-none-eabi/include/c++/10.3.1/bits/basic_string.h **** // MERCHANTABILITY or FITNESS FOR A PARTICULAR PURPOSE.  See the
  14:/Library/DaisyToolchain/0.2.0/arm/arm-none-eabi/include/c++/10.3.1/bits/basic_string.h **** // GNU General Public License for more details.
  15:/Library/DaisyToolchain/0.2.0/arm/arm-none-eabi/include/c++/10.3.1/bits/basic_string.h **** 
ARM GAS  /var/folders/yd/h_51qzcj4039f6rvxdz3lvym0000gn/T//ccKvYnDW.s 			page 50


  16:/Library/DaisyToolchain/0.2.0/arm/arm-none-eabi/include/c++/10.3.1/bits/basic_string.h **** // Under Section 7 of GPL version 3, you are granted additional
  17:/Library/DaisyToolchain/0.2.0/arm/arm-none-eabi/include/c++/10.3.1/bits/basic_string.h **** // permissions described in the GCC Runtime Library Exception, version
  18:/Library/DaisyToolchain/0.2.0/arm/arm-none-eabi/include/c++/10.3.1/bits/basic_string.h **** // 3.1, as published by the Free Software Foundation.
  19:/Library/DaisyToolchain/0.2.0/arm/arm-none-eabi/include/c++/10.3.1/bits/basic_string.h **** 
  20:/Library/DaisyToolchain/0.2.0/arm/arm-none-eabi/include/c++/10.3.1/bits/basic_string.h **** // You should have received a copy of the GNU General Public License and
  21:/Library/DaisyToolchain/0.2.0/arm/arm-none-eabi/include/c++/10.3.1/bits/basic_string.h **** // a copy of the GCC Runtime Library Exception along with this program;
  22:/Library/DaisyToolchain/0.2.0/arm/arm-none-eabi/include/c++/10.3.1/bits/basic_string.h **** // see the files COPYING3 and COPYING.RUNTIME respectively.  If not, see
  23:/Library/DaisyToolchain/0.2.0/arm/arm-none-eabi/include/c++/10.3.1/bits/basic_string.h **** // <http://www.gnu.org/licenses/>.
  24:/Library/DaisyToolchain/0.2.0/arm/arm-none-eabi/include/c++/10.3.1/bits/basic_string.h **** 
  25:/Library/DaisyToolchain/0.2.0/arm/arm-none-eabi/include/c++/10.3.1/bits/basic_string.h **** /** @file bits/basic_string.h
  26:/Library/DaisyToolchain/0.2.0/arm/arm-none-eabi/include/c++/10.3.1/bits/basic_string.h ****  *  This is an internal header file, included by other library headers.
  27:/Library/DaisyToolchain/0.2.0/arm/arm-none-eabi/include/c++/10.3.1/bits/basic_string.h ****  *  Do not attempt to use it directly. @headername{string}
  28:/Library/DaisyToolchain/0.2.0/arm/arm-none-eabi/include/c++/10.3.1/bits/basic_string.h ****  */
  29:/Library/DaisyToolchain/0.2.0/arm/arm-none-eabi/include/c++/10.3.1/bits/basic_string.h **** 
  30:/Library/DaisyToolchain/0.2.0/arm/arm-none-eabi/include/c++/10.3.1/bits/basic_string.h **** //
  31:/Library/DaisyToolchain/0.2.0/arm/arm-none-eabi/include/c++/10.3.1/bits/basic_string.h **** // ISO C++ 14882: 21 Strings library
  32:/Library/DaisyToolchain/0.2.0/arm/arm-none-eabi/include/c++/10.3.1/bits/basic_string.h **** //
  33:/Library/DaisyToolchain/0.2.0/arm/arm-none-eabi/include/c++/10.3.1/bits/basic_string.h **** 
  34:/Library/DaisyToolchain/0.2.0/arm/arm-none-eabi/include/c++/10.3.1/bits/basic_string.h **** #ifndef _BASIC_STRING_H
  35:/Library/DaisyToolchain/0.2.0/arm/arm-none-eabi/include/c++/10.3.1/bits/basic_string.h **** #define _BASIC_STRING_H 1
  36:/Library/DaisyToolchain/0.2.0/arm/arm-none-eabi/include/c++/10.3.1/bits/basic_string.h **** 
  37:/Library/DaisyToolchain/0.2.0/arm/arm-none-eabi/include/c++/10.3.1/bits/basic_string.h **** #pragma GCC system_header
  38:/Library/DaisyToolchain/0.2.0/arm/arm-none-eabi/include/c++/10.3.1/bits/basic_string.h **** 
  39:/Library/DaisyToolchain/0.2.0/arm/arm-none-eabi/include/c++/10.3.1/bits/basic_string.h **** #include <ext/atomicity.h>
  40:/Library/DaisyToolchain/0.2.0/arm/arm-none-eabi/include/c++/10.3.1/bits/basic_string.h **** #include <ext/alloc_traits.h>
  41:/Library/DaisyToolchain/0.2.0/arm/arm-none-eabi/include/c++/10.3.1/bits/basic_string.h **** #include <debug/debug.h>
  42:/Library/DaisyToolchain/0.2.0/arm/arm-none-eabi/include/c++/10.3.1/bits/basic_string.h **** 
  43:/Library/DaisyToolchain/0.2.0/arm/arm-none-eabi/include/c++/10.3.1/bits/basic_string.h **** #if __cplusplus >= 201103L
  44:/Library/DaisyToolchain/0.2.0/arm/arm-none-eabi/include/c++/10.3.1/bits/basic_string.h **** #include <initializer_list>
  45:/Library/DaisyToolchain/0.2.0/arm/arm-none-eabi/include/c++/10.3.1/bits/basic_string.h **** #endif
  46:/Library/DaisyToolchain/0.2.0/arm/arm-none-eabi/include/c++/10.3.1/bits/basic_string.h **** 
  47:/Library/DaisyToolchain/0.2.0/arm/arm-none-eabi/include/c++/10.3.1/bits/basic_string.h **** #if __cplusplus >= 201703L
  48:/Library/DaisyToolchain/0.2.0/arm/arm-none-eabi/include/c++/10.3.1/bits/basic_string.h **** # include <string_view>
  49:/Library/DaisyToolchain/0.2.0/arm/arm-none-eabi/include/c++/10.3.1/bits/basic_string.h **** #endif
  50:/Library/DaisyToolchain/0.2.0/arm/arm-none-eabi/include/c++/10.3.1/bits/basic_string.h **** 
  51:/Library/DaisyToolchain/0.2.0/arm/arm-none-eabi/include/c++/10.3.1/bits/basic_string.h **** namespace std _GLIBCXX_VISIBILITY(default)
  52:/Library/DaisyToolchain/0.2.0/arm/arm-none-eabi/include/c++/10.3.1/bits/basic_string.h **** {
  53:/Library/DaisyToolchain/0.2.0/arm/arm-none-eabi/include/c++/10.3.1/bits/basic_string.h **** _GLIBCXX_BEGIN_NAMESPACE_VERSION
  54:/Library/DaisyToolchain/0.2.0/arm/arm-none-eabi/include/c++/10.3.1/bits/basic_string.h **** 
  55:/Library/DaisyToolchain/0.2.0/arm/arm-none-eabi/include/c++/10.3.1/bits/basic_string.h **** #ifdef __cpp_lib_is_constant_evaluated
  56:/Library/DaisyToolchain/0.2.0/arm/arm-none-eabi/include/c++/10.3.1/bits/basic_string.h **** // Support P1032R1 in C++20 (but not P0980R1 yet).
  57:/Library/DaisyToolchain/0.2.0/arm/arm-none-eabi/include/c++/10.3.1/bits/basic_string.h **** # define __cpp_lib_constexpr_string 201811L
  58:/Library/DaisyToolchain/0.2.0/arm/arm-none-eabi/include/c++/10.3.1/bits/basic_string.h **** #elif __cplusplus >= 201703L
  59:/Library/DaisyToolchain/0.2.0/arm/arm-none-eabi/include/c++/10.3.1/bits/basic_string.h **** // Support P0426R1 changes to char_traits in C++17.
  60:/Library/DaisyToolchain/0.2.0/arm/arm-none-eabi/include/c++/10.3.1/bits/basic_string.h **** # define __cpp_lib_constexpr_string 201611L
  61:/Library/DaisyToolchain/0.2.0/arm/arm-none-eabi/include/c++/10.3.1/bits/basic_string.h **** #elif __cplusplus > 201703L
  62:/Library/DaisyToolchain/0.2.0/arm/arm-none-eabi/include/c++/10.3.1/bits/basic_string.h **** #endif
  63:/Library/DaisyToolchain/0.2.0/arm/arm-none-eabi/include/c++/10.3.1/bits/basic_string.h **** 
  64:/Library/DaisyToolchain/0.2.0/arm/arm-none-eabi/include/c++/10.3.1/bits/basic_string.h **** #if _GLIBCXX_USE_CXX11_ABI
  65:/Library/DaisyToolchain/0.2.0/arm/arm-none-eabi/include/c++/10.3.1/bits/basic_string.h **** _GLIBCXX_BEGIN_NAMESPACE_CXX11
  66:/Library/DaisyToolchain/0.2.0/arm/arm-none-eabi/include/c++/10.3.1/bits/basic_string.h ****   /**
  67:/Library/DaisyToolchain/0.2.0/arm/arm-none-eabi/include/c++/10.3.1/bits/basic_string.h ****    *  @class basic_string basic_string.h <string>
  68:/Library/DaisyToolchain/0.2.0/arm/arm-none-eabi/include/c++/10.3.1/bits/basic_string.h ****    *  @brief  Managing sequences of characters and character-like objects.
  69:/Library/DaisyToolchain/0.2.0/arm/arm-none-eabi/include/c++/10.3.1/bits/basic_string.h ****    *
  70:/Library/DaisyToolchain/0.2.0/arm/arm-none-eabi/include/c++/10.3.1/bits/basic_string.h ****    *  @ingroup strings
  71:/Library/DaisyToolchain/0.2.0/arm/arm-none-eabi/include/c++/10.3.1/bits/basic_string.h ****    *  @ingroup sequences
  72:/Library/DaisyToolchain/0.2.0/arm/arm-none-eabi/include/c++/10.3.1/bits/basic_string.h ****    *
ARM GAS  /var/folders/yd/h_51qzcj4039f6rvxdz3lvym0000gn/T//ccKvYnDW.s 			page 51


  73:/Library/DaisyToolchain/0.2.0/arm/arm-none-eabi/include/c++/10.3.1/bits/basic_string.h ****    *  @tparam _CharT  Type of character
  74:/Library/DaisyToolchain/0.2.0/arm/arm-none-eabi/include/c++/10.3.1/bits/basic_string.h ****    *  @tparam _Traits  Traits for character type, defaults to
  75:/Library/DaisyToolchain/0.2.0/arm/arm-none-eabi/include/c++/10.3.1/bits/basic_string.h ****    *                   char_traits<_CharT>.
  76:/Library/DaisyToolchain/0.2.0/arm/arm-none-eabi/include/c++/10.3.1/bits/basic_string.h ****    *  @tparam _Alloc  Allocator type, defaults to allocator<_CharT>.
  77:/Library/DaisyToolchain/0.2.0/arm/arm-none-eabi/include/c++/10.3.1/bits/basic_string.h ****    *
  78:/Library/DaisyToolchain/0.2.0/arm/arm-none-eabi/include/c++/10.3.1/bits/basic_string.h ****    *  Meets the requirements of a <a href="tables.html#65">container</a>, a
  79:/Library/DaisyToolchain/0.2.0/arm/arm-none-eabi/include/c++/10.3.1/bits/basic_string.h ****    *  <a href="tables.html#66">reversible container</a>, and a
  80:/Library/DaisyToolchain/0.2.0/arm/arm-none-eabi/include/c++/10.3.1/bits/basic_string.h ****    *  <a href="tables.html#67">sequence</a>.  Of the
  81:/Library/DaisyToolchain/0.2.0/arm/arm-none-eabi/include/c++/10.3.1/bits/basic_string.h ****    *  <a href="tables.html#68">optional sequence requirements</a>, only
  82:/Library/DaisyToolchain/0.2.0/arm/arm-none-eabi/include/c++/10.3.1/bits/basic_string.h ****    *  @c push_back, @c at, and @c %array access are supported.
  83:/Library/DaisyToolchain/0.2.0/arm/arm-none-eabi/include/c++/10.3.1/bits/basic_string.h ****    */
  84:/Library/DaisyToolchain/0.2.0/arm/arm-none-eabi/include/c++/10.3.1/bits/basic_string.h ****   template<typename _CharT, typename _Traits, typename _Alloc>
  85:/Library/DaisyToolchain/0.2.0/arm/arm-none-eabi/include/c++/10.3.1/bits/basic_string.h ****     class basic_string
  86:/Library/DaisyToolchain/0.2.0/arm/arm-none-eabi/include/c++/10.3.1/bits/basic_string.h ****     {
  87:/Library/DaisyToolchain/0.2.0/arm/arm-none-eabi/include/c++/10.3.1/bits/basic_string.h ****       typedef typename __gnu_cxx::__alloc_traits<_Alloc>::template
  88:/Library/DaisyToolchain/0.2.0/arm/arm-none-eabi/include/c++/10.3.1/bits/basic_string.h **** 	rebind<_CharT>::other _Char_alloc_type;
  89:/Library/DaisyToolchain/0.2.0/arm/arm-none-eabi/include/c++/10.3.1/bits/basic_string.h ****       typedef __gnu_cxx::__alloc_traits<_Char_alloc_type> _Alloc_traits;
  90:/Library/DaisyToolchain/0.2.0/arm/arm-none-eabi/include/c++/10.3.1/bits/basic_string.h **** 
  91:/Library/DaisyToolchain/0.2.0/arm/arm-none-eabi/include/c++/10.3.1/bits/basic_string.h ****       // Types:
  92:/Library/DaisyToolchain/0.2.0/arm/arm-none-eabi/include/c++/10.3.1/bits/basic_string.h ****     public:
  93:/Library/DaisyToolchain/0.2.0/arm/arm-none-eabi/include/c++/10.3.1/bits/basic_string.h ****       typedef _Traits					traits_type;
  94:/Library/DaisyToolchain/0.2.0/arm/arm-none-eabi/include/c++/10.3.1/bits/basic_string.h ****       typedef typename _Traits::char_type		value_type;
  95:/Library/DaisyToolchain/0.2.0/arm/arm-none-eabi/include/c++/10.3.1/bits/basic_string.h ****       typedef _Char_alloc_type				allocator_type;
  96:/Library/DaisyToolchain/0.2.0/arm/arm-none-eabi/include/c++/10.3.1/bits/basic_string.h ****       typedef typename _Alloc_traits::size_type		size_type;
  97:/Library/DaisyToolchain/0.2.0/arm/arm-none-eabi/include/c++/10.3.1/bits/basic_string.h ****       typedef typename _Alloc_traits::difference_type	difference_type;
  98:/Library/DaisyToolchain/0.2.0/arm/arm-none-eabi/include/c++/10.3.1/bits/basic_string.h ****       typedef typename _Alloc_traits::reference		reference;
  99:/Library/DaisyToolchain/0.2.0/arm/arm-none-eabi/include/c++/10.3.1/bits/basic_string.h ****       typedef typename _Alloc_traits::const_reference	const_reference;
 100:/Library/DaisyToolchain/0.2.0/arm/arm-none-eabi/include/c++/10.3.1/bits/basic_string.h ****       typedef typename _Alloc_traits::pointer		pointer;
 101:/Library/DaisyToolchain/0.2.0/arm/arm-none-eabi/include/c++/10.3.1/bits/basic_string.h ****       typedef typename _Alloc_traits::const_pointer	const_pointer;
 102:/Library/DaisyToolchain/0.2.0/arm/arm-none-eabi/include/c++/10.3.1/bits/basic_string.h ****       typedef __gnu_cxx::__normal_iterator<pointer, basic_string>  iterator;
 103:/Library/DaisyToolchain/0.2.0/arm/arm-none-eabi/include/c++/10.3.1/bits/basic_string.h ****       typedef __gnu_cxx::__normal_iterator<const_pointer, basic_string>
 104:/Library/DaisyToolchain/0.2.0/arm/arm-none-eabi/include/c++/10.3.1/bits/basic_string.h **** 							const_iterator;
 105:/Library/DaisyToolchain/0.2.0/arm/arm-none-eabi/include/c++/10.3.1/bits/basic_string.h ****       typedef std::reverse_iterator<const_iterator>	const_reverse_iterator;
 106:/Library/DaisyToolchain/0.2.0/arm/arm-none-eabi/include/c++/10.3.1/bits/basic_string.h ****       typedef std::reverse_iterator<iterator>		reverse_iterator;
 107:/Library/DaisyToolchain/0.2.0/arm/arm-none-eabi/include/c++/10.3.1/bits/basic_string.h **** 
 108:/Library/DaisyToolchain/0.2.0/arm/arm-none-eabi/include/c++/10.3.1/bits/basic_string.h ****       ///  Value returned by various member functions when they fail.
 109:/Library/DaisyToolchain/0.2.0/arm/arm-none-eabi/include/c++/10.3.1/bits/basic_string.h ****       static const size_type	npos = static_cast<size_type>(-1);
 110:/Library/DaisyToolchain/0.2.0/arm/arm-none-eabi/include/c++/10.3.1/bits/basic_string.h **** 
 111:/Library/DaisyToolchain/0.2.0/arm/arm-none-eabi/include/c++/10.3.1/bits/basic_string.h ****     protected:
 112:/Library/DaisyToolchain/0.2.0/arm/arm-none-eabi/include/c++/10.3.1/bits/basic_string.h ****       // type used for positions in insert, erase etc.
 113:/Library/DaisyToolchain/0.2.0/arm/arm-none-eabi/include/c++/10.3.1/bits/basic_string.h **** #if __cplusplus < 201103L
 114:/Library/DaisyToolchain/0.2.0/arm/arm-none-eabi/include/c++/10.3.1/bits/basic_string.h ****       typedef iterator __const_iterator;
 115:/Library/DaisyToolchain/0.2.0/arm/arm-none-eabi/include/c++/10.3.1/bits/basic_string.h **** #else
 116:/Library/DaisyToolchain/0.2.0/arm/arm-none-eabi/include/c++/10.3.1/bits/basic_string.h ****       typedef const_iterator __const_iterator;
 117:/Library/DaisyToolchain/0.2.0/arm/arm-none-eabi/include/c++/10.3.1/bits/basic_string.h **** #endif
 118:/Library/DaisyToolchain/0.2.0/arm/arm-none-eabi/include/c++/10.3.1/bits/basic_string.h **** 
 119:/Library/DaisyToolchain/0.2.0/arm/arm-none-eabi/include/c++/10.3.1/bits/basic_string.h ****     private:
 120:/Library/DaisyToolchain/0.2.0/arm/arm-none-eabi/include/c++/10.3.1/bits/basic_string.h **** #if __cplusplus >= 201703L
 121:/Library/DaisyToolchain/0.2.0/arm/arm-none-eabi/include/c++/10.3.1/bits/basic_string.h ****       // A helper type for avoiding boiler-plate.
 122:/Library/DaisyToolchain/0.2.0/arm/arm-none-eabi/include/c++/10.3.1/bits/basic_string.h ****       typedef basic_string_view<_CharT, _Traits> __sv_type;
 123:/Library/DaisyToolchain/0.2.0/arm/arm-none-eabi/include/c++/10.3.1/bits/basic_string.h **** 
 124:/Library/DaisyToolchain/0.2.0/arm/arm-none-eabi/include/c++/10.3.1/bits/basic_string.h ****       template<typename _Tp, typename _Res>
 125:/Library/DaisyToolchain/0.2.0/arm/arm-none-eabi/include/c++/10.3.1/bits/basic_string.h **** 	using _If_sv = enable_if_t<
 126:/Library/DaisyToolchain/0.2.0/arm/arm-none-eabi/include/c++/10.3.1/bits/basic_string.h **** 	  __and_<is_convertible<const _Tp&, __sv_type>,
 127:/Library/DaisyToolchain/0.2.0/arm/arm-none-eabi/include/c++/10.3.1/bits/basic_string.h **** 		 __not_<is_convertible<const _Tp*, const basic_string*>>,
 128:/Library/DaisyToolchain/0.2.0/arm/arm-none-eabi/include/c++/10.3.1/bits/basic_string.h **** 		 __not_<is_convertible<const _Tp&, const _CharT*>>>::value,
 129:/Library/DaisyToolchain/0.2.0/arm/arm-none-eabi/include/c++/10.3.1/bits/basic_string.h **** 	  _Res>;
ARM GAS  /var/folders/yd/h_51qzcj4039f6rvxdz3lvym0000gn/T//ccKvYnDW.s 			page 52


 130:/Library/DaisyToolchain/0.2.0/arm/arm-none-eabi/include/c++/10.3.1/bits/basic_string.h **** 
 131:/Library/DaisyToolchain/0.2.0/arm/arm-none-eabi/include/c++/10.3.1/bits/basic_string.h ****       // Allows an implicit conversion to __sv_type.
 132:/Library/DaisyToolchain/0.2.0/arm/arm-none-eabi/include/c++/10.3.1/bits/basic_string.h ****       static __sv_type
 133:/Library/DaisyToolchain/0.2.0/arm/arm-none-eabi/include/c++/10.3.1/bits/basic_string.h ****       _S_to_string_view(__sv_type __svt) noexcept
 134:/Library/DaisyToolchain/0.2.0/arm/arm-none-eabi/include/c++/10.3.1/bits/basic_string.h ****       { return __svt; }
 135:/Library/DaisyToolchain/0.2.0/arm/arm-none-eabi/include/c++/10.3.1/bits/basic_string.h **** 
 136:/Library/DaisyToolchain/0.2.0/arm/arm-none-eabi/include/c++/10.3.1/bits/basic_string.h ****       // Wraps a string_view by explicit conversion and thus
 137:/Library/DaisyToolchain/0.2.0/arm/arm-none-eabi/include/c++/10.3.1/bits/basic_string.h ****       // allows to add an internal constructor that does not
 138:/Library/DaisyToolchain/0.2.0/arm/arm-none-eabi/include/c++/10.3.1/bits/basic_string.h ****       // participate in overload resolution when a string_view
 139:/Library/DaisyToolchain/0.2.0/arm/arm-none-eabi/include/c++/10.3.1/bits/basic_string.h ****       // is provided.
 140:/Library/DaisyToolchain/0.2.0/arm/arm-none-eabi/include/c++/10.3.1/bits/basic_string.h ****       struct __sv_wrapper
 141:/Library/DaisyToolchain/0.2.0/arm/arm-none-eabi/include/c++/10.3.1/bits/basic_string.h ****       {
 142:/Library/DaisyToolchain/0.2.0/arm/arm-none-eabi/include/c++/10.3.1/bits/basic_string.h **** 	explicit __sv_wrapper(__sv_type __sv) noexcept : _M_sv(__sv) { }
 143:/Library/DaisyToolchain/0.2.0/arm/arm-none-eabi/include/c++/10.3.1/bits/basic_string.h **** 	__sv_type _M_sv;
 144:/Library/DaisyToolchain/0.2.0/arm/arm-none-eabi/include/c++/10.3.1/bits/basic_string.h ****       };
 145:/Library/DaisyToolchain/0.2.0/arm/arm-none-eabi/include/c++/10.3.1/bits/basic_string.h **** 
 146:/Library/DaisyToolchain/0.2.0/arm/arm-none-eabi/include/c++/10.3.1/bits/basic_string.h ****       /**
 147:/Library/DaisyToolchain/0.2.0/arm/arm-none-eabi/include/c++/10.3.1/bits/basic_string.h ****        *  @brief  Only internally used: Construct string from a string view
 148:/Library/DaisyToolchain/0.2.0/arm/arm-none-eabi/include/c++/10.3.1/bits/basic_string.h ****        *          wrapper.
 149:/Library/DaisyToolchain/0.2.0/arm/arm-none-eabi/include/c++/10.3.1/bits/basic_string.h ****        *  @param  __svw  string view wrapper.
 150:/Library/DaisyToolchain/0.2.0/arm/arm-none-eabi/include/c++/10.3.1/bits/basic_string.h ****        *  @param  __a  Allocator to use.
 151:/Library/DaisyToolchain/0.2.0/arm/arm-none-eabi/include/c++/10.3.1/bits/basic_string.h ****        */
 152:/Library/DaisyToolchain/0.2.0/arm/arm-none-eabi/include/c++/10.3.1/bits/basic_string.h ****       explicit
 153:/Library/DaisyToolchain/0.2.0/arm/arm-none-eabi/include/c++/10.3.1/bits/basic_string.h ****       basic_string(__sv_wrapper __svw, const _Alloc& __a)
 154:/Library/DaisyToolchain/0.2.0/arm/arm-none-eabi/include/c++/10.3.1/bits/basic_string.h ****       : basic_string(__svw._M_sv.data(), __svw._M_sv.size(), __a) { }
 155:/Library/DaisyToolchain/0.2.0/arm/arm-none-eabi/include/c++/10.3.1/bits/basic_string.h **** #endif
 156:/Library/DaisyToolchain/0.2.0/arm/arm-none-eabi/include/c++/10.3.1/bits/basic_string.h **** 
 157:/Library/DaisyToolchain/0.2.0/arm/arm-none-eabi/include/c++/10.3.1/bits/basic_string.h ****       // Use empty-base optimization: http://www.cantrip.org/emptyopt.html
 158:/Library/DaisyToolchain/0.2.0/arm/arm-none-eabi/include/c++/10.3.1/bits/basic_string.h ****       struct _Alloc_hider : allocator_type // TODO check __is_final
 159:/Library/DaisyToolchain/0.2.0/arm/arm-none-eabi/include/c++/10.3.1/bits/basic_string.h ****       {
 160:/Library/DaisyToolchain/0.2.0/arm/arm-none-eabi/include/c++/10.3.1/bits/basic_string.h **** #if __cplusplus < 201103L
 161:/Library/DaisyToolchain/0.2.0/arm/arm-none-eabi/include/c++/10.3.1/bits/basic_string.h **** 	_Alloc_hider(pointer __dat, const _Alloc& __a = _Alloc())
 162:/Library/DaisyToolchain/0.2.0/arm/arm-none-eabi/include/c++/10.3.1/bits/basic_string.h **** 	: allocator_type(__a), _M_p(__dat) { }
 163:/Library/DaisyToolchain/0.2.0/arm/arm-none-eabi/include/c++/10.3.1/bits/basic_string.h **** #else
 164:/Library/DaisyToolchain/0.2.0/arm/arm-none-eabi/include/c++/10.3.1/bits/basic_string.h **** 	_Alloc_hider(pointer __dat, const _Alloc& __a)
 165:/Library/DaisyToolchain/0.2.0/arm/arm-none-eabi/include/c++/10.3.1/bits/basic_string.h **** 	: allocator_type(__a), _M_p(__dat) { }
 166:/Library/DaisyToolchain/0.2.0/arm/arm-none-eabi/include/c++/10.3.1/bits/basic_string.h **** 
 167:/Library/DaisyToolchain/0.2.0/arm/arm-none-eabi/include/c++/10.3.1/bits/basic_string.h **** 	_Alloc_hider(pointer __dat, _Alloc&& __a = _Alloc())
 168:/Library/DaisyToolchain/0.2.0/arm/arm-none-eabi/include/c++/10.3.1/bits/basic_string.h **** 	: allocator_type(std::move(__a)), _M_p(__dat) { }
 169:/Library/DaisyToolchain/0.2.0/arm/arm-none-eabi/include/c++/10.3.1/bits/basic_string.h **** #endif
 170:/Library/DaisyToolchain/0.2.0/arm/arm-none-eabi/include/c++/10.3.1/bits/basic_string.h **** 
 171:/Library/DaisyToolchain/0.2.0/arm/arm-none-eabi/include/c++/10.3.1/bits/basic_string.h **** 	pointer _M_p; // The actual data.
 172:/Library/DaisyToolchain/0.2.0/arm/arm-none-eabi/include/c++/10.3.1/bits/basic_string.h ****       };
 173:/Library/DaisyToolchain/0.2.0/arm/arm-none-eabi/include/c++/10.3.1/bits/basic_string.h **** 
 174:/Library/DaisyToolchain/0.2.0/arm/arm-none-eabi/include/c++/10.3.1/bits/basic_string.h ****       _Alloc_hider	_M_dataplus;
 175:/Library/DaisyToolchain/0.2.0/arm/arm-none-eabi/include/c++/10.3.1/bits/basic_string.h ****       size_type		_M_string_length;
 176:/Library/DaisyToolchain/0.2.0/arm/arm-none-eabi/include/c++/10.3.1/bits/basic_string.h **** 
 177:/Library/DaisyToolchain/0.2.0/arm/arm-none-eabi/include/c++/10.3.1/bits/basic_string.h ****       enum { _S_local_capacity = 15 / sizeof(_CharT) };
 178:/Library/DaisyToolchain/0.2.0/arm/arm-none-eabi/include/c++/10.3.1/bits/basic_string.h **** 
 179:/Library/DaisyToolchain/0.2.0/arm/arm-none-eabi/include/c++/10.3.1/bits/basic_string.h ****       union
 180:/Library/DaisyToolchain/0.2.0/arm/arm-none-eabi/include/c++/10.3.1/bits/basic_string.h ****       {
 181:/Library/DaisyToolchain/0.2.0/arm/arm-none-eabi/include/c++/10.3.1/bits/basic_string.h **** 	_CharT           _M_local_buf[_S_local_capacity + 1];
 182:/Library/DaisyToolchain/0.2.0/arm/arm-none-eabi/include/c++/10.3.1/bits/basic_string.h **** 	size_type        _M_allocated_capacity;
 183:/Library/DaisyToolchain/0.2.0/arm/arm-none-eabi/include/c++/10.3.1/bits/basic_string.h ****       };
 184:/Library/DaisyToolchain/0.2.0/arm/arm-none-eabi/include/c++/10.3.1/bits/basic_string.h **** 
 185:/Library/DaisyToolchain/0.2.0/arm/arm-none-eabi/include/c++/10.3.1/bits/basic_string.h ****       void
 186:/Library/DaisyToolchain/0.2.0/arm/arm-none-eabi/include/c++/10.3.1/bits/basic_string.h ****       _M_data(pointer __p)
ARM GAS  /var/folders/yd/h_51qzcj4039f6rvxdz3lvym0000gn/T//ccKvYnDW.s 			page 53


 187:/Library/DaisyToolchain/0.2.0/arm/arm-none-eabi/include/c++/10.3.1/bits/basic_string.h ****       { _M_dataplus._M_p = __p; }
 188:/Library/DaisyToolchain/0.2.0/arm/arm-none-eabi/include/c++/10.3.1/bits/basic_string.h **** 
 189:/Library/DaisyToolchain/0.2.0/arm/arm-none-eabi/include/c++/10.3.1/bits/basic_string.h ****       void
 190:/Library/DaisyToolchain/0.2.0/arm/arm-none-eabi/include/c++/10.3.1/bits/basic_string.h ****       _M_length(size_type __length)
 191:/Library/DaisyToolchain/0.2.0/arm/arm-none-eabi/include/c++/10.3.1/bits/basic_string.h ****       { _M_string_length = __length; }
 192:/Library/DaisyToolchain/0.2.0/arm/arm-none-eabi/include/c++/10.3.1/bits/basic_string.h **** 
 193:/Library/DaisyToolchain/0.2.0/arm/arm-none-eabi/include/c++/10.3.1/bits/basic_string.h ****       pointer
 194:/Library/DaisyToolchain/0.2.0/arm/arm-none-eabi/include/c++/10.3.1/bits/basic_string.h ****       _M_data() const
 195:/Library/DaisyToolchain/0.2.0/arm/arm-none-eabi/include/c++/10.3.1/bits/basic_string.h ****       { return _M_dataplus._M_p; }
 1032              		.loc 18 195 28 is_stmt 0 view .LVU257
 1033 0004 D0F8B806 		ldr	r0, [r0, #1720]
 1034              	.LVL59:
 1035              		.loc 18 195 28 view .LVU258
 1036              	.LBE1974:
 1037              	.LBE1973:
 1038              	.LBE1972:
 1039              	.LBE1971:
 1040              	.LBE1970:
 1041              	.LBE1969:
  19:./chowdsp_wdf/wdf/wdf_base.h **** 
 1042              		.loc 6 19 9 view .LVU259
 1043 0008 794D     		ldr	r5, .L70
 1044              	.LBB1995:
 1045              	.LBB1990:
 1046              	.LBB1988:
 1047              	.LBB1979:
 1048              	.LBB1975:
 1049              	.LBB1976:
 196:/Library/DaisyToolchain/0.2.0/arm/arm-none-eabi/include/c++/10.3.1/bits/basic_string.h **** 
 197:/Library/DaisyToolchain/0.2.0/arm/arm-none-eabi/include/c++/10.3.1/bits/basic_string.h ****       pointer
 198:/Library/DaisyToolchain/0.2.0/arm/arm-none-eabi/include/c++/10.3.1/bits/basic_string.h ****       _M_local_data()
 199:/Library/DaisyToolchain/0.2.0/arm/arm-none-eabi/include/c++/10.3.1/bits/basic_string.h ****       {
 200:/Library/DaisyToolchain/0.2.0/arm/arm-none-eabi/include/c++/10.3.1/bits/basic_string.h **** #if __cplusplus >= 201103L
 201:/Library/DaisyToolchain/0.2.0/arm/arm-none-eabi/include/c++/10.3.1/bits/basic_string.h **** 	return std::pointer_traits<pointer>::pointer_to(*_M_local_buf);
 202:/Library/DaisyToolchain/0.2.0/arm/arm-none-eabi/include/c++/10.3.1/bits/basic_string.h **** #else
 203:/Library/DaisyToolchain/0.2.0/arm/arm-none-eabi/include/c++/10.3.1/bits/basic_string.h **** 	return pointer(_M_local_buf);
 204:/Library/DaisyToolchain/0.2.0/arm/arm-none-eabi/include/c++/10.3.1/bits/basic_string.h **** #endif
 205:/Library/DaisyToolchain/0.2.0/arm/arm-none-eabi/include/c++/10.3.1/bits/basic_string.h ****       }
 206:/Library/DaisyToolchain/0.2.0/arm/arm-none-eabi/include/c++/10.3.1/bits/basic_string.h **** 
 207:/Library/DaisyToolchain/0.2.0/arm/arm-none-eabi/include/c++/10.3.1/bits/basic_string.h ****       const_pointer
 208:/Library/DaisyToolchain/0.2.0/arm/arm-none-eabi/include/c++/10.3.1/bits/basic_string.h ****       _M_local_data() const
 209:/Library/DaisyToolchain/0.2.0/arm/arm-none-eabi/include/c++/10.3.1/bits/basic_string.h ****       {
 210:/Library/DaisyToolchain/0.2.0/arm/arm-none-eabi/include/c++/10.3.1/bits/basic_string.h **** #if __cplusplus >= 201103L
 211:/Library/DaisyToolchain/0.2.0/arm/arm-none-eabi/include/c++/10.3.1/bits/basic_string.h **** 	return std::pointer_traits<const_pointer>::pointer_to(*_M_local_buf);
 1050              		.loc 18 211 57 view .LVU260
 1051 000a 04F5D863 		add	r3, r4, #1728
 1052              	.LBE1976:
 1053              	.LBE1975:
 1054              	.LBE1979:
 1055              	.LBE1988:
 1056              	.LBE1990:
 1057              	.LBE1995:
  19:./chowdsp_wdf/wdf/wdf_base.h **** 
 1058              		.loc 6 19 9 view .LVU261
 1059 000e C4F89C56 		str	r5, [r4, #1692]
 1060              	.LVL60:
 1061              	.LBB1996:
ARM GAS  /var/folders/yd/h_51qzcj4039f6rvxdz3lvym0000gn/T//ccKvYnDW.s 			page 54


 1062              	.LBI1969:
 212:/Library/DaisyToolchain/0.2.0/arm/arm-none-eabi/include/c++/10.3.1/bits/basic_string.h **** #else
 213:/Library/DaisyToolchain/0.2.0/arm/arm-none-eabi/include/c++/10.3.1/bits/basic_string.h **** 	return const_pointer(_M_local_buf);
 214:/Library/DaisyToolchain/0.2.0/arm/arm-none-eabi/include/c++/10.3.1/bits/basic_string.h **** #endif
 215:/Library/DaisyToolchain/0.2.0/arm/arm-none-eabi/include/c++/10.3.1/bits/basic_string.h ****       }
 216:/Library/DaisyToolchain/0.2.0/arm/arm-none-eabi/include/c++/10.3.1/bits/basic_string.h **** 
 217:/Library/DaisyToolchain/0.2.0/arm/arm-none-eabi/include/c++/10.3.1/bits/basic_string.h ****       void
 218:/Library/DaisyToolchain/0.2.0/arm/arm-none-eabi/include/c++/10.3.1/bits/basic_string.h ****       _M_capacity(size_type __capacity)
 219:/Library/DaisyToolchain/0.2.0/arm/arm-none-eabi/include/c++/10.3.1/bits/basic_string.h ****       { _M_allocated_capacity = __capacity; }
 220:/Library/DaisyToolchain/0.2.0/arm/arm-none-eabi/include/c++/10.3.1/bits/basic_string.h **** 
 221:/Library/DaisyToolchain/0.2.0/arm/arm-none-eabi/include/c++/10.3.1/bits/basic_string.h ****       void
 222:/Library/DaisyToolchain/0.2.0/arm/arm-none-eabi/include/c++/10.3.1/bits/basic_string.h ****       _M_set_length(size_type __n)
 223:/Library/DaisyToolchain/0.2.0/arm/arm-none-eabi/include/c++/10.3.1/bits/basic_string.h ****       {
 224:/Library/DaisyToolchain/0.2.0/arm/arm-none-eabi/include/c++/10.3.1/bits/basic_string.h **** 	_M_length(__n);
 225:/Library/DaisyToolchain/0.2.0/arm/arm-none-eabi/include/c++/10.3.1/bits/basic_string.h **** 	traits_type::assign(_M_data()[__n], _CharT());
 226:/Library/DaisyToolchain/0.2.0/arm/arm-none-eabi/include/c++/10.3.1/bits/basic_string.h ****       }
 227:/Library/DaisyToolchain/0.2.0/arm/arm-none-eabi/include/c++/10.3.1/bits/basic_string.h **** 
 228:/Library/DaisyToolchain/0.2.0/arm/arm-none-eabi/include/c++/10.3.1/bits/basic_string.h ****       bool
 229:/Library/DaisyToolchain/0.2.0/arm/arm-none-eabi/include/c++/10.3.1/bits/basic_string.h ****       _M_is_local() const
 230:/Library/DaisyToolchain/0.2.0/arm/arm-none-eabi/include/c++/10.3.1/bits/basic_string.h ****       { return _M_data() == _M_local_data(); }
 231:/Library/DaisyToolchain/0.2.0/arm/arm-none-eabi/include/c++/10.3.1/bits/basic_string.h **** 
 232:/Library/DaisyToolchain/0.2.0/arm/arm-none-eabi/include/c++/10.3.1/bits/basic_string.h ****       // Create & Destroy
 233:/Library/DaisyToolchain/0.2.0/arm/arm-none-eabi/include/c++/10.3.1/bits/basic_string.h ****       pointer
 234:/Library/DaisyToolchain/0.2.0/arm/arm-none-eabi/include/c++/10.3.1/bits/basic_string.h ****       _M_create(size_type&, size_type);
 235:/Library/DaisyToolchain/0.2.0/arm/arm-none-eabi/include/c++/10.3.1/bits/basic_string.h **** 
 236:/Library/DaisyToolchain/0.2.0/arm/arm-none-eabi/include/c++/10.3.1/bits/basic_string.h ****       void
 237:/Library/DaisyToolchain/0.2.0/arm/arm-none-eabi/include/c++/10.3.1/bits/basic_string.h ****       _M_dispose()
 238:/Library/DaisyToolchain/0.2.0/arm/arm-none-eabi/include/c++/10.3.1/bits/basic_string.h ****       {
 239:/Library/DaisyToolchain/0.2.0/arm/arm-none-eabi/include/c++/10.3.1/bits/basic_string.h **** 	if (!_M_is_local())
 240:/Library/DaisyToolchain/0.2.0/arm/arm-none-eabi/include/c++/10.3.1/bits/basic_string.h **** 	  _M_destroy(_M_allocated_capacity);
 241:/Library/DaisyToolchain/0.2.0/arm/arm-none-eabi/include/c++/10.3.1/bits/basic_string.h ****       }
 242:/Library/DaisyToolchain/0.2.0/arm/arm-none-eabi/include/c++/10.3.1/bits/basic_string.h **** 
 243:/Library/DaisyToolchain/0.2.0/arm/arm-none-eabi/include/c++/10.3.1/bits/basic_string.h ****       void
 244:/Library/DaisyToolchain/0.2.0/arm/arm-none-eabi/include/c++/10.3.1/bits/basic_string.h ****       _M_destroy(size_type __size) throw()
 245:/Library/DaisyToolchain/0.2.0/arm/arm-none-eabi/include/c++/10.3.1/bits/basic_string.h ****       { _Alloc_traits::deallocate(_M_get_allocator(), _M_data(), __size + 1); }
 246:/Library/DaisyToolchain/0.2.0/arm/arm-none-eabi/include/c++/10.3.1/bits/basic_string.h **** 
 247:/Library/DaisyToolchain/0.2.0/arm/arm-none-eabi/include/c++/10.3.1/bits/basic_string.h ****       // _M_construct_aux is used to implement the 21.3.1 para 15 which
 248:/Library/DaisyToolchain/0.2.0/arm/arm-none-eabi/include/c++/10.3.1/bits/basic_string.h ****       // requires special behaviour if _InIterator is an integral type
 249:/Library/DaisyToolchain/0.2.0/arm/arm-none-eabi/include/c++/10.3.1/bits/basic_string.h ****       template<typename _InIterator>
 250:/Library/DaisyToolchain/0.2.0/arm/arm-none-eabi/include/c++/10.3.1/bits/basic_string.h ****         void
 251:/Library/DaisyToolchain/0.2.0/arm/arm-none-eabi/include/c++/10.3.1/bits/basic_string.h ****         _M_construct_aux(_InIterator __beg, _InIterator __end,
 252:/Library/DaisyToolchain/0.2.0/arm/arm-none-eabi/include/c++/10.3.1/bits/basic_string.h **** 			 std::__false_type)
 253:/Library/DaisyToolchain/0.2.0/arm/arm-none-eabi/include/c++/10.3.1/bits/basic_string.h **** 	{
 254:/Library/DaisyToolchain/0.2.0/arm/arm-none-eabi/include/c++/10.3.1/bits/basic_string.h ****           typedef typename iterator_traits<_InIterator>::iterator_category _Tag;
 255:/Library/DaisyToolchain/0.2.0/arm/arm-none-eabi/include/c++/10.3.1/bits/basic_string.h ****           _M_construct(__beg, __end, _Tag());
 256:/Library/DaisyToolchain/0.2.0/arm/arm-none-eabi/include/c++/10.3.1/bits/basic_string.h **** 	}
 257:/Library/DaisyToolchain/0.2.0/arm/arm-none-eabi/include/c++/10.3.1/bits/basic_string.h **** 
 258:/Library/DaisyToolchain/0.2.0/arm/arm-none-eabi/include/c++/10.3.1/bits/basic_string.h ****       // _GLIBCXX_RESOLVE_LIB_DEFECTS
 259:/Library/DaisyToolchain/0.2.0/arm/arm-none-eabi/include/c++/10.3.1/bits/basic_string.h ****       // 438. Ambiguity in the "do the right thing" clause
 260:/Library/DaisyToolchain/0.2.0/arm/arm-none-eabi/include/c++/10.3.1/bits/basic_string.h ****       template<typename _Integer>
 261:/Library/DaisyToolchain/0.2.0/arm/arm-none-eabi/include/c++/10.3.1/bits/basic_string.h ****         void
 262:/Library/DaisyToolchain/0.2.0/arm/arm-none-eabi/include/c++/10.3.1/bits/basic_string.h ****         _M_construct_aux(_Integer __beg, _Integer __end, std::__true_type)
 263:/Library/DaisyToolchain/0.2.0/arm/arm-none-eabi/include/c++/10.3.1/bits/basic_string.h **** 	{ _M_construct_aux_2(static_cast<size_type>(__beg), __end); }
 264:/Library/DaisyToolchain/0.2.0/arm/arm-none-eabi/include/c++/10.3.1/bits/basic_string.h **** 
 265:/Library/DaisyToolchain/0.2.0/arm/arm-none-eabi/include/c++/10.3.1/bits/basic_string.h ****       void
 266:/Library/DaisyToolchain/0.2.0/arm/arm-none-eabi/include/c++/10.3.1/bits/basic_string.h ****       _M_construct_aux_2(size_type __req, _CharT __c)
 267:/Library/DaisyToolchain/0.2.0/arm/arm-none-eabi/include/c++/10.3.1/bits/basic_string.h ****       { _M_construct(__req, __c); }
ARM GAS  /var/folders/yd/h_51qzcj4039f6rvxdz3lvym0000gn/T//ccKvYnDW.s 			page 55


 268:/Library/DaisyToolchain/0.2.0/arm/arm-none-eabi/include/c++/10.3.1/bits/basic_string.h **** 
 269:/Library/DaisyToolchain/0.2.0/arm/arm-none-eabi/include/c++/10.3.1/bits/basic_string.h ****       template<typename _InIterator>
 270:/Library/DaisyToolchain/0.2.0/arm/arm-none-eabi/include/c++/10.3.1/bits/basic_string.h ****         void
 271:/Library/DaisyToolchain/0.2.0/arm/arm-none-eabi/include/c++/10.3.1/bits/basic_string.h ****         _M_construct(_InIterator __beg, _InIterator __end)
 272:/Library/DaisyToolchain/0.2.0/arm/arm-none-eabi/include/c++/10.3.1/bits/basic_string.h **** 	{
 273:/Library/DaisyToolchain/0.2.0/arm/arm-none-eabi/include/c++/10.3.1/bits/basic_string.h **** 	  typedef typename std::__is_integer<_InIterator>::__type _Integral;
 274:/Library/DaisyToolchain/0.2.0/arm/arm-none-eabi/include/c++/10.3.1/bits/basic_string.h **** 	  _M_construct_aux(__beg, __end, _Integral());
 275:/Library/DaisyToolchain/0.2.0/arm/arm-none-eabi/include/c++/10.3.1/bits/basic_string.h ****         }
 276:/Library/DaisyToolchain/0.2.0/arm/arm-none-eabi/include/c++/10.3.1/bits/basic_string.h **** 
 277:/Library/DaisyToolchain/0.2.0/arm/arm-none-eabi/include/c++/10.3.1/bits/basic_string.h ****       // For Input Iterators, used in istreambuf_iterators, etc.
 278:/Library/DaisyToolchain/0.2.0/arm/arm-none-eabi/include/c++/10.3.1/bits/basic_string.h ****       template<typename _InIterator>
 279:/Library/DaisyToolchain/0.2.0/arm/arm-none-eabi/include/c++/10.3.1/bits/basic_string.h ****         void
 280:/Library/DaisyToolchain/0.2.0/arm/arm-none-eabi/include/c++/10.3.1/bits/basic_string.h ****         _M_construct(_InIterator __beg, _InIterator __end,
 281:/Library/DaisyToolchain/0.2.0/arm/arm-none-eabi/include/c++/10.3.1/bits/basic_string.h **** 		     std::input_iterator_tag);
 282:/Library/DaisyToolchain/0.2.0/arm/arm-none-eabi/include/c++/10.3.1/bits/basic_string.h **** 
 283:/Library/DaisyToolchain/0.2.0/arm/arm-none-eabi/include/c++/10.3.1/bits/basic_string.h ****       // For forward_iterators up to random_access_iterators, used for
 284:/Library/DaisyToolchain/0.2.0/arm/arm-none-eabi/include/c++/10.3.1/bits/basic_string.h ****       // string::iterator, _CharT*, etc.
 285:/Library/DaisyToolchain/0.2.0/arm/arm-none-eabi/include/c++/10.3.1/bits/basic_string.h ****       template<typename _FwdIterator>
 286:/Library/DaisyToolchain/0.2.0/arm/arm-none-eabi/include/c++/10.3.1/bits/basic_string.h ****         void
 287:/Library/DaisyToolchain/0.2.0/arm/arm-none-eabi/include/c++/10.3.1/bits/basic_string.h ****         _M_construct(_FwdIterator __beg, _FwdIterator __end,
 288:/Library/DaisyToolchain/0.2.0/arm/arm-none-eabi/include/c++/10.3.1/bits/basic_string.h **** 		     std::forward_iterator_tag);
 289:/Library/DaisyToolchain/0.2.0/arm/arm-none-eabi/include/c++/10.3.1/bits/basic_string.h **** 
 290:/Library/DaisyToolchain/0.2.0/arm/arm-none-eabi/include/c++/10.3.1/bits/basic_string.h ****       void
 291:/Library/DaisyToolchain/0.2.0/arm/arm-none-eabi/include/c++/10.3.1/bits/basic_string.h ****       _M_construct(size_type __req, _CharT __c);
 292:/Library/DaisyToolchain/0.2.0/arm/arm-none-eabi/include/c++/10.3.1/bits/basic_string.h **** 
 293:/Library/DaisyToolchain/0.2.0/arm/arm-none-eabi/include/c++/10.3.1/bits/basic_string.h ****       allocator_type&
 294:/Library/DaisyToolchain/0.2.0/arm/arm-none-eabi/include/c++/10.3.1/bits/basic_string.h ****       _M_get_allocator()
 295:/Library/DaisyToolchain/0.2.0/arm/arm-none-eabi/include/c++/10.3.1/bits/basic_string.h ****       { return _M_dataplus; }
 296:/Library/DaisyToolchain/0.2.0/arm/arm-none-eabi/include/c++/10.3.1/bits/basic_string.h **** 
 297:/Library/DaisyToolchain/0.2.0/arm/arm-none-eabi/include/c++/10.3.1/bits/basic_string.h ****       const allocator_type&
 298:/Library/DaisyToolchain/0.2.0/arm/arm-none-eabi/include/c++/10.3.1/bits/basic_string.h ****       _M_get_allocator() const
 299:/Library/DaisyToolchain/0.2.0/arm/arm-none-eabi/include/c++/10.3.1/bits/basic_string.h ****       { return _M_dataplus; }
 300:/Library/DaisyToolchain/0.2.0/arm/arm-none-eabi/include/c++/10.3.1/bits/basic_string.h **** 
 301:/Library/DaisyToolchain/0.2.0/arm/arm-none-eabi/include/c++/10.3.1/bits/basic_string.h ****     private:
 302:/Library/DaisyToolchain/0.2.0/arm/arm-none-eabi/include/c++/10.3.1/bits/basic_string.h **** 
 303:/Library/DaisyToolchain/0.2.0/arm/arm-none-eabi/include/c++/10.3.1/bits/basic_string.h **** #ifdef _GLIBCXX_DISAMBIGUATE_REPLACE_INST
 304:/Library/DaisyToolchain/0.2.0/arm/arm-none-eabi/include/c++/10.3.1/bits/basic_string.h ****       // The explicit instantiations in misc-inst.cc require this due to
 305:/Library/DaisyToolchain/0.2.0/arm/arm-none-eabi/include/c++/10.3.1/bits/basic_string.h ****       // https://gcc.gnu.org/bugzilla/show_bug.cgi?id=64063
 306:/Library/DaisyToolchain/0.2.0/arm/arm-none-eabi/include/c++/10.3.1/bits/basic_string.h ****       template<typename _Tp, bool _Requires =
 307:/Library/DaisyToolchain/0.2.0/arm/arm-none-eabi/include/c++/10.3.1/bits/basic_string.h **** 	       !__are_same<_Tp, _CharT*>::__value
 308:/Library/DaisyToolchain/0.2.0/arm/arm-none-eabi/include/c++/10.3.1/bits/basic_string.h **** 	       && !__are_same<_Tp, const _CharT*>::__value
 309:/Library/DaisyToolchain/0.2.0/arm/arm-none-eabi/include/c++/10.3.1/bits/basic_string.h **** 	       && !__are_same<_Tp, iterator>::__value
 310:/Library/DaisyToolchain/0.2.0/arm/arm-none-eabi/include/c++/10.3.1/bits/basic_string.h **** 	       && !__are_same<_Tp, const_iterator>::__value>
 311:/Library/DaisyToolchain/0.2.0/arm/arm-none-eabi/include/c++/10.3.1/bits/basic_string.h **** 	struct __enable_if_not_native_iterator
 312:/Library/DaisyToolchain/0.2.0/arm/arm-none-eabi/include/c++/10.3.1/bits/basic_string.h **** 	{ typedef basic_string& __type; };
 313:/Library/DaisyToolchain/0.2.0/arm/arm-none-eabi/include/c++/10.3.1/bits/basic_string.h ****       template<typename _Tp>
 314:/Library/DaisyToolchain/0.2.0/arm/arm-none-eabi/include/c++/10.3.1/bits/basic_string.h **** 	struct __enable_if_not_native_iterator<_Tp, false> { };
 315:/Library/DaisyToolchain/0.2.0/arm/arm-none-eabi/include/c++/10.3.1/bits/basic_string.h **** #endif
 316:/Library/DaisyToolchain/0.2.0/arm/arm-none-eabi/include/c++/10.3.1/bits/basic_string.h **** 
 317:/Library/DaisyToolchain/0.2.0/arm/arm-none-eabi/include/c++/10.3.1/bits/basic_string.h ****       size_type
 318:/Library/DaisyToolchain/0.2.0/arm/arm-none-eabi/include/c++/10.3.1/bits/basic_string.h ****       _M_check(size_type __pos, const char* __s) const
 319:/Library/DaisyToolchain/0.2.0/arm/arm-none-eabi/include/c++/10.3.1/bits/basic_string.h ****       {
 320:/Library/DaisyToolchain/0.2.0/arm/arm-none-eabi/include/c++/10.3.1/bits/basic_string.h **** 	if (__pos > this->size())
 321:/Library/DaisyToolchain/0.2.0/arm/arm-none-eabi/include/c++/10.3.1/bits/basic_string.h **** 	  __throw_out_of_range_fmt(__N("%s: __pos (which is %zu) > "
 322:/Library/DaisyToolchain/0.2.0/arm/arm-none-eabi/include/c++/10.3.1/bits/basic_string.h **** 				       "this->size() (which is %zu)"),
 323:/Library/DaisyToolchain/0.2.0/arm/arm-none-eabi/include/c++/10.3.1/bits/basic_string.h **** 				   __s, __pos, this->size());
 324:/Library/DaisyToolchain/0.2.0/arm/arm-none-eabi/include/c++/10.3.1/bits/basic_string.h **** 	return __pos;
ARM GAS  /var/folders/yd/h_51qzcj4039f6rvxdz3lvym0000gn/T//ccKvYnDW.s 			page 56


 325:/Library/DaisyToolchain/0.2.0/arm/arm-none-eabi/include/c++/10.3.1/bits/basic_string.h ****       }
 326:/Library/DaisyToolchain/0.2.0/arm/arm-none-eabi/include/c++/10.3.1/bits/basic_string.h **** 
 327:/Library/DaisyToolchain/0.2.0/arm/arm-none-eabi/include/c++/10.3.1/bits/basic_string.h ****       void
 328:/Library/DaisyToolchain/0.2.0/arm/arm-none-eabi/include/c++/10.3.1/bits/basic_string.h ****       _M_check_length(size_type __n1, size_type __n2, const char* __s) const
 329:/Library/DaisyToolchain/0.2.0/arm/arm-none-eabi/include/c++/10.3.1/bits/basic_string.h ****       {
 330:/Library/DaisyToolchain/0.2.0/arm/arm-none-eabi/include/c++/10.3.1/bits/basic_string.h **** 	if (this->max_size() - (this->size() - __n1) < __n2)
 331:/Library/DaisyToolchain/0.2.0/arm/arm-none-eabi/include/c++/10.3.1/bits/basic_string.h **** 	  __throw_length_error(__N(__s));
 332:/Library/DaisyToolchain/0.2.0/arm/arm-none-eabi/include/c++/10.3.1/bits/basic_string.h ****       }
 333:/Library/DaisyToolchain/0.2.0/arm/arm-none-eabi/include/c++/10.3.1/bits/basic_string.h **** 
 334:/Library/DaisyToolchain/0.2.0/arm/arm-none-eabi/include/c++/10.3.1/bits/basic_string.h **** 
 335:/Library/DaisyToolchain/0.2.0/arm/arm-none-eabi/include/c++/10.3.1/bits/basic_string.h ****       // NB: _M_limit doesn't check for a bad __pos value.
 336:/Library/DaisyToolchain/0.2.0/arm/arm-none-eabi/include/c++/10.3.1/bits/basic_string.h ****       size_type
 337:/Library/DaisyToolchain/0.2.0/arm/arm-none-eabi/include/c++/10.3.1/bits/basic_string.h ****       _M_limit(size_type __pos, size_type __off) const _GLIBCXX_NOEXCEPT
 338:/Library/DaisyToolchain/0.2.0/arm/arm-none-eabi/include/c++/10.3.1/bits/basic_string.h ****       {
 339:/Library/DaisyToolchain/0.2.0/arm/arm-none-eabi/include/c++/10.3.1/bits/basic_string.h **** 	const bool __testoff =  __off < this->size() - __pos;
 340:/Library/DaisyToolchain/0.2.0/arm/arm-none-eabi/include/c++/10.3.1/bits/basic_string.h **** 	return __testoff ? __off : this->size() - __pos;
 341:/Library/DaisyToolchain/0.2.0/arm/arm-none-eabi/include/c++/10.3.1/bits/basic_string.h ****       }
 342:/Library/DaisyToolchain/0.2.0/arm/arm-none-eabi/include/c++/10.3.1/bits/basic_string.h **** 
 343:/Library/DaisyToolchain/0.2.0/arm/arm-none-eabi/include/c++/10.3.1/bits/basic_string.h ****       // True if _Rep and source do not overlap.
 344:/Library/DaisyToolchain/0.2.0/arm/arm-none-eabi/include/c++/10.3.1/bits/basic_string.h ****       bool
 345:/Library/DaisyToolchain/0.2.0/arm/arm-none-eabi/include/c++/10.3.1/bits/basic_string.h ****       _M_disjunct(const _CharT* __s) const _GLIBCXX_NOEXCEPT
 346:/Library/DaisyToolchain/0.2.0/arm/arm-none-eabi/include/c++/10.3.1/bits/basic_string.h ****       {
 347:/Library/DaisyToolchain/0.2.0/arm/arm-none-eabi/include/c++/10.3.1/bits/basic_string.h **** 	return (less<const _CharT*>()(__s, _M_data())
 348:/Library/DaisyToolchain/0.2.0/arm/arm-none-eabi/include/c++/10.3.1/bits/basic_string.h **** 		|| less<const _CharT*>()(_M_data() + this->size(), __s));
 349:/Library/DaisyToolchain/0.2.0/arm/arm-none-eabi/include/c++/10.3.1/bits/basic_string.h ****       }
 350:/Library/DaisyToolchain/0.2.0/arm/arm-none-eabi/include/c++/10.3.1/bits/basic_string.h **** 
 351:/Library/DaisyToolchain/0.2.0/arm/arm-none-eabi/include/c++/10.3.1/bits/basic_string.h ****       // When __n = 1 way faster than the general multichar
 352:/Library/DaisyToolchain/0.2.0/arm/arm-none-eabi/include/c++/10.3.1/bits/basic_string.h ****       // traits_type::copy/move/assign.
 353:/Library/DaisyToolchain/0.2.0/arm/arm-none-eabi/include/c++/10.3.1/bits/basic_string.h ****       static void
 354:/Library/DaisyToolchain/0.2.0/arm/arm-none-eabi/include/c++/10.3.1/bits/basic_string.h ****       _S_copy(_CharT* __d, const _CharT* __s, size_type __n)
 355:/Library/DaisyToolchain/0.2.0/arm/arm-none-eabi/include/c++/10.3.1/bits/basic_string.h ****       {
 356:/Library/DaisyToolchain/0.2.0/arm/arm-none-eabi/include/c++/10.3.1/bits/basic_string.h **** 	if (__n == 1)
 357:/Library/DaisyToolchain/0.2.0/arm/arm-none-eabi/include/c++/10.3.1/bits/basic_string.h **** 	  traits_type::assign(*__d, *__s);
 358:/Library/DaisyToolchain/0.2.0/arm/arm-none-eabi/include/c++/10.3.1/bits/basic_string.h **** 	else
 359:/Library/DaisyToolchain/0.2.0/arm/arm-none-eabi/include/c++/10.3.1/bits/basic_string.h **** 	  traits_type::copy(__d, __s, __n);
 360:/Library/DaisyToolchain/0.2.0/arm/arm-none-eabi/include/c++/10.3.1/bits/basic_string.h ****       }
 361:/Library/DaisyToolchain/0.2.0/arm/arm-none-eabi/include/c++/10.3.1/bits/basic_string.h **** 
 362:/Library/DaisyToolchain/0.2.0/arm/arm-none-eabi/include/c++/10.3.1/bits/basic_string.h ****       static void
 363:/Library/DaisyToolchain/0.2.0/arm/arm-none-eabi/include/c++/10.3.1/bits/basic_string.h ****       _S_move(_CharT* __d, const _CharT* __s, size_type __n)
 364:/Library/DaisyToolchain/0.2.0/arm/arm-none-eabi/include/c++/10.3.1/bits/basic_string.h ****       {
 365:/Library/DaisyToolchain/0.2.0/arm/arm-none-eabi/include/c++/10.3.1/bits/basic_string.h **** 	if (__n == 1)
 366:/Library/DaisyToolchain/0.2.0/arm/arm-none-eabi/include/c++/10.3.1/bits/basic_string.h **** 	  traits_type::assign(*__d, *__s);
 367:/Library/DaisyToolchain/0.2.0/arm/arm-none-eabi/include/c++/10.3.1/bits/basic_string.h **** 	else
 368:/Library/DaisyToolchain/0.2.0/arm/arm-none-eabi/include/c++/10.3.1/bits/basic_string.h **** 	  traits_type::move(__d, __s, __n);
 369:/Library/DaisyToolchain/0.2.0/arm/arm-none-eabi/include/c++/10.3.1/bits/basic_string.h ****       }
 370:/Library/DaisyToolchain/0.2.0/arm/arm-none-eabi/include/c++/10.3.1/bits/basic_string.h **** 
 371:/Library/DaisyToolchain/0.2.0/arm/arm-none-eabi/include/c++/10.3.1/bits/basic_string.h ****       static void
 372:/Library/DaisyToolchain/0.2.0/arm/arm-none-eabi/include/c++/10.3.1/bits/basic_string.h ****       _S_assign(_CharT* __d, size_type __n, _CharT __c)
 373:/Library/DaisyToolchain/0.2.0/arm/arm-none-eabi/include/c++/10.3.1/bits/basic_string.h ****       {
 374:/Library/DaisyToolchain/0.2.0/arm/arm-none-eabi/include/c++/10.3.1/bits/basic_string.h **** 	if (__n == 1)
 375:/Library/DaisyToolchain/0.2.0/arm/arm-none-eabi/include/c++/10.3.1/bits/basic_string.h **** 	  traits_type::assign(*__d, __c);
 376:/Library/DaisyToolchain/0.2.0/arm/arm-none-eabi/include/c++/10.3.1/bits/basic_string.h **** 	else
 377:/Library/DaisyToolchain/0.2.0/arm/arm-none-eabi/include/c++/10.3.1/bits/basic_string.h **** 	  traits_type::assign(__d, __n, __c);
 378:/Library/DaisyToolchain/0.2.0/arm/arm-none-eabi/include/c++/10.3.1/bits/basic_string.h ****       }
 379:/Library/DaisyToolchain/0.2.0/arm/arm-none-eabi/include/c++/10.3.1/bits/basic_string.h **** 
 380:/Library/DaisyToolchain/0.2.0/arm/arm-none-eabi/include/c++/10.3.1/bits/basic_string.h ****       // _S_copy_chars is a separate template to permit specialization
 381:/Library/DaisyToolchain/0.2.0/arm/arm-none-eabi/include/c++/10.3.1/bits/basic_string.h ****       // to optimize for the common case of pointers as iterators.
ARM GAS  /var/folders/yd/h_51qzcj4039f6rvxdz3lvym0000gn/T//ccKvYnDW.s 			page 57


 382:/Library/DaisyToolchain/0.2.0/arm/arm-none-eabi/include/c++/10.3.1/bits/basic_string.h ****       template<class _Iterator>
 383:/Library/DaisyToolchain/0.2.0/arm/arm-none-eabi/include/c++/10.3.1/bits/basic_string.h ****         static void
 384:/Library/DaisyToolchain/0.2.0/arm/arm-none-eabi/include/c++/10.3.1/bits/basic_string.h ****         _S_copy_chars(_CharT* __p, _Iterator __k1, _Iterator __k2)
 385:/Library/DaisyToolchain/0.2.0/arm/arm-none-eabi/include/c++/10.3.1/bits/basic_string.h ****         {
 386:/Library/DaisyToolchain/0.2.0/arm/arm-none-eabi/include/c++/10.3.1/bits/basic_string.h **** 	  for (; __k1 != __k2; ++__k1, (void)++__p)
 387:/Library/DaisyToolchain/0.2.0/arm/arm-none-eabi/include/c++/10.3.1/bits/basic_string.h **** 	    traits_type::assign(*__p, *__k1); // These types are off.
 388:/Library/DaisyToolchain/0.2.0/arm/arm-none-eabi/include/c++/10.3.1/bits/basic_string.h **** 	}
 389:/Library/DaisyToolchain/0.2.0/arm/arm-none-eabi/include/c++/10.3.1/bits/basic_string.h **** 
 390:/Library/DaisyToolchain/0.2.0/arm/arm-none-eabi/include/c++/10.3.1/bits/basic_string.h ****       static void
 391:/Library/DaisyToolchain/0.2.0/arm/arm-none-eabi/include/c++/10.3.1/bits/basic_string.h ****       _S_copy_chars(_CharT* __p, iterator __k1, iterator __k2) _GLIBCXX_NOEXCEPT
 392:/Library/DaisyToolchain/0.2.0/arm/arm-none-eabi/include/c++/10.3.1/bits/basic_string.h ****       { _S_copy_chars(__p, __k1.base(), __k2.base()); }
 393:/Library/DaisyToolchain/0.2.0/arm/arm-none-eabi/include/c++/10.3.1/bits/basic_string.h **** 
 394:/Library/DaisyToolchain/0.2.0/arm/arm-none-eabi/include/c++/10.3.1/bits/basic_string.h ****       static void
 395:/Library/DaisyToolchain/0.2.0/arm/arm-none-eabi/include/c++/10.3.1/bits/basic_string.h ****       _S_copy_chars(_CharT* __p, const_iterator __k1, const_iterator __k2)
 396:/Library/DaisyToolchain/0.2.0/arm/arm-none-eabi/include/c++/10.3.1/bits/basic_string.h ****       _GLIBCXX_NOEXCEPT
 397:/Library/DaisyToolchain/0.2.0/arm/arm-none-eabi/include/c++/10.3.1/bits/basic_string.h ****       { _S_copy_chars(__p, __k1.base(), __k2.base()); }
 398:/Library/DaisyToolchain/0.2.0/arm/arm-none-eabi/include/c++/10.3.1/bits/basic_string.h **** 
 399:/Library/DaisyToolchain/0.2.0/arm/arm-none-eabi/include/c++/10.3.1/bits/basic_string.h ****       static void
 400:/Library/DaisyToolchain/0.2.0/arm/arm-none-eabi/include/c++/10.3.1/bits/basic_string.h ****       _S_copy_chars(_CharT* __p, _CharT* __k1, _CharT* __k2) _GLIBCXX_NOEXCEPT
 401:/Library/DaisyToolchain/0.2.0/arm/arm-none-eabi/include/c++/10.3.1/bits/basic_string.h ****       { _S_copy(__p, __k1, __k2 - __k1); }
 402:/Library/DaisyToolchain/0.2.0/arm/arm-none-eabi/include/c++/10.3.1/bits/basic_string.h **** 
 403:/Library/DaisyToolchain/0.2.0/arm/arm-none-eabi/include/c++/10.3.1/bits/basic_string.h ****       static void
 404:/Library/DaisyToolchain/0.2.0/arm/arm-none-eabi/include/c++/10.3.1/bits/basic_string.h ****       _S_copy_chars(_CharT* __p, const _CharT* __k1, const _CharT* __k2)
 405:/Library/DaisyToolchain/0.2.0/arm/arm-none-eabi/include/c++/10.3.1/bits/basic_string.h ****       _GLIBCXX_NOEXCEPT
 406:/Library/DaisyToolchain/0.2.0/arm/arm-none-eabi/include/c++/10.3.1/bits/basic_string.h ****       { _S_copy(__p, __k1, __k2 - __k1); }
 407:/Library/DaisyToolchain/0.2.0/arm/arm-none-eabi/include/c++/10.3.1/bits/basic_string.h **** 
 408:/Library/DaisyToolchain/0.2.0/arm/arm-none-eabi/include/c++/10.3.1/bits/basic_string.h ****       static int
 409:/Library/DaisyToolchain/0.2.0/arm/arm-none-eabi/include/c++/10.3.1/bits/basic_string.h ****       _S_compare(size_type __n1, size_type __n2) _GLIBCXX_NOEXCEPT
 410:/Library/DaisyToolchain/0.2.0/arm/arm-none-eabi/include/c++/10.3.1/bits/basic_string.h ****       {
 411:/Library/DaisyToolchain/0.2.0/arm/arm-none-eabi/include/c++/10.3.1/bits/basic_string.h **** 	const difference_type __d = difference_type(__n1 - __n2);
 412:/Library/DaisyToolchain/0.2.0/arm/arm-none-eabi/include/c++/10.3.1/bits/basic_string.h **** 
 413:/Library/DaisyToolchain/0.2.0/arm/arm-none-eabi/include/c++/10.3.1/bits/basic_string.h **** 	if (__d > __gnu_cxx::__numeric_traits<int>::__max)
 414:/Library/DaisyToolchain/0.2.0/arm/arm-none-eabi/include/c++/10.3.1/bits/basic_string.h **** 	  return __gnu_cxx::__numeric_traits<int>::__max;
 415:/Library/DaisyToolchain/0.2.0/arm/arm-none-eabi/include/c++/10.3.1/bits/basic_string.h **** 	else if (__d < __gnu_cxx::__numeric_traits<int>::__min)
 416:/Library/DaisyToolchain/0.2.0/arm/arm-none-eabi/include/c++/10.3.1/bits/basic_string.h **** 	  return __gnu_cxx::__numeric_traits<int>::__min;
 417:/Library/DaisyToolchain/0.2.0/arm/arm-none-eabi/include/c++/10.3.1/bits/basic_string.h **** 	else
 418:/Library/DaisyToolchain/0.2.0/arm/arm-none-eabi/include/c++/10.3.1/bits/basic_string.h **** 	  return int(__d);
 419:/Library/DaisyToolchain/0.2.0/arm/arm-none-eabi/include/c++/10.3.1/bits/basic_string.h ****       }
 420:/Library/DaisyToolchain/0.2.0/arm/arm-none-eabi/include/c++/10.3.1/bits/basic_string.h **** 
 421:/Library/DaisyToolchain/0.2.0/arm/arm-none-eabi/include/c++/10.3.1/bits/basic_string.h ****       void
 422:/Library/DaisyToolchain/0.2.0/arm/arm-none-eabi/include/c++/10.3.1/bits/basic_string.h ****       _M_assign(const basic_string&);
 423:/Library/DaisyToolchain/0.2.0/arm/arm-none-eabi/include/c++/10.3.1/bits/basic_string.h **** 
 424:/Library/DaisyToolchain/0.2.0/arm/arm-none-eabi/include/c++/10.3.1/bits/basic_string.h ****       void
 425:/Library/DaisyToolchain/0.2.0/arm/arm-none-eabi/include/c++/10.3.1/bits/basic_string.h ****       _M_mutate(size_type __pos, size_type __len1, const _CharT* __s,
 426:/Library/DaisyToolchain/0.2.0/arm/arm-none-eabi/include/c++/10.3.1/bits/basic_string.h **** 		size_type __len2);
 427:/Library/DaisyToolchain/0.2.0/arm/arm-none-eabi/include/c++/10.3.1/bits/basic_string.h **** 
 428:/Library/DaisyToolchain/0.2.0/arm/arm-none-eabi/include/c++/10.3.1/bits/basic_string.h ****       void
 429:/Library/DaisyToolchain/0.2.0/arm/arm-none-eabi/include/c++/10.3.1/bits/basic_string.h ****       _M_erase(size_type __pos, size_type __n);
 430:/Library/DaisyToolchain/0.2.0/arm/arm-none-eabi/include/c++/10.3.1/bits/basic_string.h **** 
 431:/Library/DaisyToolchain/0.2.0/arm/arm-none-eabi/include/c++/10.3.1/bits/basic_string.h ****     public:
 432:/Library/DaisyToolchain/0.2.0/arm/arm-none-eabi/include/c++/10.3.1/bits/basic_string.h ****       // Construct/copy/destroy:
 433:/Library/DaisyToolchain/0.2.0/arm/arm-none-eabi/include/c++/10.3.1/bits/basic_string.h ****       // NB: We overload ctors in some cases instead of using default
 434:/Library/DaisyToolchain/0.2.0/arm/arm-none-eabi/include/c++/10.3.1/bits/basic_string.h ****       // arguments, per 17.4.4.4 para. 2 item 2.
 435:/Library/DaisyToolchain/0.2.0/arm/arm-none-eabi/include/c++/10.3.1/bits/basic_string.h **** 
 436:/Library/DaisyToolchain/0.2.0/arm/arm-none-eabi/include/c++/10.3.1/bits/basic_string.h ****       /**
 437:/Library/DaisyToolchain/0.2.0/arm/arm-none-eabi/include/c++/10.3.1/bits/basic_string.h ****        *  @brief  Default constructor creates an empty string.
 438:/Library/DaisyToolchain/0.2.0/arm/arm-none-eabi/include/c++/10.3.1/bits/basic_string.h ****        */
ARM GAS  /var/folders/yd/h_51qzcj4039f6rvxdz3lvym0000gn/T//ccKvYnDW.s 			page 58


 439:/Library/DaisyToolchain/0.2.0/arm/arm-none-eabi/include/c++/10.3.1/bits/basic_string.h ****       basic_string()
 440:/Library/DaisyToolchain/0.2.0/arm/arm-none-eabi/include/c++/10.3.1/bits/basic_string.h ****       _GLIBCXX_NOEXCEPT_IF(is_nothrow_default_constructible<_Alloc>::value)
 441:/Library/DaisyToolchain/0.2.0/arm/arm-none-eabi/include/c++/10.3.1/bits/basic_string.h ****       : _M_dataplus(_M_local_data())
 442:/Library/DaisyToolchain/0.2.0/arm/arm-none-eabi/include/c++/10.3.1/bits/basic_string.h ****       { _M_set_length(0); }
 443:/Library/DaisyToolchain/0.2.0/arm/arm-none-eabi/include/c++/10.3.1/bits/basic_string.h **** 
 444:/Library/DaisyToolchain/0.2.0/arm/arm-none-eabi/include/c++/10.3.1/bits/basic_string.h ****       /**
 445:/Library/DaisyToolchain/0.2.0/arm/arm-none-eabi/include/c++/10.3.1/bits/basic_string.h ****        *  @brief  Construct an empty string using allocator @a a.
 446:/Library/DaisyToolchain/0.2.0/arm/arm-none-eabi/include/c++/10.3.1/bits/basic_string.h ****        */
 447:/Library/DaisyToolchain/0.2.0/arm/arm-none-eabi/include/c++/10.3.1/bits/basic_string.h ****       explicit
 448:/Library/DaisyToolchain/0.2.0/arm/arm-none-eabi/include/c++/10.3.1/bits/basic_string.h ****       basic_string(const _Alloc& __a) _GLIBCXX_NOEXCEPT
 449:/Library/DaisyToolchain/0.2.0/arm/arm-none-eabi/include/c++/10.3.1/bits/basic_string.h ****       : _M_dataplus(_M_local_data(), __a)
 450:/Library/DaisyToolchain/0.2.0/arm/arm-none-eabi/include/c++/10.3.1/bits/basic_string.h ****       { _M_set_length(0); }
 451:/Library/DaisyToolchain/0.2.0/arm/arm-none-eabi/include/c++/10.3.1/bits/basic_string.h **** 
 452:/Library/DaisyToolchain/0.2.0/arm/arm-none-eabi/include/c++/10.3.1/bits/basic_string.h ****       /**
 453:/Library/DaisyToolchain/0.2.0/arm/arm-none-eabi/include/c++/10.3.1/bits/basic_string.h ****        *  @brief  Construct string with copy of value of @a __str.
 454:/Library/DaisyToolchain/0.2.0/arm/arm-none-eabi/include/c++/10.3.1/bits/basic_string.h ****        *  @param  __str  Source string.
 455:/Library/DaisyToolchain/0.2.0/arm/arm-none-eabi/include/c++/10.3.1/bits/basic_string.h ****        */
 456:/Library/DaisyToolchain/0.2.0/arm/arm-none-eabi/include/c++/10.3.1/bits/basic_string.h ****       basic_string(const basic_string& __str)
 457:/Library/DaisyToolchain/0.2.0/arm/arm-none-eabi/include/c++/10.3.1/bits/basic_string.h ****       : _M_dataplus(_M_local_data(),
 458:/Library/DaisyToolchain/0.2.0/arm/arm-none-eabi/include/c++/10.3.1/bits/basic_string.h **** 		    _Alloc_traits::_S_select_on_copy(__str._M_get_allocator()))
 459:/Library/DaisyToolchain/0.2.0/arm/arm-none-eabi/include/c++/10.3.1/bits/basic_string.h ****       { _M_construct(__str._M_data(), __str._M_data() + __str.length()); }
 460:/Library/DaisyToolchain/0.2.0/arm/arm-none-eabi/include/c++/10.3.1/bits/basic_string.h **** 
 461:/Library/DaisyToolchain/0.2.0/arm/arm-none-eabi/include/c++/10.3.1/bits/basic_string.h ****       // _GLIBCXX_RESOLVE_LIB_DEFECTS
 462:/Library/DaisyToolchain/0.2.0/arm/arm-none-eabi/include/c++/10.3.1/bits/basic_string.h ****       // 2583. no way to supply an allocator for basic_string(str, pos)
 463:/Library/DaisyToolchain/0.2.0/arm/arm-none-eabi/include/c++/10.3.1/bits/basic_string.h ****       /**
 464:/Library/DaisyToolchain/0.2.0/arm/arm-none-eabi/include/c++/10.3.1/bits/basic_string.h ****        *  @brief  Construct string as copy of a substring.
 465:/Library/DaisyToolchain/0.2.0/arm/arm-none-eabi/include/c++/10.3.1/bits/basic_string.h ****        *  @param  __str  Source string.
 466:/Library/DaisyToolchain/0.2.0/arm/arm-none-eabi/include/c++/10.3.1/bits/basic_string.h ****        *  @param  __pos  Index of first character to copy from.
 467:/Library/DaisyToolchain/0.2.0/arm/arm-none-eabi/include/c++/10.3.1/bits/basic_string.h ****        *  @param  __a  Allocator to use.
 468:/Library/DaisyToolchain/0.2.0/arm/arm-none-eabi/include/c++/10.3.1/bits/basic_string.h ****        */
 469:/Library/DaisyToolchain/0.2.0/arm/arm-none-eabi/include/c++/10.3.1/bits/basic_string.h ****       basic_string(const basic_string& __str, size_type __pos,
 470:/Library/DaisyToolchain/0.2.0/arm/arm-none-eabi/include/c++/10.3.1/bits/basic_string.h **** 		   const _Alloc& __a = _Alloc())
 471:/Library/DaisyToolchain/0.2.0/arm/arm-none-eabi/include/c++/10.3.1/bits/basic_string.h ****       : _M_dataplus(_M_local_data(), __a)
 472:/Library/DaisyToolchain/0.2.0/arm/arm-none-eabi/include/c++/10.3.1/bits/basic_string.h ****       {
 473:/Library/DaisyToolchain/0.2.0/arm/arm-none-eabi/include/c++/10.3.1/bits/basic_string.h **** 	const _CharT* __start = __str._M_data()
 474:/Library/DaisyToolchain/0.2.0/arm/arm-none-eabi/include/c++/10.3.1/bits/basic_string.h **** 	  + __str._M_check(__pos, "basic_string::basic_string");
 475:/Library/DaisyToolchain/0.2.0/arm/arm-none-eabi/include/c++/10.3.1/bits/basic_string.h **** 	_M_construct(__start, __start + __str._M_limit(__pos, npos));
 476:/Library/DaisyToolchain/0.2.0/arm/arm-none-eabi/include/c++/10.3.1/bits/basic_string.h ****       }
 477:/Library/DaisyToolchain/0.2.0/arm/arm-none-eabi/include/c++/10.3.1/bits/basic_string.h **** 
 478:/Library/DaisyToolchain/0.2.0/arm/arm-none-eabi/include/c++/10.3.1/bits/basic_string.h ****       /**
 479:/Library/DaisyToolchain/0.2.0/arm/arm-none-eabi/include/c++/10.3.1/bits/basic_string.h ****        *  @brief  Construct string as copy of a substring.
 480:/Library/DaisyToolchain/0.2.0/arm/arm-none-eabi/include/c++/10.3.1/bits/basic_string.h ****        *  @param  __str  Source string.
 481:/Library/DaisyToolchain/0.2.0/arm/arm-none-eabi/include/c++/10.3.1/bits/basic_string.h ****        *  @param  __pos  Index of first character to copy from.
 482:/Library/DaisyToolchain/0.2.0/arm/arm-none-eabi/include/c++/10.3.1/bits/basic_string.h ****        *  @param  __n  Number of characters to copy.
 483:/Library/DaisyToolchain/0.2.0/arm/arm-none-eabi/include/c++/10.3.1/bits/basic_string.h ****        */
 484:/Library/DaisyToolchain/0.2.0/arm/arm-none-eabi/include/c++/10.3.1/bits/basic_string.h ****       basic_string(const basic_string& __str, size_type __pos,
 485:/Library/DaisyToolchain/0.2.0/arm/arm-none-eabi/include/c++/10.3.1/bits/basic_string.h **** 		   size_type __n)
 486:/Library/DaisyToolchain/0.2.0/arm/arm-none-eabi/include/c++/10.3.1/bits/basic_string.h ****       : _M_dataplus(_M_local_data())
 487:/Library/DaisyToolchain/0.2.0/arm/arm-none-eabi/include/c++/10.3.1/bits/basic_string.h ****       {
 488:/Library/DaisyToolchain/0.2.0/arm/arm-none-eabi/include/c++/10.3.1/bits/basic_string.h **** 	const _CharT* __start = __str._M_data()
 489:/Library/DaisyToolchain/0.2.0/arm/arm-none-eabi/include/c++/10.3.1/bits/basic_string.h **** 	  + __str._M_check(__pos, "basic_string::basic_string");
 490:/Library/DaisyToolchain/0.2.0/arm/arm-none-eabi/include/c++/10.3.1/bits/basic_string.h **** 	_M_construct(__start, __start + __str._M_limit(__pos, __n));
 491:/Library/DaisyToolchain/0.2.0/arm/arm-none-eabi/include/c++/10.3.1/bits/basic_string.h ****       }
 492:/Library/DaisyToolchain/0.2.0/arm/arm-none-eabi/include/c++/10.3.1/bits/basic_string.h **** 
 493:/Library/DaisyToolchain/0.2.0/arm/arm-none-eabi/include/c++/10.3.1/bits/basic_string.h ****       /**
 494:/Library/DaisyToolchain/0.2.0/arm/arm-none-eabi/include/c++/10.3.1/bits/basic_string.h ****        *  @brief  Construct string as copy of a substring.
 495:/Library/DaisyToolchain/0.2.0/arm/arm-none-eabi/include/c++/10.3.1/bits/basic_string.h ****        *  @param  __str  Source string.
ARM GAS  /var/folders/yd/h_51qzcj4039f6rvxdz3lvym0000gn/T//ccKvYnDW.s 			page 59


 496:/Library/DaisyToolchain/0.2.0/arm/arm-none-eabi/include/c++/10.3.1/bits/basic_string.h ****        *  @param  __pos  Index of first character to copy from.
 497:/Library/DaisyToolchain/0.2.0/arm/arm-none-eabi/include/c++/10.3.1/bits/basic_string.h ****        *  @param  __n  Number of characters to copy.
 498:/Library/DaisyToolchain/0.2.0/arm/arm-none-eabi/include/c++/10.3.1/bits/basic_string.h ****        *  @param  __a  Allocator to use.
 499:/Library/DaisyToolchain/0.2.0/arm/arm-none-eabi/include/c++/10.3.1/bits/basic_string.h ****        */
 500:/Library/DaisyToolchain/0.2.0/arm/arm-none-eabi/include/c++/10.3.1/bits/basic_string.h ****       basic_string(const basic_string& __str, size_type __pos,
 501:/Library/DaisyToolchain/0.2.0/arm/arm-none-eabi/include/c++/10.3.1/bits/basic_string.h **** 		   size_type __n, const _Alloc& __a)
 502:/Library/DaisyToolchain/0.2.0/arm/arm-none-eabi/include/c++/10.3.1/bits/basic_string.h ****       : _M_dataplus(_M_local_data(), __a)
 503:/Library/DaisyToolchain/0.2.0/arm/arm-none-eabi/include/c++/10.3.1/bits/basic_string.h ****       {
 504:/Library/DaisyToolchain/0.2.0/arm/arm-none-eabi/include/c++/10.3.1/bits/basic_string.h **** 	const _CharT* __start
 505:/Library/DaisyToolchain/0.2.0/arm/arm-none-eabi/include/c++/10.3.1/bits/basic_string.h **** 	  = __str._M_data() + __str._M_check(__pos, "string::string");
 506:/Library/DaisyToolchain/0.2.0/arm/arm-none-eabi/include/c++/10.3.1/bits/basic_string.h **** 	_M_construct(__start, __start + __str._M_limit(__pos, __n));
